

Microchip MPLAB XC8 Assembler V2.20 build 20200408173844 
                                                                                               Thu May 20 11:48:15 2021

Microchip MPLAB XC8 C Compiler v2.20 (Free license) build 20200408173844 Og1 
     1                           	processor	18F4550
     2                           	fnconf	rparam,??,?,0
     3                           	pagewidth 120
     4                           	opt	flic
     5                           	psect	idataBANK1,global,class=CODE,delta=1,noexec
     6                           	psect	smallconst,global,reloc=2,class=SMALLCONST,delta=1,noexec
     7                           	psect	cinit,global,reloc=2,class=CODE,delta=1
     8                           	psect	bssCOMRAM,global,class=COMRAM,space=1,delta=1,lowdata,noexec
     9                           	psect	bssBANK0,global,class=BANK0,space=1,delta=1,lowdata,noexec
    10                           	psect	bssBANK1,global,class=BANK1,space=1,delta=1,lowdata,noexec
    11                           	psect	dataBANK1,global,class=BANK1,space=1,delta=1,lowdata,noexec
    12                           	psect	bssBANK2,global,class=BANK2,space=1,delta=1,lowdata,noexec
    13                           	psect	cstackBANK1,global,class=BANK1,space=1,delta=1,lowdata,noexec
    14                           	psect	cstackBANK0,global,class=BANK0,space=1,delta=1,lowdata,noexec
    15                           	psect	cstackCOMRAM,global,class=COMRAM,space=1,delta=1,lowdata,noexec
    16                           	psect	text0,global,reloc=2,class=CODE,delta=1
    17                           	psect	text1,global,reloc=2,class=CODE,delta=1,group=3
    18                           	psect	text2,global,reloc=2,class=CODE,delta=1,group=3
    19                           	psect	text3,global,reloc=2,class=CODE,delta=1,group=1
    20                           	psect	text4,global,reloc=2,class=CODE,delta=1,group=1
    21                           	psect	text5,global,reloc=2,class=CODE,delta=1,group=3
    22                           	psect	text6,global,reloc=2,class=CODE,delta=1,group=1
    23                           	psect	text7,global,reloc=2,class=CODE,delta=1,group=3
    24                           	psect	text8,global,reloc=2,class=CODE,delta=1,group=3
    25                           	psect	text9,global,reloc=2,class=CODE,delta=1,group=3
    26                           	psect	text10,global,reloc=2,class=CODE,delta=1,group=3
    27                           	psect	text11,global,reloc=2,class=CODE,delta=1,group=3
    28                           	psect	text12,global,reloc=2,class=CODE,delta=1,group=2
    29                           	psect	text13,global,reloc=2,class=CODE,delta=1,group=2
    30                           	psect	text14,global,reloc=2,class=CODE,delta=1,group=2
    31                           	psect	text15,global,reloc=2,class=CODE,delta=1,group=2
    32                           	psect	text16,global,reloc=2,class=CODE,delta=1,group=2
    33                           	psect	text17,global,reloc=2,class=CODE,delta=1,group=2
    34                           	psect	text18,global,reloc=2,class=CODE,delta=1,group=2
    35                           	psect	text19,global,reloc=2,class=CODE,delta=1,group=2
    36                           	psect	text20,global,reloc=2,class=CODE,delta=1,group=2
    37                           	psect	text21,global,reloc=2,class=CODE,delta=1,group=2
    38                           	psect	text22,global,reloc=2,class=CODE,delta=1,group=1
    39                           	psect	text23,global,reloc=2,class=CODE,delta=1,group=1
    40                           	psect	text24,global,reloc=2,class=CODE,delta=1,group=3
    41                           	psect	text25,global,reloc=2,class=CODE,delta=1,group=3
    42                           	psect	text26,global,reloc=2,class=CODE,delta=1,group=3
    43                           	psect	text27,global,reloc=2,class=CODE,delta=1,group=3
    44                           	psect	text28,global,reloc=2,class=CODE,delta=1,group=3
    45                           	psect	text29,global,reloc=2,class=CODE,delta=1,group=2
    46                           	psect	text30,global,reloc=2,class=CODE,delta=1,group=2
    47                           	psect	text31,global,reloc=2,class=CODE,delta=1,group=3
    48                           	psect	text32,global,reloc=2,class=CODE,delta=1,group=3
    49                           	psect	text33,global,reloc=2,class=CODE,delta=1,group=3
    50                           	psect	text34,global,reloc=2,class=CODE,delta=1,group=2
    51                           	psect	text35,global,reloc=2,class=CODE,delta=1
    52                           	psect	text36,global,reloc=2,class=CODE,delta=1
    53                           	psect	text37,global,reloc=2,class=CODE,delta=1,group=2
    54                           	psect	text38,global,reloc=2,class=CODE,delta=1
    55                           	psect	text39,global,reloc=2,class=CODE,delta=1
    56                           	psect	text40,global,reloc=2,class=CODE,delta=1
    57                           	psect	text41,global,reloc=2,class=CODE,delta=1
    58                           	psect	text42,global,reloc=2,class=CODE,delta=1
    59                           	psect	text43,global,reloc=2,class=CODE,delta=1
    60                           	psect	text44,global,reloc=2,class=CODE,delta=1
    61                           	psect	text45,global,reloc=2,class=CODE,delta=1
    62                           	psect	text46,global,reloc=2,class=CODE,delta=1
    63                           	psect	intcodelo,global,reloc=2,class=CODE,delta=1
    64                           	psect	intcode,global,reloc=2,class=CODE,delta=1
    65                           	psect	intcode_body,global,reloc=2,class=CODE,delta=1
    66                           	psect	intsave_regs,global,class=BIGRAM,space=1,delta=1,noexec
    67                           	psect	rparam,global,class=COMRAM,space=1,delta=1,noexec
    68                           	psect	temp,global,ovrld,common,class=COMRAM,space=1,delta=1
    69                           	psect	idloc,global,abs,ovrld,class=IDLOC,space=5,delta=1,noexec
    70                           	psect	config,global,abs,ovrld,class=CONFIG,space=4,delta=1,noexec
    71  0000                     
    72                           ; Version 2.20
    73                           ; Generated 12/02/2020 GMT
    74                           ; 
    75                           ; Copyright © 2020, Microchip Technology Inc. and its subsidiaries ("Microchip")
    76                           ; All rights reserved.
    77                           ; 
    78                           ; This software is developed by Microchip Technology Inc. and its subsidiaries ("Microch
      +                          ip").
    79                           ; 
    80                           ; Redistribution and use in source and binary forms, with or without modification, are
    81                           ; permitted provided that the following conditions are met:
    82                           ; 
    83                           ;     1. Redistributions of source code must retain the above copyright notice, this lis
      +                          t of
    84                           ;        conditions and the following disclaimer.
    85                           ; 
    86                           ;     2. Redistributions in binary form must reproduce the above copyright notice, this 
      +                          list
    87                           ;        of conditions and the following disclaimer in the documentation and/or other
    88                           ;        materials provided with the distribution.
    89                           ; 
    90                           ;     3. Microchip's name may not be used to endorse or promote products derived from th
      +                          is
    91                           ;        software without specific prior written permission.
    92                           ; 
    93                           ; THIS SOFTWARE IS PROVIDED BY MICROCHIP "AS IS" AND ANY EXPRESS OR IMPLIED WARRANTIES,
    94                           ; INCLUDING, BUT NOT LIMITED TO, THE IMPLIED WARRANTIES OF MERCHANTABILITY AND FITNESS F
      +                          OR
    95                           ; PURPOSE ARE DISCLAIMED.  IN NO EVENT SHALL MICROCHIP BE LIABLE FOR ANY DIRECT, INDIREC
      +                          T,
    96                           ; INCIDENTAL, SPECIAL, EXEMPLARY, OR CONSEQUENTIAL DAMAGES (INCLUDING BUT NOT LIMITED TO
    97                           ; PROCUREMENT OF SUBSTITUTE GOODS OR SERVICES; LOSS OF USE, DATA OR PROFITS; OR BUSINESS
    98                           ; INTERRUPTION) HOWSOEVER CAUSED AND ON ANY THEORY OF LIABILITY, WHETHER IN CONTRACT, ST
      +                          RICT
    99                           ; LIABILITY, OR TORT (INCLUDING NEGLIGENCE OR OTHERWISE) ARISING IN ANY WAY OUT OF THE U
      +                          SE OF
   100                           ; THIS SOFTWARE, EVEN IF ADVISED OF THE POSSIBILITY OF SUCH DAMAGE.
   101                           ; 
   102                           ; 
   103                           ; Code-generator required, PIC18F4550 Definitions
   104                           ; 
   105                           ; SFR Addresses
   106  0000                     
   107                           	psect	idataBANK1
   108  004756                     __pidataBANK1:
   109                           	callstack 0
   110                           
   111                           ;initializer for _flag_primeira_vez
   112  004756  0001               	dw	1
   113                           
   114                           ;initializer for _segundos_que_passaram
   115  004758  0001               	dw	1
   116  0000                     _PORTBbits	set	3969
   117  0000                     _T0CON	set	4053
   118  0000                     _RCONbits	set	4048
   119  0000                     _INTCON2bits	set	4081
   120  0000                     _TMR0L	set	4054
   121  0000                     _TMR0H	set	4055
   122  0000                     _INTCONbits	set	4082
   123  0000                     _T0CONbits	set	4053
   124  0000                     _INTCON3bits	set	4080
   125  0000                     _ADRESL	set	4035
   126  0000                     _ADRESH	set	4036
   127  0000                     _ADCON0bits	set	4034
   128  0000                     _ADCON2	set	4032
   129  0000                     _ADCON1	set	4033
   130  0000                     _ADCON0	set	4034
   131  0000                     _TRISAbits	set	3986
   132  0000                     _LATEbits	set	3981
   133  0000                     _LATBbits	set	3978
   134  0000                     _TRISEbits	set	3990
   135  0000                     _TRISBbits	set	3987
   136  0000                     _TRISD	set	3989
   137  0000                     _PORTD	set	3971
   138  0000                     _GO_nDONE	set	32273
   139                           
   140                           	psect	smallconst
   141  000800                     __psmallconst:
   142                           	callstack 0
   143  000800  00                 	db	0
   144  000801                     STR_13:
   145  000801  41                 	db	65	;'A'
   146  000802  67                 	db	103	;'g'
   147  000803  75                 	db	117	;'u'
   148  000804  61                 	db	97	;'a'
   149  000805  72                 	db	114	;'r'
   150  000806  64                 	db	100	;'d'
   151  000807  65                 	db	101	;'e'
   152  000808  3A                 	db	58	;':'
   153  000809  20                 	db	32
   154  00080A  28                 	db	40
   155  00080B  25                 	db	37
   156  00080C  64                 	db	100	;'d'
   157  00080D  2F                 	db	47
   158  00080E  36                 	db	54	;'6'
   159  00080F  30                 	db	48	;'0'
   160  000810  29                 	db	41
   161  000811  00                 	db	0
   162  000812                     STR_14:
   163  000812  50                 	db	80	;'P'
   164  000813  72                 	db	114	;'r'
   165  000814  65                 	db	101	;'e'
   166  000815  76                 	db	118	;'v'
   167  000816  69                 	db	105	;'i'
   168  000817  73                 	db	115	;'s'
   169  000818  61                 	db	97	;'a'
   170  000819  6F                 	db	111	;'o'
   171  00081A  20                 	db	32
   172  00081B  6E                 	db	110	;'n'
   173  00081C  6F                 	db	111	;'o'
   174  00081D  20                 	db	32
   175  00081E  6D                 	db	109	;'m'
   176  00081F  65                 	db	101	;'e'
   177  000820  73                 	db	115	;'s'
   178  000821  00                 	db	0
   179  000822                     STR_12:
   180  000822  47                 	db	71	;'G'
   181  000823  61                 	db	97	;'a'
   182  000824  73                 	db	115	;'s'
   183  000825  74                 	db	116	;'t'
   184  000826  6F                 	db	111	;'o'
   185  000827  20                 	db	32
   186  000828  70                 	db	112	;'p'
   187  000829  6F                 	db	111	;'o'
   188  00082A  72                 	db	114	;'r'
   189  00082B  20                 	db	32
   190  00082C  68                 	db	104	;'h'
   191  00082D  6F                 	db	111	;'o'
   192  00082E  72                 	db	114	;'r'
   193  00082F  61                 	db	97	;'a'
   194  000830  00                 	db	0
   195  000831                     STR_1:
   196  000831  43                 	db	67	;'C'
   197  000832  61                 	db	97	;'a'
   198  000833  72                 	db	114	;'r'
   199  000834  72                 	db	114	;'r'
   200  000835  65                 	db	101	;'e'
   201  000836  67                 	db	103	;'g'
   202  000837  61                 	db	97	;'a'
   203  000838  6E                 	db	110	;'n'
   204  000839  64                 	db	100	;'d'
   205  00083A  6F                 	db	111	;'o'
   206  00083B  2E                 	db	46
   207  00083C  2E                 	db	46
   208  00083D  2E                 	db	46
   209  00083E  00                 	db	0
   210  00083F                     STR_17:
   211  00083F  45                 	db	69	;'E'
   212  000840  71                 	db	113	;'q'
   213  000841  75                 	db	117	;'u'
   214  000842  69                 	db	105	;'i'
   215  000843  70                 	db	112	;'p'
   216  000844  65                 	db	101	;'e'
   217  000845  20                 	db	32
   218  000846  36                 	db	54	;'6'
   219  000847  00                 	db	0
   220  000848                     STR_16:
   221  000848  43                 	db	67	;'C'
   222  000849  72                 	db	114	;'r'
   223  00084A  65                 	db	101	;'e'
   224  00084B  64                 	db	100	;'d'
   225  00084C  69                 	db	105	;'i'
   226  00084D  74                 	db	116	;'t'
   227  00084E  6F                 	db	111	;'o'
   228  00084F  73                 	db	115	;'s'
   229  000850  00                 	db	0
   230  000851                     STR_8:
   231  000851  52                 	db	82	;'R'
   232  000852  24                 	db	36
   233  000853  20                 	db	32
   234  000854  25                 	db	37
   235  000855  2E                 	db	46
   236  000856  32                 	db	50	;'2'
   237  000857  66                 	db	102	;'f'
   238  000858  00                 	db	0
   239  000859                     STR_7:
   240  000859  20                 	db	32
   241  00085A  6B                 	db	107	;'k'
   242  00085B  57                 	db	87	;'W'
   243  00085C  68                 	db	104	;'h'
   244  00085D  00                 	db	0
   245  00085E                     STR_19:
   246  00085E  49                 	db	73	;'I'
   247  00085F  4E                 	db	78	;'N'
   248  000860  46                 	db	70	;'F'
   249  000861  00                 	db	0
   250  000862                     STR_23:
   251  000862  4E                 	db	78	;'N'
   252  000863  41                 	db	65	;'A'
   253  000864  4E                 	db	78	;'N'
   254  000865  00                 	db	0
   255  000866                     STR_20:
   256  000866  69                 	db	105	;'i'
   257  000867  6E                 	db	110	;'n'
   258  000868  66                 	db	102	;'f'
   259  000869  00                 	db	0
   260  00086A                     STR_24:
   261  00086A  6E                 	db	110	;'n'
   262  00086B  61                 	db	97	;'a'
   263  00086C  6E                 	db	110	;'n'
   264  00086D  00                 	db	0
   265  00086E                     STR_4:
   266  00086E  20                 	db	32
   267  00086F  6B                 	db	107	;'k'
   268  000870  57                 	db	87	;'W'
   269  000871  00                 	db	0
   270  000872                     STR_27:
   271  000872  6C                 	db	108	;'l'
   272  000873  66                 	db	102	;'f'
   273  000874  00                 	db	0
   274  000875                     STR_18:
   275  000875  3F                 	db	63	;'?'
   276  000876  00                 	db	0
   277  000877  00                 	db	0	; dummy byte at the end
   278  0000                     
   279                           ; #config settings
   280                           
   281                           	psect	cinit
   282  00428E                     __pcinit:
   283                           	callstack 0
   284  00428E                     start_initialization:
   285                           	callstack 0
   286  00428E                     __initialization:
   287                           	callstack 0
   288                           
   289                           ; Initialize objects allocated to BANK1 (4 bytes)
   290                           ; load TBLPTR registers with __pidataBANK1
   291  00428E  0E56               	movlw	low __pidataBANK1
   292  004290  6EF6               	movwf	tblptrl,c
   293  004292  0E47               	movlw	high __pidataBANK1
   294  004294  6EF7               	movwf	tblptrh,c
   295  004296  0E00               	movlw	low (__pidataBANK1 shr (0+16))
   296  004298  6EF8               	movwf	tblptru,c
   297  00429A  EE01  F0C2         	lfsr	0,__pdataBANK1
   298  00429E  EE10 F004          	lfsr	1,4
   299  0042A2                     copy_data0:
   300  0042A2  0009               	tblrd		*+
   301  0042A4  CFF5 FFEE          	movff	tablat,postinc0
   302  0042A8  50E5               	movf	postdec1,w,c
   303  0042AA  50E1               	movf	fsr1l,w,c
   304  0042AC  E1FA               	bnz	copy_data0
   305                           
   306                           ; Clear objects allocated to BANK2 (240 bytes)
   307  0042AE  EE02  F000         	lfsr	0,__pbssBANK2
   308  0042B2  0EF0               	movlw	240
   309  0042B4                     clear_0:
   310  0042B4  6AEE               	clrf	postinc0,c
   311  0042B6  06E8               	decf	wreg,f,c
   312  0042B8  E1FD               	bnz	clear_0
   313                           
   314                           ; Clear objects allocated to BANK1 (84 bytes)
   315  0042BA  EE01  F06E         	lfsr	0,__pbssBANK1
   316  0042BE  0E54               	movlw	84
   317  0042C0                     clear_1:
   318  0042C0  6AEE               	clrf	postinc0,c
   319  0042C2  06E8               	decf	wreg,f,c
   320  0042C4  E1FD               	bnz	clear_1
   321                           
   322                           ; Clear objects allocated to BANK0 (12 bytes)
   323  0042C6  EE00  F0F4         	lfsr	0,__pbssBANK0
   324  0042CA  0E0C               	movlw	12
   325  0042CC                     clear_2:
   326  0042CC  6AEE               	clrf	postinc0,c
   327  0042CE  06E8               	decf	wreg,f,c
   328  0042D0  E1FD               	bnz	clear_2
   329                           
   330                           ; Clear objects allocated to COMRAM (8 bytes)
   331  0042D2  EE00  F04E         	lfsr	0,__pbssCOMRAM
   332  0042D6  0E08               	movlw	8
   333  0042D8                     clear_3:
   334  0042D8  6AEE               	clrf	postinc0,c
   335  0042DA  06E8               	decf	wreg,f,c
   336  0042DC  E1FD               	bnz	clear_3
   337  0042DE                     end_of_initialization:
   338                           	callstack 0
   339  0042DE                     __end_of__initialization:
   340                           	callstack 0
   341  0042DE  9056               	bcf	int$flags,0,c	;clear compiler interrupt flag (level 1)
   342  0042E0  9256               	bcf	int$flags,1,c	;clear compiler interrupt flag (level 2)
   343  0042E2  0E00               	movlw	low (__Lmediumconst shr (0+16))
   344  0042E4  6EF8               	movwf	tblptru,c
   345  0042E6  0100               	movlb	0
   346  0042E8  EF15  F00A         	goto	_main	;jump to C main() function
   347                           
   348                           	psect	bssCOMRAM
   349  00004E                     __pbssCOMRAM:
   350                           	callstack 0
   351  00004E                     _width:
   352                           	callstack 0
   353  00004E                     	ds	2
   354  000050                     _prec:
   355                           	callstack 0
   356  000050                     	ds	2
   357  000052                     _flags:
   358                           	callstack 0
   359  000052                     	ds	2
   360  000054                     _minutos_que_passaram:
   361                           	callstack 0
   362  000054                     	ds	2
   363                           
   364                           	psect	bssBANK0
   365  0000F4                     __pbssBANK0:
   366                           	callstack 0
   367  0000F4                     floorf@F524:
   368                           	callstack 0
   369  0000F4                     	ds	4
   370  0000F8                     ___fpclassifyf@F463:
   371                           	callstack 0
   372  0000F8                     	ds	4
   373  0000FC                     _nout:
   374                           	callstack 0
   375  0000FC                     	ds	2
   376  0000FE                     _somatorio_de_tensoes:
   377                           	callstack 0
   378  0000FE                     	ds	2
   379                           
   380                           	psect	bssBANK1
   381  00016E                     __pbssBANK1:
   382                           	callstack 0
   383  00016E                     _calculo_de_potencia:
   384                           	callstack 0
   385  00016E                     	ds	4
   386  000172                     _dbuf:
   387                           	callstack 0
   388  000172                     	ds	80
   389                           
   390                           	psect	dataBANK1
   391  0001C2                     __pdataBANK1:
   392                           	callstack 0
   393  0001C2                     _flag_primeira_vez:
   394                           	callstack 0
   395  0001C2                     	ds	2
   396  0001C4                     _segundos_que_passaram:
   397                           	callstack 0
   398  0001C4                     	ds	2
   399                           
   400                           	psect	bssBANK2
   401  000200                     __pbssBANK2:
   402                           	callstack 0
   403  000200                     _vetor_de_potencias:
   404                           	callstack 0
   405  000200                     	ds	240
   406                           
   407                           	psect	cstackBANK1
   408  000100                     __pcstackBANK1:
   409                           	callstack 0
   410  000100                     ??_main:
   411                           
   412                           ; 1 bytes @ 0x0
   413  000100                     	ds	2
   414  000102                     main@calculando:
   415                           	callstack 0
   416                           
   417                           ; 16 bytes @ 0x2
   418  000102                     	ds	16
   419  000112                     main@valorPorHora:
   420                           	callstack 0
   421                           
   422                           ; 10 bytes @ 0x12
   423  000112                     	ds	10
   424  00011C                     main@valorPorMes:
   425                           	callstack 0
   426                           
   427                           ; 10 bytes @ 0x1C
   428  00011C                     	ds	10
   429  000126                     main@currentWatts:
   430                           	callstack 0
   431                           
   432                           ; 10 bytes @ 0x26
   433  000126                     	ds	10
   434  000130                     main@minuteWatts:
   435                           	callstack 0
   436                           
   437                           ; 10 bytes @ 0x30
   438  000130                     	ds	10
   439  00013A                     main@offsetVoltage:
   440                           	callstack 0
   441                           
   442                           ; 4 bytes @ 0x3A
   443  00013A                     	ds	4
   444  00013E                     main@sensitivity:
   445                           	callstack 0
   446                           
   447                           ; 4 bytes @ 0x3E
   448  00013E                     	ds	4
   449  000142                     _main$1750:
   450                           	callstack 0
   451                           
   452                           ; 4 bytes @ 0x42
   453  000142                     	ds	4
   454  000146                     _main$1751:
   455                           	callstack 0
   456                           
   457                           ; 4 bytes @ 0x46
   458  000146                     	ds	4
   459  00014A                     _main$1752:
   460                           	callstack 0
   461                           
   462                           ; 4 bytes @ 0x4A
   463  00014A                     	ds	4
   464  00014E                     _main$1753:
   465                           	callstack 0
   466                           
   467                           ; 4 bytes @ 0x4E
   468  00014E                     	ds	4
   469  000152                     main@horas_de_consumo_por_dia:
   470                           	callstack 0
   471                           
   472                           ; 2 bytes @ 0x52
   473  000152                     	ds	2
   474  000154                     main@dis_de_consumo_por_mes:
   475                           	callstack 0
   476                           
   477                           ; 2 bytes @ 0x54
   478  000154                     	ds	2
   479  000156                     main@voltage:
   480                           	callstack 0
   481                           
   482                           ; 4 bytes @ 0x56
   483  000156                     	ds	4
   484  00015A                     main@adcValue:
   485                           	callstack 0
   486                           
   487                           ; 2 bytes @ 0x5A
   488  00015A                     	ds	2
   489  00015C                     main@preco_em_reais:
   490                           	callstack 0
   491                           
   492                           ; 4 bytes @ 0x5C
   493  00015C                     	ds	4
   494  000160                     main@i:
   495                           	callstack 0
   496                           
   497                           ; 2 bytes @ 0x60
   498  000160                     	ds	2
   499  000162                     main@y:
   500                           	callstack 0
   501                           
   502                           ; 2 bytes @ 0x62
   503  000162                     	ds	2
   504  000164                     main@current:
   505                           	callstack 0
   506                           
   507                           ; 4 bytes @ 0x64
   508  000164                     	ds	4
   509  000168                     main@tela:
   510                           	callstack 0
   511                           
   512                           ; 2 bytes @ 0x68
   513  000168                     	ds	2
   514  00016A                     main@potencia_por_minuto:
   515                           	callstack 0
   516                           
   517                           ; 4 bytes @ 0x6A
   518  00016A                     	ds	4
   519                           
   520                           	psect	cstackBANK0
   521  000060                     __pcstackBANK0:
   522                           	callstack 0
   523  000060                     ___fldiv@rem:
   524                           	callstack 0
   525                           
   526                           ; 4 bytes @ 0x0
   527  000060                     	ds	4
   528  000064                     ___fldiv@sign:
   529                           	callstack 0
   530                           
   531                           ; 1 bytes @ 0x4
   532  000064                     	ds	1
   533  000065                     ___fldiv@new_exp:
   534                           	callstack 0
   535                           
   536                           ; 2 bytes @ 0x5
   537  000065                     	ds	2
   538  000067                     ___fldiv@grs:
   539                           	callstack 0
   540                           
   541                           ; 4 bytes @ 0x7
   542  000067                     	ds	4
   543  00006B                     ___fldiv@bexp:
   544                           	callstack 0
   545                           
   546                           ; 1 bytes @ 0xB
   547  00006B                     	ds	1
   548  00006C                     ___fldiv@aexp:
   549                           	callstack 0
   550                           
   551                           ; 1 bytes @ 0xC
   552  00006C                     	ds	1
   553  00006D                     ??_floorf:
   554                           
   555                           ; 1 bytes @ 0xD
   556  00006D                     	ds	6
   557  000073                     floorf@m:
   558                           	callstack 0
   559                           
   560                           ; 4 bytes @ 0x13
   561  000073                     	ds	4
   562  000077                     floorf@e:
   563                           	callstack 0
   564                           
   565                           ; 2 bytes @ 0x17
   566  000077                     	ds	2
   567  000079                     floorf@u:
   568                           	callstack 0
   569                           
   570                           ; 4 bytes @ 0x19
   571  000079                     	ds	4
   572  00007D                     ?_efgtoa:
   573                           	callstack 0
   574  00007D                     efgtoa@fp:
   575                           	callstack 0
   576                           
   577                           ; 2 bytes @ 0x1D
   578  00007D                     	ds	2
   579  00007F                     efgtoa@f:
   580                           	callstack 0
   581                           
   582                           ; 4 bytes @ 0x1F
   583  00007F                     	ds	4
   584  000083                     efgtoa@c:
   585                           	callstack 0
   586                           
   587                           ; 1 bytes @ 0x23
   588  000083                     	ds	1
   589  000084                     efgtoa@ou:
   590                           	callstack 0
   591                           
   592                           ; 4 bytes @ 0x24
   593  000084                     	ds	4
   594  000088                     _efgtoa$1349:
   595                           	callstack 0
   596                           
   597                           ; 2 bytes @ 0x28
   598  000088                     	ds	2
   599  00008A                     _efgtoa$1350:
   600                           	callstack 0
   601                           
   602                           ; 2 bytes @ 0x2A
   603  00008A                     	ds	2
   604  00008C                     _efgtoa$1354:
   605                           	callstack 0
   606                           
   607                           ; 2 bytes @ 0x2C
   608  00008C                     	ds	2
   609  00008E                     _efgtoa$1358:
   610                           	callstack 0
   611                           
   612                           ; 2 bytes @ 0x2E
   613  00008E                     	ds	2
   614  000090                     _efgtoa$1359:
   615                           	callstack 0
   616                           
   617                           ; 2 bytes @ 0x30
   618  000090                     	ds	2
   619  000092                     _efgtoa$1360:
   620                           	callstack 0
   621                           
   622                           ; 2 bytes @ 0x32
   623  000092                     	ds	2
   624  000094                     efgtoa@t:
   625                           	callstack 0
   626                           
   627                           ; 2 bytes @ 0x34
   628  000094                     	ds	2
   629  000096                     efgtoa@pp:
   630                           	callstack 0
   631                           
   632                           ; 2 bytes @ 0x36
   633  000096                     	ds	2
   634  000098                     efgtoa@m:
   635                           	callstack 0
   636                           
   637                           ; 2 bytes @ 0x38
   638  000098                     	ds	2
   639  00009A                     efgtoa@ne:
   640                           	callstack 0
   641                           
   642                           ; 2 bytes @ 0x3A
   643  00009A                     	ds	2
   644  00009C                     efgtoa@d:
   645                           	callstack 0
   646                           
   647                           ; 2 bytes @ 0x3C
   648  00009C                     	ds	2
   649  00009E                     efgtoa@sign:
   650                           	callstack 0
   651                           
   652                           ; 2 bytes @ 0x3E
   653  00009E                     	ds	2
   654  0000A0                     efgtoa@p:
   655                           	callstack 0
   656                           
   657                           ; 2 bytes @ 0x40
   658  0000A0                     	ds	2
   659  0000A2                     efgtoa@nmode:
   660                           	callstack 0
   661                           
   662                           ; 1 bytes @ 0x42
   663  0000A2                     	ds	1
   664  0000A3                     efgtoa@w:
   665                           	callstack 0
   666                           
   667                           ; 2 bytes @ 0x43
   668  0000A3                     	ds	2
   669  0000A5                     efgtoa@mode:
   670                           	callstack 0
   671                           
   672                           ; 1 bytes @ 0x45
   673  0000A5                     	ds	1
   674  0000A6                     efgtoa@h:
   675                           	callstack 0
   676                           
   677                           ; 4 bytes @ 0x46
   678  0000A6                     	ds	4
   679  0000AA                     efgtoa@l:
   680                           	callstack 0
   681                           
   682                           ; 4 bytes @ 0x4A
   683  0000AA                     	ds	4
   684  0000AE                     efgtoa@i:
   685                           	callstack 0
   686                           
   687                           ; 2 bytes @ 0x4E
   688  0000AE                     	ds	2
   689  0000B0                     efgtoa@g:
   690                           	callstack 0
   691                           
   692                           ; 4 bytes @ 0x50
   693  0000B0                     	ds	4
   694  0000B4                     efgtoa@e:
   695                           	callstack 0
   696                           
   697                           ; 2 bytes @ 0x54
   698  0000B4                     	ds	2
   699  0000B6                     efgtoa@n:
   700                           	callstack 0
   701                           
   702                           ; 2 bytes @ 0x56
   703  0000B6                     	ds	2
   704  0000B8                     efgtoa@u:
   705                           	callstack 0
   706                           
   707                           ; 4 bytes @ 0x58
   708  0000B8                     	ds	4
   709  0000BC                     ?_vfpfcnvrt:
   710                           	callstack 0
   711  0000BC                     vfpfcnvrt@fp:
   712                           	callstack 0
   713                           
   714                           ; 2 bytes @ 0x5C
   715  0000BC                     	ds	2
   716  0000BE                     vfpfcnvrt@fmt:
   717                           	callstack 0
   718                           
   719                           ; 2 bytes @ 0x5E
   720  0000BE                     	ds	2
   721  0000C0                     vfpfcnvrt@ap:
   722                           	callstack 0
   723                           
   724                           ; 2 bytes @ 0x60
   725  0000C0                     	ds	2
   726  0000C2                     ??_vfpfcnvrt:
   727                           
   728                           ; 1 bytes @ 0x62
   729  0000C2                     	ds	4
   730  0000C6                     vfpfcnvrt@ll:
   731                           	callstack 0
   732                           
   733                           ; 8 bytes @ 0x66
   734  0000C6                     	ds	8
   735  0000CE                     _vfpfcnvrt$1374:
   736                           	callstack 0
   737                           
   738                           ; 2 bytes @ 0x6E
   739  0000CE                     	ds	2
   740  0000D0                     _vfpfcnvrt$1379:
   741                           	callstack 0
   742                           
   743                           ; 2 bytes @ 0x70
   744  0000D0                     	ds	2
   745  0000D2                     vfpfcnvrt@ct:
   746                           	callstack 0
   747                           
   748                           ; 3 bytes @ 0x72
   749  0000D2                     	ds	3
   750  0000D5                     vfpfcnvrt@f:
   751                           	callstack 0
   752                           
   753                           ; 4 bytes @ 0x75
   754  0000D5                     	ds	4
   755  0000D9                     vfpfcnvrt@c:
   756                           	callstack 0
   757                           
   758                           ; 1 bytes @ 0x79
   759  0000D9                     	ds	1
   760  0000DA                     ?_vfprintf:
   761                           	callstack 0
   762  0000DA                     vfprintf@fp:
   763                           	callstack 0
   764                           
   765                           ; 2 bytes @ 0x7A
   766  0000DA                     	ds	2
   767  0000DC                     vfprintf@fmt:
   768                           	callstack 0
   769                           
   770                           ; 2 bytes @ 0x7C
   771  0000DC                     	ds	2
   772  0000DE                     vfprintf@ap:
   773                           	callstack 0
   774                           
   775                           ; 2 bytes @ 0x7E
   776  0000DE                     	ds	2
   777  0000E0                     vfprintf@cfmt:
   778                           	callstack 0
   779                           
   780                           ; 2 bytes @ 0x80
   781  0000E0                     	ds	2
   782  0000E2                     ?_sprintf:
   783                           	callstack 0
   784  0000E2                     sprintf@s:
   785                           	callstack 0
   786                           
   787                           ; 2 bytes @ 0x82
   788  0000E2                     	ds	2
   789  0000E4                     sprintf@fmt:
   790                           	callstack 0
   791                           
   792                           ; 2 bytes @ 0x84
   793  0000E4                     	ds	8
   794  0000EC                     sprintf@ap:
   795                           	callstack 0
   796                           
   797                           ; 2 bytes @ 0x8C
   798  0000EC                     	ds	2
   799  0000EE                     sprintf@f:
   800                           	callstack 0
   801                           
   802                           ; 6 bytes @ 0x8E
   803  0000EE                     	ds	6
   804                           
   805                           	psect	cstackCOMRAM
   806  000001                     __pcstackCOMRAM:
   807                           	callstack 0
   808  000001                     ??_LowPriorityISR:
   809  000001                     
   810                           ; 1 bytes @ 0x0
   811  000001                     	ds	9
   812  00000A                     ??_DelayPORXLCD:
   813  00000A                     ??_DelayXLCD:
   814  00000A                     ?_strlen:
   815                           	callstack 0
   816  00000A                     ?___fpclassifyf:
   817                           	callstack 0
   818  00000A                     ?_isupper:
   819                           	callstack 0
   820  00000A                     ?_isdigit:
   821                           	callstack 0
   822  00000A                     ?_strncmp:
   823                           	callstack 0
   824  00000A                     ?_isspace:
   825                           	callstack 0
   826  00000A                     ?_LerADC:
   827                           	callstack 0
   828  00000A                     ?___wmul:
   829                           	callstack 0
   830  00000A                     ?___awdiv:
   831                           	callstack 0
   832  00000A                     ?___awmod:
   833                           	callstack 0
   834  00000A                     ?___fladd:
   835                           	callstack 0
   836  00000A                     ?___flneg:
   837                           	callstack 0
   838  00000A                     ?___fltol:
   839                           	callstack 0
   840  00000A                     ?___xxtofl:
   841                           	callstack 0
   842  00000A                     ?___aodiv:
   843                           	callstack 0
   844  00000A                     ?___aomod:
   845                           	callstack 0
   846  00000A                     SetDDRamAddr@DDaddr:
   847                           	callstack 0
   848  00000A                     WriteCmdXLCD@cmd:
   849                           	callstack 0
   850  00000A                     WriteDataXLCD@data:
   851                           	callstack 0
   852  00000A                     ___wmul@multiplier:
   853                           	callstack 0
   854  00000A                     ___awdiv@dividend:
   855                           	callstack 0
   856  00000A                     ___awmod@dividend:
   857                           	callstack 0
   858  00000A                     isdigit@c:
   859                           	callstack 0
   860  00000A                     isspace@c:
   861                           	callstack 0
   862  00000A                     isupper@c:
   863                           	callstack 0
   864  00000A                     fputc@c:
   865                           	callstack 0
   866  00000A                     strlen@s:
   867                           	callstack 0
   868  00000A                     strncmp@_l:
   869                           	callstack 0
   870  00000A                     ___fleq@ff1:
   871                           	callstack 0
   872  00000A                     ___flneg@f1:
   873                           	callstack 0
   874  00000A                     ___fltol@f1:
   875                           	callstack 0
   876  00000A                     ___fladd@b:
   877                           	callstack 0
   878  00000A                     ___xxtofl@val:
   879                           	callstack 0
   880  00000A                     ___fpclassifyf@x:
   881                           	callstack 0
   882  00000A                     ___aodiv@dividend:
   883                           	callstack 0
   884  00000A                     ___aomod@dividend:
   885                           	callstack 0
   886                           
   887                           ; 8 bytes @ 0x9
   888  00000A                     	ds	1
   889  00000B                     OpenXLCD@lcdtype:
   890                           	callstack 0
   891  00000B                     putrsXLCD@buffer:
   892                           	callstack 0
   893                           
   894                           ; 2 bytes @ 0xA
   895  00000B                     	ds	1
   896  00000C                     ??_isupper:
   897  00000C                     ??_isdigit:
   898  00000C                     ??_isspace:
   899  00000C                     ??_LerADC:
   900  00000C                     ___wmul@multiplicand:
   901                           	callstack 0
   902  00000C                     ___awdiv@divisor:
   903                           	callstack 0
   904  00000C                     ___awmod@divisor:
   905                           	callstack 0
   906  00000C                     fputc@fp:
   907                           	callstack 0
   908  00000C                     strlen@a:
   909                           	callstack 0
   910  00000C                     strncmp@_r:
   911                           	callstack 0
   912                           
   913                           ; 2 bytes @ 0xB
   914  00000C                     	ds	1
   915  00000D                     
   916                           ; 1 bytes @ 0xC
   917  00000D                     	ds	1
   918  00000E                     ??_fputc:
   919  00000E                     ??___fpclassifyf:
   920  00000E                     ??___fltol:
   921  00000E                     ??___xxtofl:
   922  00000E                     ___awdiv@counter:
   923                           	callstack 0
   924  00000E                     ___awmod@counter:
   925                           	callstack 0
   926  00000E                     LerADC@temp:
   927                           	callstack 0
   928  00000E                     ___wmul@product:
   929                           	callstack 0
   930  00000E                     strcpy@dest:
   931                           	callstack 0
   932  00000E                     strncmp@n:
   933                           	callstack 0
   934  00000E                     ___fleq@ff2:
   935                           	callstack 0
   936  00000E                     ___fladd@a:
   937                           	callstack 0
   938                           
   939                           ; 4 bytes @ 0xD
   940  00000E                     	ds	1
   941  00000F                     ___awdiv@sign:
   942                           	callstack 0
   943  00000F                     ___awmod@sign:
   944                           	callstack 0
   945                           
   946                           ; 1 bytes @ 0xE
   947  00000F                     	ds	1
   948  000010                     ??_strncmp:
   949  000010                     ?_tolower:
   950                           	callstack 0
   951  000010                     _isspace$1446:
   952                           	callstack 0
   953  000010                     ___awdiv@quotient:
   954                           	callstack 0
   955  000010                     strcpy@src:
   956                           	callstack 0
   957  000010                     tolower@c:
   958                           	callstack 0
   959                           
   960                           ; 2 bytes @ 0xF
   961  000010                     	ds	1
   962  000011                     ?_atoi:
   963                           	callstack 0
   964  000011                     atoi@s:
   965                           	callstack 0
   966  000011                     strncmp@l:
   967                           	callstack 0
   968                           
   969                           ; 2 bytes @ 0x10
   970  000011                     	ds	1
   971  000012                     ??___fladd:
   972  000012                     ??_strcpy:
   973  000012                     ??_tolower:
   974  000012                     ??___fleq:
   975  000012                     ___fltol@sign1:
   976                           	callstack 0
   977  000012                     ___xxtofl@sign:
   978                           	callstack 0
   979  000012                     ___fpclassifyf@e:
   980                           	callstack 0
   981  000012                     ___aodiv@divisor:
   982                           	callstack 0
   983  000012                     ___aomod@divisor:
   984                           	callstack 0
   985                           
   986                           ; 8 bytes @ 0x11
   987  000012                     	ds	1
   988  000013                     ??_atoi:
   989  000013                     ___fltol@exp1:
   990                           	callstack 0
   991  000013                     ___xxtofl@exp:
   992                           	callstack 0
   993  000013                     fputs@s:
   994                           	callstack 0
   995  000013                     strncmp@r:
   996                           	callstack 0
   997                           
   998                           ; 2 bytes @ 0x12
   999  000013                     	ds	1
  1000  000014                     strcpy@s:
  1001                           	callstack 0
  1002  000014                     ___xxtofl@arg:
  1003                           	callstack 0
  1004  000014                     ___fpclassifyf@u:
  1005                           	callstack 0
  1006                           
  1007                           ; 4 bytes @ 0x13
  1008  000014                     	ds	1
  1009  000015                     fputs@fp:
  1010                           	callstack 0
  1011                           
  1012                           ; 2 bytes @ 0x14
  1013  000015                     	ds	1
  1014  000016                     ___fladd@signs:
  1015                           	callstack 0
  1016  000016                     strcpy@d:
  1017                           	callstack 0
  1018  000016                     _tolower$1517:
  1019                           	callstack 0
  1020                           
  1021                           ; 2 bytes @ 0x15
  1022  000016                     	ds	1
  1023  000017                     ___fladd@aexp:
  1024                           	callstack 0
  1025  000017                     fputs@c:
  1026                           	callstack 0
  1027  000017                     atoi@neg:
  1028                           	callstack 0
  1029                           
  1030                           ; 2 bytes @ 0x16
  1031  000017                     	ds	1
  1032  000018                     ?___flmul:
  1033                           	callstack 0
  1034  000018                     ___fladd@bexp:
  1035                           	callstack 0
  1036  000018                     fputs@i:
  1037                           	callstack 0
  1038  000018                     strcat@dest:
  1039                           	callstack 0
  1040  000018                     ___flmul@b:
  1041                           	callstack 0
  1042                           
  1043                           ; 4 bytes @ 0x17
  1044  000018                     	ds	1
  1045  000019                     ___fladd@grs:
  1046                           	callstack 0
  1047  000019                     _atoi$1415:
  1048                           	callstack 0
  1049                           
  1050                           ; 2 bytes @ 0x18
  1051  000019                     	ds	1
  1052  00001A                     ?_pad:
  1053                           	callstack 0
  1054  00001A                     ___aodiv@counter:
  1055                           	callstack 0
  1056  00001A                     ___aomod@counter:
  1057                           	callstack 0
  1058  00001A                     pad@fp:
  1059                           	callstack 0
  1060  00001A                     strcat@src:
  1061                           	callstack 0
  1062                           
  1063                           ; 2 bytes @ 0x19
  1064  00001A                     	ds	1
  1065  00001B                     ___aodiv@sign:
  1066                           	callstack 0
  1067  00001B                     ___aomod@sign:
  1068                           	callstack 0
  1069  00001B                     _atoi$1417:
  1070                           	callstack 0
  1071                           
  1072                           ; 2 bytes @ 0x1A
  1073  00001B                     	ds	1
  1074  00001C                     ?_abs:
  1075                           	callstack 0
  1076  00001C                     pad@buf:
  1077                           	callstack 0
  1078  00001C                     abs@a:
  1079                           	callstack 0
  1080  00001C                     ___flmul@a:
  1081                           	callstack 0
  1082  00001C                     ___aodiv@quotient:
  1083                           	callstack 0
  1084                           
  1085                           ; 8 bytes @ 0x1B
  1086  00001C                     	ds	1
  1087  00001D                     _atoi$1416:
  1088                           	callstack 0
  1089                           
  1090                           ; 1 bytes @ 0x1C
  1091  00001D                     	ds	1
  1092  00001E                     ??_abs:
  1093  00001E                     pad@p:
  1094                           	callstack 0
  1095  00001E                     atoi@n:
  1096                           	callstack 0
  1097                           
  1098                           ; 2 bytes @ 0x1D
  1099  00001E                     	ds	2
  1100  000020                     ??___flmul:
  1101  000020                     ??_pad:
  1102                           
  1103                           ; 1 bytes @ 0x1F
  1104  000020                     	ds	1
  1105  000021                     pad@i:
  1106                           	callstack 0
  1107                           
  1108                           ; 2 bytes @ 0x20
  1109  000021                     	ds	2
  1110  000023                     pad@w:
  1111                           	callstack 0
  1112                           
  1113                           ; 2 bytes @ 0x22
  1114  000023                     	ds	1
  1115  000024                     ___flmul@sign:
  1116                           	callstack 0
  1117                           
  1118                           ; 1 bytes @ 0x23
  1119  000024                     	ds	1
  1120  000025                     ?_dtoa:
  1121                           	callstack 0
  1122  000025                     dtoa@fp:
  1123                           	callstack 0
  1124  000025                     ___flmul@grs:
  1125                           	callstack 0
  1126                           
  1127                           ; 4 bytes @ 0x24
  1128  000025                     	ds	2
  1129  000027                     dtoa@d:
  1130                           	callstack 0
  1131                           
  1132                           ; 8 bytes @ 0x26
  1133  000027                     	ds	2
  1134  000029                     ___flmul@aexp:
  1135                           	callstack 0
  1136                           
  1137                           ; 1 bytes @ 0x28
  1138  000029                     	ds	1
  1139  00002A                     ___flmul@bexp:
  1140                           	callstack 0
  1141                           
  1142                           ; 1 bytes @ 0x29
  1143  00002A                     	ds	1
  1144  00002B                     ___flmul@prod:
  1145                           	callstack 0
  1146                           
  1147                           ; 4 bytes @ 0x2A
  1148  00002B                     	ds	4
  1149  00002F                     ??_dtoa:
  1150  00002F                     ___flmul@temp:
  1151                           	callstack 0
  1152                           
  1153                           ; 2 bytes @ 0x2E
  1154  00002F                     	ds	2
  1155  000031                     ?___flsub:
  1156                           	callstack 0
  1157  000031                     ___flge@ff1:
  1158                           	callstack 0
  1159  000031                     ___flsub@b:
  1160                           	callstack 0
  1161                           
  1162                           ; 4 bytes @ 0x30
  1163  000031                     	ds	4
  1164  000035                     ___flge@ff2:
  1165                           	callstack 0
  1166  000035                     ___flsub@a:
  1167                           	callstack 0
  1168                           
  1169                           ; 4 bytes @ 0x34
  1170  000035                     	ds	2
  1171  000037                     _dtoa$1325:
  1172                           	callstack 0
  1173                           
  1174                           ; 2 bytes @ 0x36
  1175  000037                     	ds	2
  1176  000039                     ??___flge:
  1177  000039                     ?___fldiv:
  1178                           	callstack 0
  1179  000039                     dtoa@p:
  1180                           	callstack 0
  1181  000039                     ___fldiv@b:
  1182                           	callstack 0
  1183                           
  1184                           ; 4 bytes @ 0x38
  1185  000039                     	ds	2
  1186  00003B                     dtoa@w:
  1187                           	callstack 0
  1188                           
  1189                           ; 2 bytes @ 0x3A
  1190  00003B                     	ds	2
  1191  00003D                     dtoa@s:
  1192                           	callstack 0
  1193  00003D                     ___fldiv@a:
  1194                           	callstack 0
  1195                           
  1196                           ; 4 bytes @ 0x3C
  1197  00003D                     	ds	2
  1198  00003F                     dtoa@n:
  1199                           	callstack 0
  1200                           
  1201                           ; 8 bytes @ 0x3E
  1202  00003F                     	ds	2
  1203  000041                     ??___fldiv:
  1204                           
  1205                           ; 1 bytes @ 0x40
  1206  000041                     	ds	4
  1207  000045                     ?_floorf:
  1208                           	callstack 0
  1209  000045                     floorf@x:
  1210                           	callstack 0
  1211                           
  1212                           ; 4 bytes @ 0x44
  1213  000045                     	ds	2
  1214  000047                     dtoa@i:
  1215                           	callstack 0
  1216                           
  1217                           ; 2 bytes @ 0x46
  1218  000047                     	ds	2
  1219  000049                     ??_efgtoa:
  1220                           
  1221                           ; 1 bytes @ 0x48
  1222  000049                     	ds	5
  1223  00004E                     
  1224                           ; 1 bytes @ 0x4D
  1225 ;;
  1226 ;;Main: autosize = 0, tempsize = 2, incstack = 0, save=0
  1227 ;;
  1228 ;; *************** function _main *****************
  1229 ;; Defined at:
  1230 ;;		line 150 in file "newmain.c"
  1231 ;; Parameters:    Size  Location     Type
  1232 ;;		None
  1233 ;; Auto vars:     Size  Location     Type
  1234 ;;  y               2   98[BANK1 ] int 
  1235 ;;  i               2   96[BANK1 ] int 
  1236 ;;  potencia_por    4  106[BANK1 ] float 
  1237 ;;  preco_em_rea    4   92[BANK1 ] float 
  1238 ;;  calculando     16    2[BANK1 ] unsigned char [16]
  1239 ;;  minuteWatts    10   48[BANK1 ] unsigned char [10]
  1240 ;;  currentWatts   10   38[BANK1 ] unsigned char [10]
  1241 ;;  valorPorMes    10   28[BANK1 ] unsigned char [10]
  1242 ;;  valorPorHora   10   18[BANK1 ] unsigned char [10]
  1243 ;;  current         4  100[BANK1 ] float 
  1244 ;;  voltage         4   86[BANK1 ] float 
  1245 ;;  sensitivity     4   62[BANK1 ] float 
  1246 ;;  offsetVoltag    4   58[BANK1 ] float 
  1247 ;;  tela            2  104[BANK1 ] int 
  1248 ;;  adcValue        2   90[BANK1 ] unsigned int 
  1249 ;;  dis_de_consu    2   84[BANK1 ] int 
  1250 ;;  horas_de_con    2   82[BANK1 ] int 
  1251 ;; Return value:  Size  Location     Type
  1252 ;;                  1    wreg      void 
  1253 ;; Registers used:
  1254 ;;		wreg, fsr1l, fsr1h, fsr2l, fsr2h, status,2, status,0, tblptrl, tblptrh, tblptru, prodl, prodh, cstack
  1255 ;; Tracked objects:
  1256 ;;		On entry : 0/0
  1257 ;;		On exit  : 0/0
  1258 ;;		Unchanged: 0/0
  1259 ;; Data sizes:     COMRAM   BANK0   BANK1   BANK2   BANK3   BANK4   BANK5   BANK6   BANK7
  1260 ;;      Params:         0       0       0       0       0       0       0       0       0
  1261 ;;      Locals:         0       0     108       0       0       0       0       0       0
  1262 ;;      Temps:          0       0       2       0       0       0       0       0       0
  1263 ;;      Totals:         0       0     110       0       0       0       0       0       0
  1264 ;;Total ram usage:      110 bytes
  1265 ;; Hardware stack levels required when called:   10
  1266 ;; This function calls:
  1267 ;;		_Inicializa_ADC
  1268 ;;		_LerADC
  1269 ;;		_OpenXLCD
  1270 ;;		_WriteCmdXLCD
  1271 ;;		___fladd
  1272 ;;		___fldiv
  1273 ;;		___flmul
  1274 ;;		___flsub
  1275 ;;		___xxtofl
  1276 ;;		_putrsXLCD
  1277 ;;		_sprintf
  1278 ;;		_strcat
  1279 ;; This function is called by:
  1280 ;;		Startup code after reset
  1281 ;; This function uses a non-reentrant model
  1282 ;;
  1283                           
  1284                           	psect	text0
  1285  00142A                     __ptext0:
  1286                           	callstack 0
  1287  00142A                     _main:
  1288                           	callstack 21
  1289  00142A                     
  1290                           ;newmain.c: 153:     INTCON3bits.INT1IF=0;
  1291  00142A  90F0               	bcf	240,0,c	;volatile
  1292                           
  1293                           ;newmain.c: 154:     INTCON2bits.INTEDG1=0;
  1294  00142C  9AF1               	bcf	241,5,c	;volatile
  1295                           
  1296                           ;newmain.c: 155:     INTCON3bits.INT1IP=1;
  1297  00142E  8CF0               	bsf	240,6,c	;volatile
  1298                           
  1299                           ;newmain.c: 156:     INTCON3bits.INT1IE=1;
  1300  001430  86F0               	bsf	240,3,c	;volatile
  1301                           
  1302                           ;newmain.c: 158:     INTCONbits.TMR0IF=0;
  1303  001432  94F2               	bcf	242,2,c	;volatile
  1304                           
  1305                           ;newmain.c: 159:     INTCON2bits.TMR0IP=0;
  1306  001434  94F1               	bcf	241,2,c	;volatile
  1307                           
  1308                           ;newmain.c: 160:     INTCONbits.TMR0IE=1;
  1309  001436  8AF2               	bsf	242,5,c	;volatile
  1310                           
  1311                           ;newmain.c: 162:     RCONbits.IPEN=1;
  1312  001438  8ED0               	bsf	208,7,c	;volatile
  1313                           
  1314                           ;newmain.c: 163:     INTCONbits.GIEL=1;
  1315  00143A  8CF2               	bsf	242,6,c	;volatile
  1316                           
  1317                           ;newmain.c: 164:     INTCONbits.GIEH=1;
  1318  00143C  8EF2               	bsf	242,7,c	;volatile
  1319  00143E                     
  1320                           ;newmain.c: 166:     TMR0H=0x67;
  1321  00143E  0E67               	movlw	103
  1322  001440  6ED7               	movwf	215,c	;volatile
  1323                           
  1324                           ;newmain.c: 167:     TMR0L=0x6A;
  1325  001442  0E6A               	movlw	106
  1326  001444  6ED6               	movwf	214,c	;volatile
  1327                           
  1328                           ;newmain.c: 169:     T0CON=0b10010110;
  1329  001446  0E96               	movlw	150
  1330  001448  6ED5               	movwf	213,c	;volatile
  1331  00144A                     
  1332                           ;newmain.c: 179:     OpenXLCD(0b00101100 & 0b00111000);
  1333  00144A  0E28               	movlw	40
  1334  00144C  ECF6  F01D         	call	_OpenXLCD
  1335  001450                     
  1336                           ;newmain.c: 180:     WriteCmdXLCD(0x01);
  1337  001450  0E01               	movlw	1
  1338  001452  ECBD  F022         	call	_WriteCmdXLCD
  1339  001456                     
  1340                           ;newmain.c: 181:     WriteCmdXLCD(0x0c);
  1341  001456  0E0C               	movlw	12
  1342  001458  ECBD  F022         	call	_WriteCmdXLCD
  1343  00145C                     
  1344                           ;newmain.c: 182:     _delay((unsigned long)((2)*(20000000/4000.0)));
  1345  00145C  0E0D               	movlw	13
  1346  00145E  0101               	movlb	1	; () banked
  1347  001460  6F00               	movwf	??_main& (0+255),b
  1348  001462  0EFB               	movlw	251
  1349  001464                     u6977:
  1350  001464  2EE8               	decfsz	wreg,f,c
  1351  001466  D7FE               	bra	u6977
  1352  001468  2F00               	decfsz	??_main& (0+255),f,b
  1353  00146A  D7FC               	bra	u6977
  1354  00146C  D000               	nop2	
  1355  00146E                     
  1356                           ;newmain.c: 184:     WriteCmdXLCD(0x81);
  1357  00146E  0E81               	movlw	129
  1358  001470  ECBD  F022         	call	_WriteCmdXLCD
  1359  001474                     
  1360                           ;newmain.c: 185:     putrsXLCD ("Carregando...");
  1361  001474  0E31               	movlw	low STR_1
  1362  001476  6E0B               	movwf	putrsXLCD@buffer^0,c
  1363  001478  0E08               	movlw	high STR_1
  1364  00147A  6E0C               	movwf	(putrsXLCD@buffer+1)^0,c
  1365  00147C  ECAD  F020         	call	_putrsXLCD	;wreg free
  1366  001480                     
  1367                           ;newmain.c: 187:     _delay((unsigned long)((1000)*(20000000/4000.0)));
  1368  001480  0E1A               	movlw	26
  1369  001482  0101               	movlb	1	; () banked
  1370  001484  6F01               	movwf	(??_main+1)& (0+255),b
  1371  001486  0E5E               	movlw	94
  1372  001488  6F00               	movwf	??_main& (0+255),b
  1373  00148A  0E6E               	movlw	110
  1374  00148C                     u6987:
  1375  00148C  2EE8               	decfsz	wreg,f,c
  1376  00148E  D7FE               	bra	u6987
  1377  001490  2F00               	decfsz	??_main& (0+255),f,b
  1378  001492  D7FC               	bra	u6987
  1379  001494  2F01               	decfsz	(??_main+1)& (0+255),f,b
  1380  001496  D7FA               	bra	u6987
  1381  001498  F000               	nop	
  1382  00149A                     
  1383                           ;newmain.c: 189:     WriteCmdXLCD(0x01);
  1384  00149A  0E01               	movlw	1
  1385  00149C  ECBD  F022         	call	_WriteCmdXLCD
  1386  0014A0                     
  1387                           ;newmain.c: 190:     _delay((unsigned long)((2)*(20000000/4000.0)));
  1388  0014A0  0E0D               	movlw	13
  1389  0014A2  0101               	movlb	1	; () banked
  1390  0014A4  6F00               	movwf	??_main& (0+255),b
  1391  0014A6  0EFB               	movlw	251
  1392  0014A8                     u6997:
  1393  0014A8  2EE8               	decfsz	wreg,f,c
  1394  0014AA  D7FE               	bra	u6997
  1395  0014AC  2F00               	decfsz	??_main& (0+255),f,b
  1396  0014AE  D7FC               	bra	u6997
  1397  0014B0  D000               	nop2	
  1398  0014B2                     
  1399                           ;newmain.c: 196:     Inicializa_ADC();
  1400  0014B2  EC90  F023         	call	_Inicializa_ADC	;wreg free
  1401  0014B6                     
  1402                           ;newmain.c: 198:     int horas_de_consumo_por_dia = 6;
  1403  0014B6  0E00               	movlw	0
  1404  0014B8  0101               	movlb	1	; () banked
  1405  0014BA  6F53               	movwf	(main@horas_de_consumo_por_dia+1)& (0+255),b
  1406  0014BC  0E06               	movlw	6
  1407  0014BE  6F52               	movwf	main@horas_de_consumo_por_dia& (0+255),b
  1408  0014C0                     
  1409                           ; BSR set to: 1
  1410                           ;newmain.c: 199:     int dis_de_consumo_por_mes = 30;
  1411  0014C0  0E00               	movlw	0
  1412  0014C2  6F55               	movwf	(main@dis_de_consumo_por_mes+1)& (0+255),b
  1413  0014C4  0E1E               	movlw	30
  1414  0014C6  6F54               	movwf	main@dis_de_consumo_por_mes& (0+255),b
  1415  0014C8                     
  1416                           ; BSR set to: 1
  1417                           ;newmain.c: 201:     int tela = 1;
  1418  0014C8  0E00               	movlw	0
  1419  0014CA  6F69               	movwf	(main@tela+1)& (0+255),b
  1420  0014CC  0E01               	movlw	1
  1421  0014CE  6F68               	movwf	main@tela& (0+255),b
  1422  0014D0                     
  1423                           ; BSR set to: 1
  1424                           ;newmain.c: 212:     float current = 0.0;
  1425  0014D0  0E00               	movlw	0
  1426  0014D2  6F64               	movwf	main@current& (0+255),b
  1427  0014D4  0E00               	movlw	0
  1428  0014D6  6F65               	movwf	(main@current+1)& (0+255),b
  1429  0014D8  0E00               	movlw	0
  1430  0014DA  6F66               	movwf	(main@current+2)& (0+255),b
  1431  0014DC  0E00               	movlw	0
  1432  0014DE  6F67               	movwf	(main@current+3)& (0+255),b
  1433  0014E0                     
  1434                           ; BSR set to: 1
  1435                           ;newmain.c: 213:     float offsetVoltage = 2500;
  1436  0014E0  0E00               	movlw	0
  1437  0014E2  6F3A               	movwf	main@offsetVoltage& (0+255),b
  1438  0014E4  0E40               	movlw	64
  1439  0014E6  6F3B               	movwf	(main@offsetVoltage+1)& (0+255),b
  1440  0014E8  0E1C               	movlw	28
  1441  0014EA  6F3C               	movwf	(main@offsetVoltage+2)& (0+255),b
  1442  0014EC  0E45               	movlw	69
  1443  0014EE  6F3D               	movwf	(main@offsetVoltage+3)& (0+255),b
  1444  0014F0                     
  1445                           ; BSR set to: 1
  1446                           ;newmain.c: 214:     float sensitivity = 185;
  1447  0014F0  0E00               	movlw	0
  1448  0014F2  6F3E               	movwf	main@sensitivity& (0+255),b
  1449  0014F4  0E00               	movlw	0
  1450  0014F6  6F3F               	movwf	(main@sensitivity+1)& (0+255),b
  1451  0014F8  0E39               	movlw	57
  1452  0014FA  6F40               	movwf	(main@sensitivity+2)& (0+255),b
  1453  0014FC  0E43               	movlw	67
  1454  0014FE  6F41               	movwf	(main@sensitivity+3)& (0+255),b
  1455  001500                     
  1456                           ; BSR set to: 1
  1457                           ;newmain.c: 216:     TRISBbits.TRISB2=1;
  1458  001500  8493               	bsf	147,2,c	;volatile
  1459  001502                     
  1460                           ; BSR set to: 1
  1461                           ;newmain.c: 217:     TRISBbits.TRISB3=1;
  1462  001502  8693               	bsf	147,3,c	;volatile
  1463  001504                     l5874:
  1464                           
  1465                           ;newmain.c: 224:         for (int i=0; i<20;i++)
  1466  001504  0E00               	movlw	0
  1467  001506  0101               	movlb	1	; () banked
  1468  001508  6F61               	movwf	(main@i+1)& (0+255),b
  1469  00150A  0E00               	movlw	0
  1470  00150C  6F60               	movwf	main@i& (0+255),b
  1471  00150E                     l5880:
  1472  00150E                     
  1473                           ; BSR set to: 1
  1474                           ;newmain.c: 227:             adcValue = LerADC();
  1475  00150E  EC4B  F023         	call	_LerADC	;wreg free
  1476  001512  C00A  F15A         	movff	?_LerADC,main@adcValue
  1477  001516  C00B  F15B         	movff	?_LerADC+1,main@adcValue+1
  1478  00151A                     
  1479                           ;newmain.c: 230:             voltage = adcValue * ((float)5000/(float)1024);
  1480  00151A  C15A  F00A         	movff	main@adcValue,___xxtofl@val
  1481  00151E  C15B  F00B         	movff	main@adcValue+1,___xxtofl@val+1
  1482  001522  6A0C               	clrf	(___xxtofl@val+2)^0,c
  1483  001524  6A0D               	clrf	(___xxtofl@val+3)^0,c
  1484  001526  0E00               	movlw	0
  1485  001528  EC5A  F019         	call	___xxtofl
  1486  00152C  C00A  F018         	movff	?___xxtofl,___flmul@b
  1487  001530  C00B  F019         	movff	?___xxtofl+1,___flmul@b+1
  1488  001534  C00C  F01A         	movff	?___xxtofl+2,___flmul@b+2
  1489  001538  C00D  F01B         	movff	?___xxtofl+3,___flmul@b+3
  1490  00153C  0E00               	movlw	0
  1491  00153E  6E1C               	movwf	___flmul@a^0,c
  1492  001540  0E40               	movlw	64
  1493  001542  6E1D               	movwf	(___flmul@a+1)^0,c
  1494  001544  0E9C               	movlw	156
  1495  001546  6E1E               	movwf	(___flmul@a+2)^0,c
  1496  001548  0E40               	movlw	64
  1497  00154A  6E1F               	movwf	(___flmul@a+3)^0,c
  1498  00154C  ECFD  F012         	call	___flmul	;wreg free
  1499  001550  C018  F156         	movff	?___flmul,main@voltage
  1500  001554  C019  F157         	movff	?___flmul+1,main@voltage+1
  1501  001558  C01A  F158         	movff	?___flmul+2,main@voltage+2
  1502  00155C  C01B  F159         	movff	?___flmul+3,main@voltage+3
  1503  001560                     
  1504                           ;newmain.c: 233:                 current += ((voltage - offsetVoltage)/sensitivity);
  1505  001560  C13E  F03D         	movff	main@sensitivity,___fldiv@a
  1506  001564  C13F  F03E         	movff	main@sensitivity+1,___fldiv@a+1
  1507  001568  C140  F03F         	movff	main@sensitivity+2,___fldiv@a+2
  1508  00156C  C141  F040         	movff	main@sensitivity+3,___fldiv@a+3
  1509  001570  C13A  F035         	movff	main@offsetVoltage,___flsub@a
  1510  001574  C13B  F036         	movff	main@offsetVoltage+1,___flsub@a+1
  1511  001578  C13C  F037         	movff	main@offsetVoltage+2,___flsub@a+2
  1512  00157C  C13D  F038         	movff	main@offsetVoltage+3,___flsub@a+3
  1513  001580  C156  F031         	movff	main@voltage,___flsub@b
  1514  001584  C157  F032         	movff	main@voltage+1,___flsub@b+1
  1515  001588  C158  F033         	movff	main@voltage+2,___flsub@b+2
  1516  00158C  C159  F034         	movff	main@voltage+3,___flsub@b+3
  1517  001590  ECF6  F021         	call	___flsub	;wreg free
  1518  001594  C031  F039         	movff	?___flsub,___fldiv@b
  1519  001598  C032  F03A         	movff	?___flsub+1,___fldiv@b+1
  1520  00159C  C033  F03B         	movff	?___flsub+2,___fldiv@b+2
  1521  0015A0  C034  F03C         	movff	?___flsub+3,___fldiv@b+3
  1522  0015A4  EC12  F015         	call	___fldiv	;wreg free
  1523  0015A8  C039  F142         	movff	?___fldiv,_main$1750
  1524  0015AC  C03A  F143         	movff	?___fldiv+1,_main$1750+1
  1525  0015B0  C03B  F144         	movff	?___fldiv+2,_main$1750+2
  1526  0015B4  C03C  F145         	movff	?___fldiv+3,_main$1750+3
  1527  0015B8                     
  1528                           ;newmain.c: 233:                 current += ((voltage - offsetVoltage)/sensitivity);
  1529  0015B8  C164  F00A         	movff	main@current,___fladd@b
  1530  0015BC  C165  F00B         	movff	main@current+1,___fladd@b+1
  1531  0015C0  C166  F00C         	movff	main@current+2,___fladd@b+2
  1532  0015C4  C167  F00D         	movff	main@current+3,___fladd@b+3
  1533  0015C8  C142  F00E         	movff	_main$1750,___fladd@a
  1534  0015CC  C143  F00F         	movff	_main$1750+1,___fladd@a+1
  1535  0015D0  C144  F010         	movff	_main$1750+2,___fladd@a+2
  1536  0015D4  C145  F011         	movff	_main$1750+3,___fladd@a+3
  1537  0015D8  EC9D  F010         	call	___fladd	;wreg free
  1538  0015DC  C00A  F164         	movff	?___fladd,main@current
  1539  0015E0  C00B  F165         	movff	?___fladd+1,main@current+1
  1540  0015E4  C00C  F166         	movff	?___fladd+2,main@current+2
  1541  0015E8  C00D  F167         	movff	?___fladd+3,main@current+3
  1542  0015EC                     
  1543                           ;newmain.c: 237:         }
  1544  0015EC  0101               	movlb	1	; () banked
  1545  0015EE  4B60               	infsnz	main@i& (0+255),f,b
  1546  0015F0  2B61               	incf	(main@i+1)& (0+255),f,b
  1547  0015F2                     
  1548                           ; BSR set to: 1
  1549  0015F2  BF61               	btfsc	(main@i+1)& (0+255),7,b
  1550  0015F4  EF05  F00B         	goto	u6851
  1551  0015F8  5161               	movf	(main@i+1)& (0+255),w,b
  1552  0015FA  E109               	bnz	u6850
  1553  0015FC  0E14               	movlw	20
  1554  0015FE  5D60               	subwf	main@i& (0+255),w,b
  1555  001600  A0D8               	btfss	status,0,c
  1556  001602  EF05  F00B         	goto	u6851
  1557  001606  EF07  F00B         	goto	u6850
  1558  00160A                     u6851:
  1559  00160A  EF87  F00A         	goto	l5880
  1560  00160E                     u6850:
  1561  00160E                     
  1562                           ; BSR set to: 1
  1563                           ;newmain.c: 238:         current/=20;
  1564  00160E  C164  F039         	movff	main@current,___fldiv@b
  1565  001612  C165  F03A         	movff	main@current+1,___fldiv@b+1
  1566  001616  C166  F03B         	movff	main@current+2,___fldiv@b+2
  1567  00161A  C167  F03C         	movff	main@current+3,___fldiv@b+3
  1568  00161E  0E00               	movlw	0
  1569  001620  6E3D               	movwf	___fldiv@a^0,c
  1570  001622  0E00               	movlw	0
  1571  001624  6E3E               	movwf	(___fldiv@a+1)^0,c
  1572  001626  0EA0               	movlw	160
  1573  001628  6E3F               	movwf	(___fldiv@a+2)^0,c
  1574  00162A  0E41               	movlw	65
  1575  00162C  6E40               	movwf	(___fldiv@a+3)^0,c
  1576  00162E  EC12  F015         	call	___fldiv	;wreg free
  1577  001632  C039  F164         	movff	?___fldiv,main@current
  1578  001636  C03A  F165         	movff	?___fldiv+1,main@current+1
  1579  00163A  C03B  F166         	movff	?___fldiv+2,main@current+2
  1580  00163E  C03C  F167         	movff	?___fldiv+3,main@current+3
  1581  001642                     
  1582                           ;newmain.c: 243:         calculo_de_potencia = (110 * current)/1000;
  1583  001642  0E00               	movlw	0
  1584  001644  6E1C               	movwf	___flmul@a^0,c
  1585  001646  0E00               	movlw	0
  1586  001648  6E1D               	movwf	(___flmul@a+1)^0,c
  1587  00164A  0EDC               	movlw	220
  1588  00164C  6E1E               	movwf	(___flmul@a+2)^0,c
  1589  00164E  0E42               	movlw	66
  1590  001650  6E1F               	movwf	(___flmul@a+3)^0,c
  1591  001652  C164  F018         	movff	main@current,___flmul@b
  1592  001656  C165  F019         	movff	main@current+1,___flmul@b+1
  1593  00165A  C166  F01A         	movff	main@current+2,___flmul@b+2
  1594  00165E  C167  F01B         	movff	main@current+3,___flmul@b+3
  1595  001662  ECFD  F012         	call	___flmul	;wreg free
  1596  001666  C018  F039         	movff	?___flmul,___fldiv@b
  1597  00166A  C019  F03A         	movff	?___flmul+1,___fldiv@b+1
  1598  00166E  C01A  F03B         	movff	?___flmul+2,___fldiv@b+2
  1599  001672  C01B  F03C         	movff	?___flmul+3,___fldiv@b+3
  1600  001676  0E00               	movlw	0
  1601  001678  6E3D               	movwf	___fldiv@a^0,c
  1602  00167A  0E00               	movlw	0
  1603  00167C  6E3E               	movwf	(___fldiv@a+1)^0,c
  1604  00167E  0E7A               	movlw	122
  1605  001680  6E3F               	movwf	(___fldiv@a+2)^0,c
  1606  001682  0E44               	movlw	68
  1607  001684  6E40               	movwf	(___fldiv@a+3)^0,c
  1608  001686  EC12  F015         	call	___fldiv	;wreg free
  1609  00168A  C039  F16E         	movff	?___fldiv,_calculo_de_potencia
  1610  00168E  C03A  F16F         	movff	?___fldiv+1,_calculo_de_potencia+1
  1611  001692  C03B  F170         	movff	?___fldiv+2,_calculo_de_potencia+2
  1612  001696  C03C  F171         	movff	?___fldiv+3,_calculo_de_potencia+3
  1613  00169A                     
  1614                           ;newmain.c: 246:         if (calculo_de_potencia < 0.0) {
  1615  00169A  0101               	movlb	1	; () banked
  1616  00169C  BF71               	btfsc	(_calculo_de_potencia+3)& (0+255),7,b
  1617  00169E  EF55  F00B         	goto	u6860
  1618  0016A2  EF53  F00B         	goto	u6861
  1619  0016A6                     u6861:
  1620  0016A6  EF6A  F00B         	goto	l5902
  1621  0016AA                     u6860:
  1622  0016AA                     
  1623                           ; BSR set to: 1
  1624                           ;newmain.c: 247:             sprintf(currentWatts,"%.2f",0.0);
  1625  0016AA  0E26               	movlw	low main@currentWatts
  1626  0016AC  0100               	movlb	0	; () banked
  1627  0016AE  6FE2               	movwf	sprintf@s& (0+255),b
  1628  0016B0  0E01               	movlw	high main@currentWatts
  1629  0016B2  6FE3               	movwf	(sprintf@s+1)& (0+255),b
  1630  0016B4  0E54               	movlw	low (STR_8+3)
  1631  0016B6  6FE4               	movwf	sprintf@fmt& (0+255),b
  1632  0016B8  0E08               	movlw	high (STR_8+3)
  1633  0016BA  6FE5               	movwf	(sprintf@fmt+1)& (0+255),b
  1634  0016BC  0E00               	movlw	0
  1635  0016BE  6FE6               	movwf	(?_sprintf+4)& (0+255),b
  1636  0016C0  0E00               	movlw	0
  1637  0016C2  6FE7               	movwf	(?_sprintf+5)& (0+255),b
  1638  0016C4  0E00               	movlw	0
  1639  0016C6  6FE8               	movwf	(?_sprintf+6)& (0+255),b
  1640  0016C8  0E00               	movlw	0
  1641  0016CA  6FE9               	movwf	(?_sprintf+7)& (0+255),b
  1642  0016CC  ECA4  F021         	call	_sprintf	;wreg free
  1643                           
  1644                           ;newmain.c: 248:         } else {
  1645  0016D0  EF7D  F00B         	goto	l5904
  1646  0016D4                     l5902:
  1647                           
  1648                           ; BSR set to: 1
  1649                           ;newmain.c: 249:             sprintf(currentWatts,"%.2f",calculo_de_potencia);
  1650  0016D4  0E26               	movlw	low main@currentWatts
  1651  0016D6  0100               	movlb	0	; () banked
  1652  0016D8  6FE2               	movwf	sprintf@s& (0+255),b
  1653  0016DA  0E01               	movlw	high main@currentWatts
  1654  0016DC  6FE3               	movwf	(sprintf@s+1)& (0+255),b
  1655  0016DE  0E54               	movlw	low (STR_8+3)
  1656  0016E0  6FE4               	movwf	sprintf@fmt& (0+255),b
  1657  0016E2  0E08               	movlw	high (STR_8+3)
  1658  0016E4  6FE5               	movwf	(sprintf@fmt+1)& (0+255),b
  1659  0016E6  C16E  F0E6         	movff	_calculo_de_potencia,?_sprintf+4
  1660  0016EA  C16F  F0E7         	movff	_calculo_de_potencia+1,?_sprintf+5
  1661  0016EE  C170  F0E8         	movff	_calculo_de_potencia+2,?_sprintf+6
  1662  0016F2  C171  F0E9         	movff	_calculo_de_potencia+3,?_sprintf+7
  1663  0016F6  ECA4  F021         	call	_sprintf	;wreg free
  1664  0016FA                     l5904:
  1665                           
  1666                           ;newmain.c: 251:         strcat(currentWatts," kW");
  1667  0016FA  0E26               	movlw	low main@currentWatts
  1668  0016FC  6E18               	movwf	strcat@dest^0,c
  1669  0016FE  0E01               	movlw	high main@currentWatts
  1670  001700  6E19               	movwf	(strcat@dest+1)^0,c
  1671  001702  0E6E               	movlw	low STR_4
  1672  001704  6E1A               	movwf	strcat@src^0,c
  1673  001706  0E08               	movlw	high STR_4
  1674  001708  6E1B               	movwf	(strcat@src+1)^0,c
  1675  00170A  EC61  F023         	call	_strcat	;wreg free
  1676  00170E                     
  1677                           ;newmain.c: 256:         float potencia_por_minuto = 0.0;
  1678  00170E  0E00               	movlw	0
  1679  001710  0101               	movlb	1	; () banked
  1680  001712  6F6A               	movwf	main@potencia_por_minuto& (0+255),b
  1681  001714  0E00               	movlw	0
  1682  001716  6F6B               	movwf	(main@potencia_por_minuto+1)& (0+255),b
  1683  001718  0E00               	movlw	0
  1684  00171A  6F6C               	movwf	(main@potencia_por_minuto+2)& (0+255),b
  1685  00171C  0E00               	movlw	0
  1686  00171E  6F6D               	movwf	(main@potencia_por_minuto+3)& (0+255),b
  1687  001720                     
  1688                           ; BSR set to: 1
  1689                           ;newmain.c: 257:         for (int y = 0; y<60;y++) {
  1690  001720  0E00               	movlw	0
  1691  001722  6F63               	movwf	(main@y+1)& (0+255),b
  1692  001724  0E00               	movlw	0
  1693  001726  6F62               	movwf	main@y& (0+255),b
  1694  001728                     l5910:
  1695                           
  1696                           ; BSR set to: 1
  1697  001728  BF63               	btfsc	(main@y+1)& (0+255),7,b
  1698  00172A  EFA0  F00B         	goto	u6871
  1699  00172E  5163               	movf	(main@y+1)& (0+255),w,b
  1700  001730  E109               	bnz	u6870
  1701  001732  0E3C               	movlw	60
  1702  001734  5D62               	subwf	main@y& (0+255),w,b
  1703  001736  A0D8               	btfss	status,0,c
  1704  001738  EFA0  F00B         	goto	u6871
  1705  00173C  EFA2  F00B         	goto	u6870
  1706  001740                     u6871:
  1707  001740  EFA4  F00B         	goto	l5914
  1708  001744                     u6870:
  1709  001744  EFD3  F00B         	goto	l5920
  1710  001748                     l5914:
  1711                           
  1712                           ; BSR set to: 1
  1713                           ;newmain.c: 258:             potencia_por_minuto += vetor_de_potencias[y];
  1714  001748  C16A  F00A         	movff	main@potencia_por_minuto,___fladd@b
  1715  00174C  C16B  F00B         	movff	main@potencia_por_minuto+1,___fladd@b+1
  1716  001750  C16C  F00C         	movff	main@potencia_por_minuto+2,___fladd@b+2
  1717  001754  C16D  F00D         	movff	main@potencia_por_minuto+3,___fladd@b+3
  1718  001758  0E00               	movlw	low _vetor_de_potencias
  1719  00175A  6F00               	movwf	??_main& (0+255),b
  1720  00175C  0E02               	movlw	high _vetor_de_potencias
  1721  00175E  6F01               	movwf	(??_main+1)& (0+255),b
  1722  001760  90D8               	bcf	status,0,c
  1723  001762  3562               	rlcf	main@y& (0+255),w,b
  1724  001764  6ED9               	movwf	fsr2l,c
  1725  001766  3563               	rlcf	(main@y+1)& (0+255),w,b
  1726  001768  6EDA               	movwf	fsr2h,c
  1727  00176A  90D8               	bcf	status,0,c
  1728  00176C  36D9               	rlcf	fsr2l,f,c
  1729  00176E  36DA               	rlcf	fsr2h,f,c
  1730  001770  5100               	movf	??_main& (0+255),w,b
  1731  001772  26D9               	addwf	fsr2l,f,c
  1732  001774  5101               	movf	(??_main+1)& (0+255),w,b
  1733  001776  22DA               	addwfc	fsr2h,f,c
  1734  001778  CFDE F00E          	movff	postinc2,___fladd@a
  1735  00177C  CFDE F00F          	movff	postinc2,___fladd@a+1
  1736  001780  CFDE F010          	movff	postinc2,___fladd@a+2
  1737  001784  CFDE F011          	movff	postinc2,___fladd@a+3
  1738  001788  EC9D  F010         	call	___fladd	;wreg free
  1739  00178C  C00A  F16A         	movff	?___fladd,main@potencia_por_minuto
  1740  001790  C00B  F16B         	movff	?___fladd+1,main@potencia_por_minuto+1
  1741  001794  C00C  F16C         	movff	?___fladd+2,main@potencia_por_minuto+2
  1742  001798  C00D  F16D         	movff	?___fladd+3,main@potencia_por_minuto+3
  1743  00179C                     
  1744                           ;newmain.c: 259:         }
  1745  00179C  0101               	movlb	1	; () banked
  1746  00179E  4B62               	infsnz	main@y& (0+255),f,b
  1747  0017A0  2B63               	incf	(main@y+1)& (0+255),f,b
  1748  0017A2  EF94  F00B         	goto	l5910
  1749  0017A6                     l5920:
  1750                           
  1751                           ; BSR set to: 1
  1752                           ;newmain.c: 260:         if (potencia_por_minuto < 0.0) {
  1753  0017A6  BF6D               	btfsc	(main@potencia_por_minuto+3)& (0+255),7,b
  1754  0017A8  EFDA  F00B         	goto	u6880
  1755  0017AC  EFD8  F00B         	goto	u6881
  1756  0017B0                     u6881:
  1757  0017B0  EFEF  F00B         	goto	l5924
  1758  0017B4                     u6880:
  1759  0017B4                     
  1760                           ; BSR set to: 1
  1761                           ;newmain.c: 261:             sprintf(minuteWatts,"%.2f",0.0);
  1762  0017B4  0E30               	movlw	low main@minuteWatts
  1763  0017B6  0100               	movlb	0	; () banked
  1764  0017B8  6FE2               	movwf	sprintf@s& (0+255),b
  1765  0017BA  0E01               	movlw	high main@minuteWatts
  1766  0017BC  6FE3               	movwf	(sprintf@s+1)& (0+255),b
  1767  0017BE  0E54               	movlw	low (STR_8+3)
  1768  0017C0  6FE4               	movwf	sprintf@fmt& (0+255),b
  1769  0017C2  0E08               	movlw	high (STR_8+3)
  1770  0017C4  6FE5               	movwf	(sprintf@fmt+1)& (0+255),b
  1771  0017C6  0E00               	movlw	0
  1772  0017C8  6FE6               	movwf	(?_sprintf+4)& (0+255),b
  1773  0017CA  0E00               	movlw	0
  1774  0017CC  6FE7               	movwf	(?_sprintf+5)& (0+255),b
  1775  0017CE  0E00               	movlw	0
  1776  0017D0  6FE8               	movwf	(?_sprintf+6)& (0+255),b
  1777  0017D2  0E00               	movlw	0
  1778  0017D4  6FE9               	movwf	(?_sprintf+7)& (0+255),b
  1779  0017D6  ECA4  F021         	call	_sprintf	;wreg free
  1780                           
  1781                           ;newmain.c: 262:         } else {
  1782  0017DA  EF1C  F00C         	goto	l5928
  1783  0017DE                     l5924:
  1784                           
  1785                           ; BSR set to: 1
  1786                           ;newmain.c: 263:             sprintf(minuteWatts,"%.2f",potencia_por_minuto/60);
  1787  0017DE  C16A  F039         	movff	main@potencia_por_minuto,___fldiv@b
  1788  0017E2  C16B  F03A         	movff	main@potencia_por_minuto+1,___fldiv@b+1
  1789  0017E6  C16C  F03B         	movff	main@potencia_por_minuto+2,___fldiv@b+2
  1790  0017EA  C16D  F03C         	movff	main@potencia_por_minuto+3,___fldiv@b+3
  1791  0017EE  0E00               	movlw	0
  1792  0017F0  6E3D               	movwf	___fldiv@a^0,c
  1793  0017F2  0E00               	movlw	0
  1794  0017F4  6E3E               	movwf	(___fldiv@a+1)^0,c
  1795  0017F6  0E70               	movlw	112
  1796  0017F8  6E3F               	movwf	(___fldiv@a+2)^0,c
  1797  0017FA  0E42               	movlw	66
  1798  0017FC  6E40               	movwf	(___fldiv@a+3)^0,c
  1799  0017FE  EC12  F015         	call	___fldiv	;wreg free
  1800  001802  C039  F146         	movff	?___fldiv,_main$1751
  1801  001806  C03A  F147         	movff	?___fldiv+1,_main$1751+1
  1802  00180A  C03B  F148         	movff	?___fldiv+2,_main$1751+2
  1803  00180E  C03C  F149         	movff	?___fldiv+3,_main$1751+3
  1804  001812                     
  1805                           ;newmain.c: 263:             sprintf(minuteWatts,"%.2f",potencia_por_minuto/60);
  1806  001812  0E30               	movlw	low main@minuteWatts
  1807  001814  0100               	movlb	0	; () banked
  1808  001816  6FE2               	movwf	sprintf@s& (0+255),b
  1809  001818  0E01               	movlw	high main@minuteWatts
  1810  00181A  6FE3               	movwf	(sprintf@s+1)& (0+255),b
  1811  00181C  0E54               	movlw	low (STR_8+3)
  1812  00181E  6FE4               	movwf	sprintf@fmt& (0+255),b
  1813  001820  0E08               	movlw	high (STR_8+3)
  1814  001822  6FE5               	movwf	(sprintf@fmt+1)& (0+255),b
  1815  001824  C146  F0E6         	movff	_main$1751,?_sprintf+4
  1816  001828  C147  F0E7         	movff	_main$1751+1,?_sprintf+5
  1817  00182C  C148  F0E8         	movff	_main$1751+2,?_sprintf+6
  1818  001830  C149  F0E9         	movff	_main$1751+3,?_sprintf+7
  1819  001834  ECA4  F021         	call	_sprintf	;wreg free
  1820  001838                     l5928:
  1821                           
  1822                           ;newmain.c: 265:         strcat(minuteWatts," kWh");
  1823  001838  0E30               	movlw	low main@minuteWatts
  1824  00183A  6E18               	movwf	strcat@dest^0,c
  1825  00183C  0E01               	movlw	high main@minuteWatts
  1826  00183E  6E19               	movwf	(strcat@dest+1)^0,c
  1827  001840  0E59               	movlw	low STR_7
  1828  001842  6E1A               	movwf	strcat@src^0,c
  1829  001844  0E08               	movlw	high STR_7
  1830  001846  6E1B               	movwf	(strcat@src+1)^0,c
  1831  001848  EC61  F023         	call	_strcat	;wreg free
  1832  00184C                     
  1833                           ;newmain.c: 270:         float preco_em_reais = 0.0;
  1834  00184C  0E00               	movlw	0
  1835  00184E  0101               	movlb	1	; () banked
  1836  001850  6F5C               	movwf	main@preco_em_reais& (0+255),b
  1837  001852  0E00               	movlw	0
  1838  001854  6F5D               	movwf	(main@preco_em_reais+1)& (0+255),b
  1839  001856  0E00               	movlw	0
  1840  001858  6F5E               	movwf	(main@preco_em_reais+2)& (0+255),b
  1841  00185A  0E00               	movlw	0
  1842  00185C  6F5F               	movwf	(main@preco_em_reais+3)& (0+255),b
  1843  00185E                     
  1844                           ; BSR set to: 1
  1845                           ;newmain.c: 271:         preco_em_reais = potencia_por_minuto * (0.92/60.0);
  1846  00185E  C16A  F018         	movff	main@potencia_por_minuto,___flmul@b
  1847  001862  C16B  F019         	movff	main@potencia_por_minuto+1,___flmul@b+1
  1848  001866  C16C  F01A         	movff	main@potencia_por_minuto+2,___flmul@b+2
  1849  00186A  C16D  F01B         	movff	main@potencia_por_minuto+3,___flmul@b+3
  1850  00186E  0EA9               	movlw	169
  1851  001870  6E1C               	movwf	___flmul@a^0,c
  1852  001872  0E38               	movlw	56
  1853  001874  6E1D               	movwf	(___flmul@a+1)^0,c
  1854  001876  0E7B               	movlw	123
  1855  001878  6E1E               	movwf	(___flmul@a+2)^0,c
  1856  00187A  0E3C               	movlw	60
  1857  00187C  6E1F               	movwf	(___flmul@a+3)^0,c
  1858  00187E  ECFD  F012         	call	___flmul	;wreg free
  1859  001882  C018  F15C         	movff	?___flmul,main@preco_em_reais
  1860  001886  C019  F15D         	movff	?___flmul+1,main@preco_em_reais+1
  1861  00188A  C01A  F15E         	movff	?___flmul+2,main@preco_em_reais+2
  1862  00188E  C01B  F15F         	movff	?___flmul+3,main@preco_em_reais+3
  1863  001892                     
  1864                           ;newmain.c: 272:         if (potencia_por_minuto < 0.0) {
  1865  001892  0101               	movlb	1	; () banked
  1866  001894  BF6D               	btfsc	(main@potencia_por_minuto+3)& (0+255),7,b
  1867  001896  EF51  F00C         	goto	u6890
  1868  00189A  EF4F  F00C         	goto	u6891
  1869  00189E                     u6891:
  1870  00189E  EF66  F00C         	goto	l5938
  1871  0018A2                     u6890:
  1872  0018A2                     
  1873                           ; BSR set to: 1
  1874                           ;newmain.c: 273:             sprintf(valorPorHora,"R$ %.2f",0.0);
  1875  0018A2  0E12               	movlw	low main@valorPorHora
  1876  0018A4  0100               	movlb	0	; () banked
  1877  0018A6  6FE2               	movwf	sprintf@s& (0+255),b
  1878  0018A8  0E01               	movlw	high main@valorPorHora
  1879  0018AA  6FE3               	movwf	(sprintf@s+1)& (0+255),b
  1880  0018AC  0E51               	movlw	low STR_8
  1881  0018AE  6FE4               	movwf	sprintf@fmt& (0+255),b
  1882  0018B0  0E08               	movlw	high STR_8
  1883  0018B2  6FE5               	movwf	(sprintf@fmt+1)& (0+255),b
  1884  0018B4  0E00               	movlw	0
  1885  0018B6  6FE6               	movwf	(?_sprintf+4)& (0+255),b
  1886  0018B8  0E00               	movlw	0
  1887  0018BA  6FE7               	movwf	(?_sprintf+5)& (0+255),b
  1888  0018BC  0E00               	movlw	0
  1889  0018BE  6FE8               	movwf	(?_sprintf+6)& (0+255),b
  1890  0018C0  0E00               	movlw	0
  1891  0018C2  6FE9               	movwf	(?_sprintf+7)& (0+255),b
  1892  0018C4  ECA4  F021         	call	_sprintf	;wreg free
  1893                           
  1894                           ;newmain.c: 274:         } else {
  1895  0018C8  EF79  F00C         	goto	l5940
  1896  0018CC                     l5938:
  1897                           
  1898                           ; BSR set to: 1
  1899                           ;newmain.c: 275:             sprintf(valorPorHora,"R$ %.2f",preco_em_reais);
  1900  0018CC  0E12               	movlw	low main@valorPorHora
  1901  0018CE  0100               	movlb	0	; () banked
  1902  0018D0  6FE2               	movwf	sprintf@s& (0+255),b
  1903  0018D2  0E01               	movlw	high main@valorPorHora
  1904  0018D4  6FE3               	movwf	(sprintf@s+1)& (0+255),b
  1905  0018D6  0E51               	movlw	low STR_8
  1906  0018D8  6FE4               	movwf	sprintf@fmt& (0+255),b
  1907  0018DA  0E08               	movlw	high STR_8
  1908  0018DC  6FE5               	movwf	(sprintf@fmt+1)& (0+255),b
  1909  0018DE  C15C  F0E6         	movff	main@preco_em_reais,?_sprintf+4
  1910  0018E2  C15D  F0E7         	movff	main@preco_em_reais+1,?_sprintf+5
  1911  0018E6  C15E  F0E8         	movff	main@preco_em_reais+2,?_sprintf+6
  1912  0018EA  C15F  F0E9         	movff	main@preco_em_reais+3,?_sprintf+7
  1913  0018EE  ECA4  F021         	call	_sprintf	;wreg free
  1914  0018F2                     l5940:
  1915                           
  1916                           ;newmain.c: 277:         if (potencia_por_minuto < 0.0) {
  1917  0018F2  0101               	movlb	1	; () banked
  1918  0018F4  BF6D               	btfsc	(main@potencia_por_minuto+3)& (0+255),7,b
  1919  0018F6  EF81  F00C         	goto	u6900
  1920  0018FA  EF7F  F00C         	goto	u6901
  1921  0018FE                     u6901:
  1922  0018FE  EF96  F00C         	goto	l5944
  1923  001902                     u6900:
  1924  001902                     
  1925                           ; BSR set to: 1
  1926                           ;newmain.c: 278:             sprintf(valorPorMes,"R$ %.2f",0.0);
  1927  001902  0E1C               	movlw	low main@valorPorMes
  1928  001904  0100               	movlb	0	; () banked
  1929  001906  6FE2               	movwf	sprintf@s& (0+255),b
  1930  001908  0E01               	movlw	high main@valorPorMes
  1931  00190A  6FE3               	movwf	(sprintf@s+1)& (0+255),b
  1932  00190C  0E51               	movlw	low STR_8
  1933  00190E  6FE4               	movwf	sprintf@fmt& (0+255),b
  1934  001910  0E08               	movlw	high STR_8
  1935  001912  6FE5               	movwf	(sprintf@fmt+1)& (0+255),b
  1936  001914  0E00               	movlw	0
  1937  001916  6FE6               	movwf	(?_sprintf+4)& (0+255),b
  1938  001918  0E00               	movlw	0
  1939  00191A  6FE7               	movwf	(?_sprintf+5)& (0+255),b
  1940  00191C  0E00               	movlw	0
  1941  00191E  6FE8               	movwf	(?_sprintf+6)& (0+255),b
  1942  001920  0E00               	movlw	0
  1943  001922  6FE9               	movwf	(?_sprintf+7)& (0+255),b
  1944  001924  ECA4  F021         	call	_sprintf	;wreg free
  1945                           
  1946                           ;newmain.c: 279:         } else {
  1947  001928  EFF5  F00C         	goto	l5948
  1948  00192C                     l5944:
  1949                           
  1950                           ; BSR set to: 1
  1951                           ;newmain.c: 280:             sprintf(valorPorMes,"R$ %.2f",preco_em_reais*horas_de_consu
      +                          mo_por_dia*dis_de_consumo_por_mes);
  1952  00192C  C15C  F01C         	movff	main@preco_em_reais,___flmul@a
  1953  001930  C15D  F01D         	movff	main@preco_em_reais+1,___flmul@a+1
  1954  001934  C15E  F01E         	movff	main@preco_em_reais+2,___flmul@a+2
  1955  001938  C15F  F01F         	movff	main@preco_em_reais+3,___flmul@a+3
  1956  00193C  C152  F00A         	movff	main@horas_de_consumo_por_dia,___xxtofl@val
  1957  001940  C153  F00B         	movff	main@horas_de_consumo_por_dia+1,___xxtofl@val+1
  1958  001944  0E00               	movlw	0
  1959  001946  BE0B               	btfsc	(___xxtofl@val+1)^0,7,c
  1960  001948  0EFF               	movlw	-1
  1961  00194A  6E0C               	movwf	(___xxtofl@val+2)^0,c
  1962  00194C  6E0D               	movwf	(___xxtofl@val+3)^0,c
  1963  00194E  0E01               	movlw	1
  1964  001950  EC5A  F019         	call	___xxtofl
  1965  001954  C00A  F018         	movff	?___xxtofl,___flmul@b
  1966  001958  C00B  F019         	movff	?___xxtofl+1,___flmul@b+1
  1967  00195C  C00C  F01A         	movff	?___xxtofl+2,___flmul@b+2
  1968  001960  C00D  F01B         	movff	?___xxtofl+3,___flmul@b+3
  1969  001964  ECFD  F012         	call	___flmul	;wreg free
  1970  001968  C018  F14A         	movff	?___flmul,_main$1752
  1971  00196C  C019  F14B         	movff	?___flmul+1,_main$1752+1
  1972  001970  C01A  F14C         	movff	?___flmul+2,_main$1752+2
  1973  001974  C01B  F14D         	movff	?___flmul+3,_main$1752+3
  1974                           
  1975                           ;newmain.c: 280:             sprintf(valorPorMes,"R$ %.2f",preco_em_reais*horas_de_consu
      +                          mo_por_dia*dis_de_consumo_por_mes);
  1976  001978  C14A  F018         	movff	_main$1752,___flmul@b
  1977  00197C  C14B  F019         	movff	_main$1752+1,___flmul@b+1
  1978  001980  C14C  F01A         	movff	_main$1752+2,___flmul@b+2
  1979  001984  C14D  F01B         	movff	_main$1752+3,___flmul@b+3
  1980  001988  C154  F00A         	movff	main@dis_de_consumo_por_mes,___xxtofl@val
  1981  00198C  C155  F00B         	movff	main@dis_de_consumo_por_mes+1,___xxtofl@val+1
  1982  001990  0E00               	movlw	0
  1983  001992  BE0B               	btfsc	(___xxtofl@val+1)^0,7,c
  1984  001994  0EFF               	movlw	-1
  1985  001996  6E0C               	movwf	(___xxtofl@val+2)^0,c
  1986  001998  6E0D               	movwf	(___xxtofl@val+3)^0,c
  1987  00199A  0E01               	movlw	1
  1988  00199C  EC5A  F019         	call	___xxtofl
  1989  0019A0  C00A  F01C         	movff	?___xxtofl,___flmul@a
  1990  0019A4  C00B  F01D         	movff	?___xxtofl+1,___flmul@a+1
  1991  0019A8  C00C  F01E         	movff	?___xxtofl+2,___flmul@a+2
  1992  0019AC  C00D  F01F         	movff	?___xxtofl+3,___flmul@a+3
  1993  0019B0  ECFD  F012         	call	___flmul	;wreg free
  1994  0019B4  C018  F14E         	movff	?___flmul,_main$1753
  1995  0019B8  C019  F14F         	movff	?___flmul+1,_main$1753+1
  1996  0019BC  C01A  F150         	movff	?___flmul+2,_main$1753+2
  1997  0019C0  C01B  F151         	movff	?___flmul+3,_main$1753+3
  1998  0019C4                     
  1999                           ;newmain.c: 280:             sprintf(valorPorMes,"R$ %.2f",preco_em_reais*horas_de_consu
      +                          mo_por_dia*dis_de_consumo_por_mes);
  2000  0019C4  0E1C               	movlw	low main@valorPorMes
  2001  0019C6  0100               	movlb	0	; () banked
  2002  0019C8  6FE2               	movwf	sprintf@s& (0+255),b
  2003  0019CA  0E01               	movlw	high main@valorPorMes
  2004  0019CC  6FE3               	movwf	(sprintf@s+1)& (0+255),b
  2005  0019CE  0E51               	movlw	low STR_8
  2006  0019D0  6FE4               	movwf	sprintf@fmt& (0+255),b
  2007  0019D2  0E08               	movlw	high STR_8
  2008  0019D4  6FE5               	movwf	(sprintf@fmt+1)& (0+255),b
  2009  0019D6  C14E  F0E6         	movff	_main$1753,?_sprintf+4
  2010  0019DA  C14F  F0E7         	movff	_main$1753+1,?_sprintf+5
  2011  0019DE  C150  F0E8         	movff	_main$1753+2,?_sprintf+6
  2012  0019E2  C151  F0E9         	movff	_main$1753+3,?_sprintf+7
  2013  0019E6  ECA4  F021         	call	_sprintf	;wreg free
  2014  0019EA                     l5948:
  2015                           
  2016                           ;newmain.c: 286:         WriteCmdXLCD(0x01);
  2017  0019EA  0E01               	movlw	1
  2018  0019EC  ECBD  F022         	call	_WriteCmdXLCD
  2019  0019F0                     
  2020                           ;newmain.c: 287:         _delay((unsigned long)((2)*(20000000/4000.0)));
  2021  0019F0  0E0D               	movlw	13
  2022  0019F2  0101               	movlb	1	; () banked
  2023  0019F4  6F00               	movwf	??_main& (0+255),b
  2024  0019F6  0EFB               	movlw	251
  2025  0019F8                     u7007:
  2026  0019F8  2EE8               	decfsz	wreg,f,c
  2027  0019FA  D7FE               	bra	u7007
  2028  0019FC  2F00               	decfsz	??_main& (0+255),f,b
  2029  0019FE  D7FC               	bra	u7007
  2030  001A00  D000               	nop2	
  2031  001A02                     
  2032                           ;newmain.c: 290:         if (!PORTBbits.RB2) {
  2033  001A02  B481               	btfsc	129,2,c	;volatile
  2034  001A04  EF06  F00D         	goto	u6911
  2035  001A08  EF08  F00D         	goto	u6910
  2036  001A0C                     u6911:
  2037  001A0C  EF27  F00D         	goto	l5960
  2038  001A10                     u6910:
  2039  001A10                     
  2040                           ;newmain.c: 291:             if (tela > 1) {
  2041  001A10  0101               	movlb	1	; () banked
  2042  001A12  BF69               	btfsc	(main@tela+1)& (0+255),7,b
  2043  001A14  EF15  F00D         	goto	u6921
  2044  001A18  5169               	movf	(main@tela+1)& (0+255),w,b
  2045  001A1A  E109               	bnz	u6920
  2046  001A1C  0E02               	movlw	2
  2047  001A1E  5D68               	subwf	main@tela& (0+255),w,b
  2048  001A20  A0D8               	btfss	status,0,c
  2049  001A22  EF15  F00D         	goto	u6921
  2050  001A26  EF17  F00D         	goto	u6920
  2051  001A2A                     u6921:
  2052  001A2A  EF27  F00D         	goto	l5960
  2053  001A2E                     u6920:
  2054  001A2E                     
  2055                           ; BSR set to: 1
  2056                           ;newmain.c: 292:                 tela--;
  2057  001A2E  0768               	decf	main@tela& (0+255),f,b
  2058  001A30  A0D8               	btfss	status,0,c
  2059  001A32  0769               	decf	(main@tela+1)& (0+255),f,b
  2060  001A34                     
  2061                           ; BSR set to: 1
  2062                           ;newmain.c: 293:                 _delay((unsigned long)((500)*(20000000/4000.0)));
  2063  001A34  0E0D               	movlw	13
  2064  001A36  0101               	movlb	1	; () banked
  2065  001A38  6F01               	movwf	(??_main+1)& (0+255),b
  2066  001A3A  0EAF               	movlw	175
  2067  001A3C  6F00               	movwf	??_main& (0+255),b
  2068  001A3E  0EB6               	movlw	182
  2069  001A40                     u7017:
  2070  001A40  2EE8               	decfsz	wreg,f,c
  2071  001A42  D7FE               	bra	u7017
  2072  001A44  2F00               	decfsz	??_main& (0+255),f,b
  2073  001A46  D7FC               	bra	u7017
  2074  001A48  2F01               	decfsz	(??_main+1)& (0+255),f,b
  2075  001A4A  D7FA               	bra	u7017
  2076  001A4C  F000               	nop	
  2077  001A4E                     l5960:
  2078                           
  2079                           ;newmain.c: 298:         if (!PORTBbits.RB3) {
  2080  001A4E  B681               	btfsc	129,3,c	;volatile
  2081  001A50  EF2C  F00D         	goto	u6931
  2082  001A54  EF2E  F00D         	goto	u6930
  2083  001A58                     u6931:
  2084  001A58  EFD7  F00D         	goto	l6012
  2085  001A5C                     u6930:
  2086  001A5C                     
  2087                           ;newmain.c: 299:             if (tela < 3) {
  2088  001A5C  0101               	movlb	1	; () banked
  2089  001A5E  BF69               	btfsc	(main@tela+1)& (0+255),7,b
  2090  001A60  EF3D  F00D         	goto	u6940
  2091  001A64  5169               	movf	(main@tela+1)& (0+255),w,b
  2092  001A66  E107               	bnz	u6941
  2093  001A68  0E03               	movlw	3
  2094  001A6A  5D68               	subwf	main@tela& (0+255),w,b
  2095  001A6C  B0D8               	btfsc	status,0,c
  2096  001A6E  EF3B  F00D         	goto	u6941
  2097  001A72  EF3D  F00D         	goto	u6940
  2098  001A76                     u6941:
  2099  001A76  EFD7  F00D         	goto	l6012
  2100  001A7A                     u6940:
  2101  001A7A                     
  2102                           ; BSR set to: 1
  2103                           ;newmain.c: 300:                 tela++;
  2104  001A7A  4B68               	infsnz	main@tela& (0+255),f,b
  2105  001A7C  2B69               	incf	(main@tela+1)& (0+255),f,b
  2106  001A7E                     
  2107                           ; BSR set to: 1
  2108                           ;newmain.c: 301:                 _delay((unsigned long)((500)*(20000000/4000.0)));
  2109  001A7E  0E0D               	movlw	13
  2110  001A80  0101               	movlb	1	; () banked
  2111  001A82  6F01               	movwf	(??_main+1)& (0+255),b
  2112  001A84  0EAF               	movlw	175
  2113  001A86  6F00               	movwf	??_main& (0+255),b
  2114  001A88  0EB6               	movlw	182
  2115  001A8A                     u7027:
  2116  001A8A  2EE8               	decfsz	wreg,f,c
  2117  001A8C  D7FE               	bra	u7027
  2118  001A8E  2F00               	decfsz	??_main& (0+255),f,b
  2119  001A90  D7FC               	bra	u7027
  2120  001A92  2F01               	decfsz	(??_main+1)& (0+255),f,b
  2121  001A94  D7FA               	bra	u7027
  2122  001A96  F000               	nop	
  2123  001A98  EFD7  F00D         	goto	l6012
  2124  001A9C                     l5968:
  2125                           
  2126                           ; BSR set to: 1
  2127                           ;newmain.c: 307:                 WriteCmdXLCD(0x81);
  2128  001A9C  0E81               	movlw	129
  2129  001A9E  ECBD  F022         	call	_WriteCmdXLCD
  2130  001AA2                     
  2131                           ;newmain.c: 308:                 putrsXLCD ("Gasto por hora");
  2132  001AA2  0E22               	movlw	low STR_12
  2133  001AA4  6E0B               	movwf	putrsXLCD@buffer^0,c
  2134  001AA6  0E08               	movlw	high STR_12
  2135  001AA8  6E0C               	movwf	(putrsXLCD@buffer+1)^0,c
  2136  001AAA  ECAD  F020         	call	_putrsXLCD	;wreg free
  2137  001AAE                     
  2138                           ;newmain.c: 309:                 if (flag_primeira_vez) {
  2139  001AAE  0101               	movlb	1	; () banked
  2140  001AB0  51C2               	movf	_flag_primeira_vez& (0+255),w,b
  2141  001AB2  11C3               	iorwf	(_flag_primeira_vez+1)& (0+255),w,b
  2142  001AB4  B4D8               	btfsc	status,2,c
  2143  001AB6  EF5F  F00D         	goto	u6951
  2144  001ABA  EF61  F00D         	goto	u6950
  2145  001ABE                     u6951:
  2146  001ABE  EF7B  F00D         	goto	l5980
  2147  001AC2                     u6950:
  2148  001AC2                     
  2149                           ; BSR set to: 1
  2150                           ;newmain.c: 310:                     WriteCmdXLCD(0xC0);
  2151  001AC2  0EC0               	movlw	192
  2152  001AC4  ECBD  F022         	call	_WriteCmdXLCD
  2153  001AC8                     
  2154                           ;newmain.c: 311:                     sprintf(calculando,"Aguarde: (%d/60)",segundos_que_
      +                          passaram);
  2155  001AC8  0E02               	movlw	low main@calculando
  2156  001ACA  0100               	movlb	0	; () banked
  2157  001ACC  6FE2               	movwf	sprintf@s& (0+255),b
  2158  001ACE  0E01               	movlw	high main@calculando
  2159  001AD0  6FE3               	movwf	(sprintf@s+1)& (0+255),b
  2160  001AD2  0E01               	movlw	low STR_13
  2161  001AD4  6FE4               	movwf	sprintf@fmt& (0+255),b
  2162  001AD6  0E08               	movlw	high STR_13
  2163  001AD8  6FE5               	movwf	(sprintf@fmt+1)& (0+255),b
  2164  001ADA  C1C4  F0E6         	movff	_segundos_que_passaram,?_sprintf+4
  2165  001ADE  C1C5  F0E7         	movff	_segundos_que_passaram+1,?_sprintf+5
  2166  001AE2  ECA4  F021         	call	_sprintf	;wreg free
  2167  001AE6                     l5978:
  2168                           
  2169                           ;newmain.c: 312:                     putrsXLCD (calculando);
  2170  001AE6  0E02               	movlw	low main@calculando
  2171  001AE8  6E0B               	movwf	putrsXLCD@buffer^0,c
  2172  001AEA  0E01               	movlw	high main@calculando
  2173  001AEC  6E0C               	movwf	(putrsXLCD@buffer+1)^0,c
  2174  001AEE  ECAD  F020         	call	_putrsXLCD	;wreg free
  2175                           
  2176                           ;newmain.c: 313:                 } else {
  2177  001AF2  EFF2  F00D         	goto	l6014
  2178  001AF6                     l5980:
  2179                           
  2180                           ; BSR set to: 1
  2181                           ;newmain.c: 314:                     WriteCmdXLCD(0xC5);
  2182  001AF6  0EC5               	movlw	197
  2183  001AF8  ECBD  F022         	call	_WriteCmdXLCD
  2184  001AFC                     
  2185                           ;newmain.c: 315:                     putrsXLCD (valorPorHora);
  2186  001AFC  0E12               	movlw	low main@valorPorHora
  2187  001AFE  6E0B               	movwf	putrsXLCD@buffer^0,c
  2188  001B00  0E01               	movlw	high main@valorPorHora
  2189  001B02  6E0C               	movwf	(putrsXLCD@buffer+1)^0,c
  2190  001B04  ECAD  F020         	call	_putrsXLCD	;wreg free
  2191  001B08  EFF2  F00D         	goto	l6014
  2192  001B0C                     l5984:
  2193                           
  2194                           ; BSR set to: 1
  2195                           ;newmain.c: 319:                 WriteCmdXLCD(0x80);
  2196  001B0C  0E80               	movlw	128
  2197  001B0E  ECBD  F022         	call	_WriteCmdXLCD
  2198  001B12                     
  2199                           ;newmain.c: 320:                 putrsXLCD ("Previsao no mes");
  2200  001B12  0E12               	movlw	low STR_14
  2201  001B14  6E0B               	movwf	putrsXLCD@buffer^0,c
  2202  001B16  0E08               	movlw	high STR_14
  2203  001B18  6E0C               	movwf	(putrsXLCD@buffer+1)^0,c
  2204  001B1A  ECAD  F020         	call	_putrsXLCD	;wreg free
  2205  001B1E                     
  2206                           ;newmain.c: 321:                 if (flag_primeira_vez) {
  2207  001B1E  0101               	movlb	1	; () banked
  2208  001B20  51C2               	movf	_flag_primeira_vez& (0+255),w,b
  2209  001B22  11C3               	iorwf	(_flag_primeira_vez+1)& (0+255),w,b
  2210  001B24  B4D8               	btfsc	status,2,c
  2211  001B26  EF97  F00D         	goto	u6961
  2212  001B2A  EF99  F00D         	goto	u6960
  2213  001B2E                     u6961:
  2214  001B2E  EFAD  F00D         	goto	l5996
  2215  001B32                     u6960:
  2216  001B32                     
  2217                           ; BSR set to: 1
  2218                           ;newmain.c: 322:                     WriteCmdXLCD(0xC0);
  2219  001B32  0EC0               	movlw	192
  2220  001B34  ECBD  F022         	call	_WriteCmdXLCD
  2221  001B38                     
  2222                           ;newmain.c: 323:                     sprintf(calculando,"Aguarde: (%d/60)",segundos_que_
      +                          passaram);
  2223  001B38  0E02               	movlw	low main@calculando
  2224  001B3A  0100               	movlb	0	; () banked
  2225  001B3C  6FE2               	movwf	sprintf@s& (0+255),b
  2226  001B3E  0E01               	movlw	high main@calculando
  2227  001B40  6FE3               	movwf	(sprintf@s+1)& (0+255),b
  2228  001B42  0E01               	movlw	low STR_13
  2229  001B44  6FE4               	movwf	sprintf@fmt& (0+255),b
  2230  001B46  0E08               	movlw	high STR_13
  2231  001B48  6FE5               	movwf	(sprintf@fmt+1)& (0+255),b
  2232  001B4A  C1C4  F0E6         	movff	_segundos_que_passaram,?_sprintf+4
  2233  001B4E  C1C5  F0E7         	movff	_segundos_que_passaram+1,?_sprintf+5
  2234  001B52  ECA4  F021         	call	_sprintf	;wreg free
  2235  001B56  EF73  F00D         	goto	l5978
  2236  001B5A                     l5996:
  2237                           
  2238                           ; BSR set to: 1
  2239                           ;newmain.c: 326:                     WriteCmdXLCD(0xC5);
  2240  001B5A  0EC5               	movlw	197
  2241  001B5C  ECBD  F022         	call	_WriteCmdXLCD
  2242  001B60                     
  2243                           ;newmain.c: 327:                     putrsXLCD (valorPorMes);
  2244  001B60  0E1C               	movlw	low main@valorPorMes
  2245  001B62  6E0B               	movwf	putrsXLCD@buffer^0,c
  2246  001B64  0E01               	movlw	high main@valorPorMes
  2247  001B66  6E0C               	movwf	(putrsXLCD@buffer+1)^0,c
  2248  001B68  ECAD  F020         	call	_putrsXLCD	;wreg free
  2249  001B6C  EFF2  F00D         	goto	l6014
  2250  001B70                     l6000:
  2251                           
  2252                           ; BSR set to: 1
  2253                           ;newmain.c: 331:                 WriteCmdXLCD(0x84);
  2254  001B70  0E84               	movlw	132
  2255  001B72  ECBD  F022         	call	_WriteCmdXLCD
  2256  001B76                     
  2257                           ;newmain.c: 332:                 putrsXLCD ("Creditos");
  2258  001B76  0E48               	movlw	low STR_16
  2259  001B78  6E0B               	movwf	putrsXLCD@buffer^0,c
  2260  001B7A  0E08               	movlw	high STR_16
  2261  001B7C  6E0C               	movwf	(putrsXLCD@buffer+1)^0,c
  2262  001B7E  ECAD  F020         	call	_putrsXLCD	;wreg free
  2263  001B82                     
  2264                           ;newmain.c: 333:                 WriteCmdXLCD(0xC4);
  2265  001B82  0EC4               	movlw	196
  2266  001B84  ECBD  F022         	call	_WriteCmdXLCD
  2267                           
  2268                           ;newmain.c: 334:                 putrsXLCD ("Equipe 6");
  2269  001B88  0E3F               	movlw	low STR_17
  2270  001B8A  6E0B               	movwf	putrsXLCD@buffer^0,c
  2271  001B8C  0E08               	movlw	high STR_17
  2272  001B8E  6E0C               	movwf	(putrsXLCD@buffer+1)^0,c
  2273  001B90  ECAD  F020         	call	_putrsXLCD	;wreg free
  2274                           
  2275                           ;newmain.c: 335:                 break;
  2276  001B94  EFF2  F00D         	goto	l6014
  2277  001B98                     l6006:
  2278                           
  2279                           ; BSR set to: 1
  2280                           ;newmain.c: 337:                 WriteCmdXLCD(0xC6);
  2281  001B98  0EC6               	movlw	198
  2282  001B9A  ECBD  F022         	call	_WriteCmdXLCD
  2283  001B9E                     
  2284                           ;newmain.c: 338:                 putrsXLCD ("?");
  2285  001B9E  0E75               	movlw	low STR_18
  2286  001BA0  6E0B               	movwf	putrsXLCD@buffer^0,c
  2287  001BA2  0E08               	movlw	high STR_18
  2288  001BA4  6E0C               	movwf	(putrsXLCD@buffer+1)^0,c
  2289  001BA6  ECAD  F020         	call	_putrsXLCD	;wreg free
  2290                           
  2291                           ;newmain.c: 339:                 break;
  2292  001BAA  EFF2  F00D         	goto	l6014
  2293  001BAE                     l6012:
  2294  001BAE  C168  F100         	movff	main@tela,??_main
  2295  001BB2  C169  F101         	movff	main@tela+1,??_main+1
  2296                           
  2297                           ; Switch on 2 bytes has been partitioned into a top level switch of size 1, and 1 sub-sw
      +                          itches
  2298                           ; Switch size 1, requested type "simple"
  2299                           ; Number of cases is 1, Range of values is 0 to 0
  2300                           ; switch strategies available:
  2301                           ; Name         Instructions Cycles
  2302                           ; simple_byte            4     3 (average)
  2303                           ;	Chosen strategy is simple_byte
  2304  001BB6  0101               	movlb	1	; () banked
  2305  001BB8  5101               	movf	(??_main+1)& (0+255),w,b
  2306  001BBA  0A00               	xorlw	0	; case 0
  2307  001BBC  B4D8               	btfsc	status,2,c
  2308  001BBE  EFE3  F00D         	goto	l6072
  2309  001BC2  EFCC  F00D         	goto	l6006
  2310  001BC6                     l6072:
  2311                           
  2312                           ; BSR set to: 1
  2313                           ; Switch size 1, requested type "simple"
  2314                           ; Number of cases is 3, Range of values is 1 to 3
  2315                           ; switch strategies available:
  2316                           ; Name         Instructions Cycles
  2317                           ; simple_byte           10     6 (average)
  2318                           ;	Chosen strategy is simple_byte
  2319  001BC6  5100               	movf	??_main& (0+255),w,b
  2320  001BC8  0A01               	xorlw	1	; case 1
  2321  001BCA  B4D8               	btfsc	status,2,c
  2322  001BCC  EF4E  F00D         	goto	l5968
  2323  001BD0  0A03               	xorlw	3	; case 2
  2324  001BD2  B4D8               	btfsc	status,2,c
  2325  001BD4  EF86  F00D         	goto	l5984
  2326  001BD8  0A01               	xorlw	1	; case 3
  2327  001BDA  B4D8               	btfsc	status,2,c
  2328  001BDC  EFB8  F00D         	goto	l6000
  2329  001BE0  EFCC  F00D         	goto	l6006
  2330  001BE4                     l6014:
  2331                           
  2332                           ;newmain.c: 342:          _delay((unsigned long)((100)*(20000000/4000.0)));
  2333  001BE4  0E03               	movlw	3
  2334  001BE6  0101               	movlb	1	; () banked
  2335  001BE8  6F01               	movwf	(??_main+1)& (0+255),b
  2336  001BEA  0E8A               	movlw	138
  2337  001BEC  6F00               	movwf	??_main& (0+255),b
  2338  001BEE  0E55               	movlw	85
  2339  001BF0                     u7037:
  2340  001BF0  2EE8               	decfsz	wreg,f,c
  2341  001BF2  D7FE               	bra	u7037
  2342  001BF4  2F00               	decfsz	??_main& (0+255),f,b
  2343  001BF6  D7FC               	bra	u7037
  2344  001BF8  2F01               	decfsz	(??_main+1)& (0+255),f,b
  2345  001BFA  D7FA               	bra	u7037
  2346  001BFC  D000               	nop2	
  2347  001BFE  EF82  F00A         	goto	l5874
  2348  001C02  EF63  F000         	goto	start
  2349  001C06                     __end_of_main:
  2350                           	callstack 0
  2351                           
  2352 ;; *************** function _strcat *****************
  2353 ;; Defined at:
  2354 ;;		line 3 in file "E:\MPLAB\xc8\pic\sources\c99\common\strcat.c"
  2355 ;; Parameters:    Size  Location     Type
  2356 ;;  dest            2   23[COMRAM] PTR unsigned char 
  2357 ;;		 -> main@minuteWatts(10), main@currentWatts(10), 
  2358 ;;  src             2   25[COMRAM] PTR const unsigned char 
  2359 ;;		 -> STR_7(5), STR_4(4), 
  2360 ;; Auto vars:     Size  Location     Type
  2361 ;;		None
  2362 ;; Return value:  Size  Location     Type
  2363 ;;                  2   23[COMRAM] PTR unsigned char 
  2364 ;; Registers used:
  2365 ;;		wreg, fsr1l, fsr1h, fsr2l, fsr2h, status,2, status,0, tblptrl, tblptrh, tblptru, cstack
  2366 ;; Tracked objects:
  2367 ;;		On entry : 0/0
  2368 ;;		On exit  : 0/0
  2369 ;;		Unchanged: 0/0
  2370 ;; Data sizes:     COMRAM   BANK0   BANK1   BANK2   BANK3   BANK4   BANK5   BANK6   BANK7
  2371 ;;      Params:         4       0       0       0       0       0       0       0       0
  2372 ;;      Locals:         0       0       0       0       0       0       0       0       0
  2373 ;;      Temps:          0       0       0       0       0       0       0       0       0
  2374 ;;      Totals:         4       0       0       0       0       0       0       0       0
  2375 ;;Total ram usage:        4 bytes
  2376 ;; Hardware stack levels used:    1
  2377 ;; Hardware stack levels required when called:    3
  2378 ;; This function calls:
  2379 ;;		_strcpy
  2380 ;;		_strlen
  2381 ;; This function is called by:
  2382 ;;		_main
  2383 ;; This function uses a non-reentrant model
  2384 ;;
  2385                           
  2386                           	psect	text1
  2387  0046C2                     __ptext1:
  2388                           	callstack 0
  2389  0046C2                     _strcat:
  2390                           	callstack 27
  2391  0046C2  C018  F00A         	movff	strcat@dest,strlen@s
  2392  0046C6  C019  F00B         	movff	strcat@dest+1,strlen@s+1
  2393  0046CA  EC30  F023         	call	_strlen	;wreg free
  2394  0046CE  500A               	movf	?_strlen^0,w,c
  2395  0046D0  2418               	addwf	strcat@dest^0,w,c
  2396  0046D2  6E0E               	movwf	strcpy@dest^0,c
  2397  0046D4  500B               	movf	(?_strlen+1)^0,w,c
  2398  0046D6  2019               	addwfc	(strcat@dest+1)^0,w,c
  2399  0046D8  6E0F               	movwf	(strcpy@dest+1)^0,c
  2400  0046DA  C01A  F010         	movff	strcat@src,strcpy@src
  2401  0046DE  C01B  F011         	movff	strcat@src+1,strcpy@src+1
  2402  0046E2  EC76  F021         	call	_strcpy	;wreg free
  2403  0046E6  0012               	return		;funcret
  2404  0046E8                     __end_of_strcat:
  2405                           	callstack 0
  2406                           
  2407 ;; *************** function _sprintf *****************
  2408 ;; Defined at:
  2409 ;;		line 9 in file "E:\MPLAB\xc8\pic\sources\c99\common\nf_sprintf.c"
  2410 ;; Parameters:    Size  Location     Type
  2411 ;;  s               2  130[BANK0 ] PTR unsigned char 
  2412 ;;		 -> main@calculando(16), main@valorPorMes(10), main@valorPorHora(10), main@minuteWatts(10), 
  2413 ;;		 -> main@currentWatts(10), 
  2414 ;;  fmt             2  132[BANK0 ] PTR const unsigned char 
  2415 ;;		 -> STR_15(17), STR_13(17), STR_11(8), STR_10(8), 
  2416 ;;		 -> STR_9(8), STR_8(8), STR_6(5), STR_5(5), 
  2417 ;;		 -> STR_3(5), STR_2(5), 
  2418 ;; Auto vars:     Size  Location     Type
  2419 ;;  f               6  142[BANK0 ] struct _IO_FILE
  2420 ;;  ap              2  140[BANK0 ] PTR void [1]
  2421 ;;		 -> ?_sprintf(2), 
  2422 ;;  ret             2    0        int 
  2423 ;; Return value:  Size  Location     Type
  2424 ;;                  2  130[BANK0 ] int 
  2425 ;; Registers used:
  2426 ;;		wreg, fsr1l, fsr1h, fsr2l, fsr2h, status,2, status,0, tblptrl, tblptrh, tblptru, prodl, prodh, cstack
  2427 ;; Tracked objects:
  2428 ;;		On entry : 0/0
  2429 ;;		On exit  : 0/0
  2430 ;;		Unchanged: 0/0
  2431 ;; Data sizes:     COMRAM   BANK0   BANK1   BANK2   BANK3   BANK4   BANK5   BANK6   BANK7
  2432 ;;      Params:         0       8       0       0       0       0       0       0       0
  2433 ;;      Locals:         0      10       0       0       0       0       0       0       0
  2434 ;;      Temps:          0       0       0       0       0       0       0       0       0
  2435 ;;      Totals:         0      18       0       0       0       0       0       0       0
  2436 ;;Total ram usage:       18 bytes
  2437 ;; Hardware stack levels used:    1
  2438 ;; Hardware stack levels required when called:    9
  2439 ;; This function calls:
  2440 ;;		_vfprintf
  2441 ;; This function is called by:
  2442 ;;		_main
  2443 ;; This function uses a non-reentrant model
  2444 ;;
  2445                           
  2446                           	psect	text2
  2447  004348                     __ptext2:
  2448                           	callstack 0
  2449  004348                     _sprintf:
  2450                           	callstack 21
  2451  004348  0EE6               	movlw	low (?_sprintf+4)
  2452  00434A  0100               	movlb	0	; () banked
  2453  00434C  6FEC               	movwf	sprintf@ap& (0+255),b
  2454  00434E  0E00               	movlw	high (?_sprintf+4)
  2455  004350  6FED               	movwf	(sprintf@ap+1)& (0+255),b
  2456  004352  C0E2  F0EE         	movff	sprintf@s,sprintf@f
  2457  004356  C0E3  F0EF         	movff	sprintf@s+1,sprintf@f+1
  2458  00435A                     
  2459                           ; BSR set to: 0
  2460  00435A  0E00               	movlw	0
  2461  00435C  6FF1               	movwf	(sprintf@f+3)& (0+255),b
  2462  00435E  0E00               	movlw	0
  2463  004360  6FF0               	movwf	(sprintf@f+2)& (0+255),b
  2464  004362                     
  2465                           ; BSR set to: 0
  2466  004362  0E00               	movlw	0
  2467  004364  6FF3               	movwf	(sprintf@f+5)& (0+255),b
  2468  004366  0E00               	movlw	0
  2469  004368  6FF2               	movwf	(sprintf@f+4)& (0+255),b
  2470  00436A                     
  2471                           ; BSR set to: 0
  2472  00436A  0EEE               	movlw	low sprintf@f
  2473  00436C  6FDA               	movwf	vfprintf@fp& (0+255),b
  2474  00436E  0E00               	movlw	high sprintf@f
  2475  004370  6FDB               	movwf	(vfprintf@fp+1)& (0+255),b
  2476  004372  C0E4  F0DC         	movff	sprintf@fmt,vfprintf@fmt
  2477  004376  C0E5  F0DD         	movff	sprintf@fmt+1,vfprintf@fmt+1
  2478  00437A  0EEC               	movlw	low sprintf@ap
  2479  00437C  6FDE               	movwf	vfprintf@ap& (0+255),b
  2480  00437E  0E00               	movlw	high sprintf@ap
  2481  004380  6FDF               	movwf	(vfprintf@ap+1)& (0+255),b
  2482  004382  ECE6  F020         	call	_vfprintf	;wreg free
  2483  004386  0100               	movlb	0	; () banked
  2484  004388  51F0               	movf	(sprintf@f+2)& (0+255),w,b
  2485  00438A  25E2               	addwf	sprintf@s& (0+255),w,b
  2486  00438C  6ED9               	movwf	fsr2l,c
  2487  00438E  51F1               	movf	(sprintf@f+3)& (0+255),w,b
  2488  004390  21E3               	addwfc	(sprintf@s+1)& (0+255),w,b
  2489  004392  6EDA               	movwf	fsr2h,c
  2490  004394  0E00               	movlw	0
  2491  004396  6EDF               	movwf	indf2,c
  2492  004398                     
  2493                           ; BSR set to: 0
  2494  004398  0012               	return		;funcret
  2495  00439A                     __end_of_sprintf:
  2496                           	callstack 0
  2497                           
  2498 ;; *************** function _vfprintf *****************
  2499 ;; Defined at:
  2500 ;;		line 1368 in file "E:\MPLAB\xc8\pic\sources\c99\common\doprnt.c"
  2501 ;; Parameters:    Size  Location     Type
  2502 ;;  fp              2  122[BANK0 ] PTR struct _IO_FILE
  2503 ;;		 -> sprintf@f(6), 
  2504 ;;  fmt             2  124[BANK0 ] PTR const unsigned char 
  2505 ;;		 -> STR_15(17), STR_13(17), STR_11(8), STR_10(8), 
  2506 ;;		 -> STR_9(8), STR_8(8), STR_6(5), STR_5(5), 
  2507 ;;		 -> STR_3(5), STR_2(5), 
  2508 ;;  ap              2  126[BANK0 ] PTR PTR void 
  2509 ;;		 -> sprintf@ap(2), 
  2510 ;; Auto vars:     Size  Location     Type
  2511 ;;  cfmt            2  128[BANK0 ] PTR unsigned char 
  2512 ;;		 -> STR_15(17), STR_13(17), STR_11(8), STR_10(8), 
  2513 ;;		 -> STR_9(8), STR_8(8), STR_6(5), STR_5(5), 
  2514 ;;		 -> STR_3(5), STR_2(5), 
  2515 ;; Return value:  Size  Location     Type
  2516 ;;                  2  122[BANK0 ] int 
  2517 ;; Registers used:
  2518 ;;		wreg, fsr1l, fsr1h, fsr2l, fsr2h, status,2, status,0, tblptrl, tblptrh, tblptru, prodl, prodh, cstack
  2519 ;; Tracked objects:
  2520 ;;		On entry : 0/0
  2521 ;;		On exit  : 0/0
  2522 ;;		Unchanged: 0/0
  2523 ;; Data sizes:     COMRAM   BANK0   BANK1   BANK2   BANK3   BANK4   BANK5   BANK6   BANK7
  2524 ;;      Params:         0       6       0       0       0       0       0       0       0
  2525 ;;      Locals:         0       2       0       0       0       0       0       0       0
  2526 ;;      Temps:          0       0       0       0       0       0       0       0       0
  2527 ;;      Totals:         0       8       0       0       0       0       0       0       0
  2528 ;;Total ram usage:        8 bytes
  2529 ;; Hardware stack levels used:    1
  2530 ;; Hardware stack levels required when called:    8
  2531 ;; This function calls:
  2532 ;;		_vfpfcnvrt
  2533 ;; This function is called by:
  2534 ;;		_sprintf
  2535 ;; This function uses a non-reentrant model
  2536 ;;
  2537                           
  2538                           	psect	text3
  2539  0041CC                     __ptext3:
  2540                           	callstack 0
  2541  0041CC                     _vfprintf:
  2542                           	callstack 21
  2543  0041CC                     
  2544                           ;E:\MPLAB\xc8\pic\sources\c99\common\doprnt.c: 1368: int vfprintf(FILE *fp, const char *
      +                          fmt, va_list ap);E:\MPLAB\xc8\pic\sources\c99\common\doprnt.c: 1369: {;E:\MPLAB\xc8\pic\
      +                          sources\c99\common\doprnt.c: 1371:     char *cfmt;;E:\MPLAB\xc8\pic\sources\c99\common\d
      +                          oprnt.c: 1373:     cfmt = (char *)fmt;
  2545  0041CC  C0DC  F0E0         	movff	vfprintf@fmt,vfprintf@cfmt
  2546  0041D0  C0DD  F0E1         	movff	vfprintf@fmt+1,vfprintf@cfmt+1
  2547  0041D4                     
  2548                           ;E:\MPLAB\xc8\pic\sources\c99\common\doprnt.c: 1374:     nout = 0;
  2549  0041D4  0E00               	movlw	0
  2550  0041D6  0100               	movlb	0	; () banked
  2551  0041D8  6FFD               	movwf	(_nout+1)& (0+255),b
  2552  0041DA  0E00               	movlw	0
  2553  0041DC  6FFC               	movwf	_nout& (0+255),b
  2554                           
  2555                           ;E:\MPLAB\xc8\pic\sources\c99\common\doprnt.c: 1375:     while (*cfmt) {
  2556  0041DE  EF04  F021         	goto	l5816
  2557  0041E2                     l5814:
  2558                           
  2559                           ; BSR set to: 0
  2560                           ;E:\MPLAB\xc8\pic\sources\c99\common\doprnt.c: 1376:         nout += vfpfcnvrt(fp, &cfmt
      +                          , ap);
  2561  0041E2  C0DA  F0BC         	movff	vfprintf@fp,vfpfcnvrt@fp
  2562  0041E6  C0DB  F0BD         	movff	vfprintf@fp+1,vfpfcnvrt@fp+1
  2563  0041EA  0EE0               	movlw	low vfprintf@cfmt
  2564  0041EC  6FBE               	movwf	vfpfcnvrt@fmt& (0+255),b
  2565  0041EE  0E00               	movlw	high vfprintf@cfmt
  2566  0041F0  6FBF               	movwf	(vfpfcnvrt@fmt+1)& (0+255),b
  2567  0041F2  C0DE  F0C0         	movff	vfprintf@ap,vfpfcnvrt@ap
  2568  0041F6  C0DF  F0C1         	movff	vfprintf@ap+1,vfpfcnvrt@ap+1
  2569  0041FA  EC03  F00E         	call	_vfpfcnvrt	;wreg free
  2570  0041FE  0100               	movlb	0	; () banked
  2571  004200  51BC               	movf	?_vfpfcnvrt& (0+255),w,b
  2572  004202  27FC               	addwf	_nout& (0+255),f,b
  2573  004204  51BD               	movf	(?_vfpfcnvrt+1)& (0+255),w,b
  2574  004206  23FD               	addwfc	(_nout+1)& (0+255),f,b
  2575  004208                     l5816:
  2576                           
  2577                           ; BSR set to: 0
  2578                           ;E:\MPLAB\xc8\pic\sources\c99\common\doprnt.c: 1375:     while (*cfmt) {
  2579  004208  C0E0  FFF6         	movff	vfprintf@cfmt,tblptrl
  2580  00420C  C0E1  FFF7         	movff	vfprintf@cfmt+1,tblptrh
  2581  004210                     	if	0	;tblptru may be non-zero
  2582  004210                     	endif
  2583  004210                     	if	0	;tblptru may be non-zero
  2584  004210                     	endif
  2585  004210  0008               	tblrd		*
  2586  004212  50F5               	movf	tablat,w,c
  2587  004214  0900               	iorlw	0
  2588  004216  A4D8               	btfss	status,2,c
  2589  004218  EF10  F021         	goto	u6841
  2590  00421C  EF12  F021         	goto	u6840
  2591  004220                     u6841:
  2592  004220  EFF1  F020         	goto	l5814
  2593  004224                     u6840:
  2594  004224                     
  2595                           ; BSR set to: 0
  2596                           ;E:\MPLAB\xc8\pic\sources\c99\common\doprnt.c: 1378:     return nout;
  2597  004224  C0FC  F0DA         	movff	_nout,?_vfprintf
  2598  004228  C0FD  F0DB         	movff	_nout+1,?_vfprintf+1
  2599  00422C                     
  2600                           ; BSR set to: 0
  2601  00422C  0012               	return		;funcret
  2602  00422E                     __end_of_vfprintf:
  2603                           	callstack 0
  2604                           
  2605 ;; *************** function _vfpfcnvrt *****************
  2606 ;; Defined at:
  2607 ;;		line 670 in file "E:\MPLAB\xc8\pic\sources\c99\common\doprnt.c"
  2608 ;; Parameters:    Size  Location     Type
  2609 ;;  fp              2   92[BANK0 ] PTR struct _IO_FILE
  2610 ;;		 -> sprintf@f(6), 
  2611 ;;  fmt             2   94[BANK0 ] PTR PTR unsigned char 
  2612 ;;		 -> vfprintf@cfmt(2), 
  2613 ;;  ap              2   96[BANK0 ] PTR PTR void 
  2614 ;;		 -> sprintf@ap(2), 
  2615 ;; Auto vars:     Size  Location     Type
  2616 ;;  ll              8  102[BANK0 ] long long 
  2617 ;;  llu             8    0        unsigned long long 
  2618 ;;  f               4  117[BANK0 ] unsigned long long 
  2619 ;;  ct              3  114[BANK0 ] unsigned char [3]
  2620 ;;  vp              3    0        PTR void 
  2621 ;;  cp              3    0        PTR unsigned char 
  2622 ;;  i               2    0        int 
  2623 ;;  done            2    0        int 
  2624 ;;  c               1  121[BANK0 ] unsigned char 
  2625 ;; Return value:  Size  Location     Type
  2626 ;;                  2   92[BANK0 ] int 
  2627 ;; Registers used:
  2628 ;;		wreg, fsr1l, fsr1h, fsr2l, fsr2h, status,2, status,0, tblptrl, tblptrh, tblptru, prodl, prodh, cstack
  2629 ;; Tracked objects:
  2630 ;;		On entry : 0/0
  2631 ;;		On exit  : 0/0
  2632 ;;		Unchanged: 0/0
  2633 ;; Data sizes:     COMRAM   BANK0   BANK1   BANK2   BANK3   BANK4   BANK5   BANK6   BANK7
  2634 ;;      Params:         0       6       0       0       0       0       0       0       0
  2635 ;;      Locals:         0      20       0       0       0       0       0       0       0
  2636 ;;      Temps:          0       4       0       0       0       0       0       0       0
  2637 ;;      Totals:         0      30       0       0       0       0       0       0       0
  2638 ;;Total ram usage:       30 bytes
  2639 ;; Hardware stack levels used:    1
  2640 ;; Hardware stack levels required when called:    7
  2641 ;; This function calls:
  2642 ;;		_atoi
  2643 ;;		_dtoa
  2644 ;;		_efgtoa
  2645 ;;		_fputc
  2646 ;;		_isdigit
  2647 ;;		_isupper
  2648 ;;		_strncmp
  2649 ;;		_tolower
  2650 ;; This function is called by:
  2651 ;;		_vfprintf
  2652 ;; This function uses a non-reentrant model
  2653 ;;
  2654                           
  2655                           	psect	text4
  2656  001C06                     __ptext4:
  2657                           	callstack 0
  2658  001C06                     _vfpfcnvrt:
  2659                           	callstack 21
  2660  001C06                     
  2661                           ;E:\MPLAB\xc8\pic\sources\c99\common\doprnt.c: 670: static int vfpfcnvrt(FILE *fp, char 
      +                          *fmt[], va_list ap);E:\MPLAB\xc8\pic\sources\c99\common\doprnt.c: 671: {;E:\MPLAB\xc8\pi
      +                          c\sources\c99\common\doprnt.c: 672:     char c, *cp, ct[3];;E:\MPLAB\xc8\pic\sources\c99
      +                          \common\doprnt.c: 673:     int done, i;;E:\MPLAB\xc8\pic\sources\c99\common\doprnt.c: 67
      +                          4:     long long ll;;E:\MPLAB\xc8\pic\sources\c99\common\doprnt.c: 675:     unsigned lon
      +                          g long llu;;E:\MPLAB\xc8\pic\sources\c99\common\doprnt.c: 676:     long double f;
  2662  001C06  C0BE  FFD9         	movff	vfpfcnvrt@fmt,fsr2l
  2663  001C0A  C0BF  FFDA         	movff	vfpfcnvrt@fmt+1,fsr2h
  2664  001C0E  CFDE FFF6          	movff	postinc2,tblptrl
  2665  001C12  CFDD FFF7          	movff	postdec2,tblptrh
  2666  001C16                     	if	0	;tblptru may be non-zero
  2667  001C16                     	endif
  2668  001C16                     	if	0	;tblptru may be non-zero
  2669  001C16                     	endif
  2670  001C16  0008               	tblrd		*
  2671  001C18  50F5               	movf	tablat,w,c
  2672  001C1A  0A25               	xorlw	37
  2673  001C1C  A4D8               	btfss	status,2,c
  2674  001C1E  EF13  F00E         	goto	u6681
  2675  001C22  EF15  F00E         	goto	u6680
  2676  001C26                     u6681:
  2677  001C26  EF81  F010         	goto	l5802
  2678  001C2A                     u6680:
  2679  001C2A                     
  2680                           ;E:\MPLAB\xc8\pic\sources\c99\common\doprnt.c: 681:         ++*fmt;
  2681  001C2A  C0BE  FFD9         	movff	vfpfcnvrt@fmt,fsr2l
  2682  001C2E  C0BF  FFDA         	movff	vfpfcnvrt@fmt+1,fsr2h
  2683  001C32  2ADE               	incf	postinc2,f,c
  2684  001C34  0E00               	movlw	0
  2685  001C36  22DD               	addwfc	postdec2,f,c
  2686  001C38                     
  2687                           ;E:\MPLAB\xc8\pic\sources\c99\common\doprnt.c: 683:         flags = width = 0;
  2688  001C38  0E00               	movlw	0
  2689  001C3A  6E4F               	movwf	(_width+1)^0,c
  2690  001C3C  0E00               	movlw	0
  2691  001C3E  6E4E               	movwf	_width^0,c
  2692  001C40  C04E  F052         	movff	_width,_flags
  2693  001C44  C04F  F053         	movff	_width+1,_flags+1
  2694  001C48                     
  2695                           ;E:\MPLAB\xc8\pic\sources\c99\common\doprnt.c: 684:         prec = -1;
  2696  001C48  6850               	setf	_prec^0,c
  2697  001C4A  6851               	setf	(_prec+1)^0,c
  2698  001C4C                     
  2699                           ;E:\MPLAB\xc8\pic\sources\c99\common\doprnt.c: 740:         if ((*fmt)[0] == '.') {
  2700  001C4C  C0BE  FFD9         	movff	vfpfcnvrt@fmt,fsr2l
  2701  001C50  C0BF  FFDA         	movff	vfpfcnvrt@fmt+1,fsr2h
  2702  001C54  CFDE FFF6          	movff	postinc2,tblptrl
  2703  001C58  CFDD FFF7          	movff	postdec2,tblptrh
  2704  001C5C                     	if	0	;tblptru may be non-zero
  2705  001C5C                     	endif
  2706  001C5C                     	if	0	;tblptru may be non-zero
  2707  001C5C                     	endif
  2708  001C5C  0008               	tblrd		*
  2709  001C5E  50F5               	movf	tablat,w,c
  2710  001C60  0A2E               	xorlw	46
  2711  001C62  A4D8               	btfss	status,2,c
  2712  001C64  EF36  F00E         	goto	u6691
  2713  001C68  EF38  F00E         	goto	u6690
  2714  001C6C                     u6691:
  2715  001C6C  EFB6  F00E         	goto	l5738
  2716  001C70                     u6690:
  2717  001C70                     
  2718                           ;E:\MPLAB\xc8\pic\sources\c99\common\doprnt.c: 741:             prec = 0;
  2719  001C70  0E00               	movlw	0
  2720  001C72  6E51               	movwf	(_prec+1)^0,c
  2721  001C74  0E00               	movlw	0
  2722  001C76  6E50               	movwf	_prec^0,c
  2723  001C78                     
  2724                           ;E:\MPLAB\xc8\pic\sources\c99\common\doprnt.c: 742:             ++*fmt;
  2725  001C78  C0BE  FFD9         	movff	vfpfcnvrt@fmt,fsr2l
  2726  001C7C  C0BF  FFDA         	movff	vfpfcnvrt@fmt+1,fsr2h
  2727  001C80  2ADE               	incf	postinc2,f,c
  2728  001C82  0E00               	movlw	0
  2729  001C84  22DD               	addwfc	postdec2,f,c
  2730  001C86                     
  2731                           ;E:\MPLAB\xc8\pic\sources\c99\common\doprnt.c: 743:             if ((*fmt)[0] == '*') {
  2732  001C86  C0BE  FFD9         	movff	vfpfcnvrt@fmt,fsr2l
  2733  001C8A  C0BF  FFDA         	movff	vfpfcnvrt@fmt+1,fsr2h
  2734  001C8E  CFDE FFF6          	movff	postinc2,tblptrl
  2735  001C92  CFDD FFF7          	movff	postdec2,tblptrh
  2736  001C96                     	if	0	;tblptru may be non-zero
  2737  001C96                     	endif
  2738  001C96                     	if	0	;tblptru may be non-zero
  2739  001C96                     	endif
  2740  001C96  0008               	tblrd		*
  2741  001C98  50F5               	movf	tablat,w,c
  2742  001C9A  0A2A               	xorlw	42
  2743  001C9C  A4D8               	btfss	status,2,c
  2744  001C9E  EF53  F00E         	goto	u6701
  2745  001CA2  EF55  F00E         	goto	u6700
  2746  001CA6                     u6701:
  2747  001CA6  EF72  F00E         	goto	l5728
  2748  001CAA                     u6700:
  2749  001CAA                     
  2750                           ;E:\MPLAB\xc8\pic\sources\c99\common\doprnt.c: 744:                 ++*fmt;
  2751  001CAA  C0BE  FFD9         	movff	vfpfcnvrt@fmt,fsr2l
  2752  001CAE  C0BF  FFDA         	movff	vfpfcnvrt@fmt+1,fsr2h
  2753  001CB2  2ADE               	incf	postinc2,f,c
  2754  001CB4  0E00               	movlw	0
  2755  001CB6  22DD               	addwfc	postdec2,f,c
  2756                           
  2757                           ;E:\MPLAB\xc8\pic\sources\c99\common\doprnt.c: 745:                 prec = (*(int *)__va
      +                          _arg(*(int **)ap, (int)0));
  2758  001CB8  C0C0  FFD9         	movff	vfpfcnvrt@ap,fsr2l
  2759  001CBC  C0C1  FFDA         	movff	vfpfcnvrt@ap+1,fsr2h
  2760  001CC0  CFDF F0C2          	movff	indf2,??_vfpfcnvrt
  2761  001CC4  0E02               	movlw	2
  2762  001CC6  26DE               	addwf	postinc2,f,c
  2763  001CC8  CFDF F0C3          	movff	indf2,??_vfpfcnvrt+1
  2764  001CCC  0E00               	movlw	0
  2765  001CCE  22DD               	addwfc	postdec2,f,c
  2766  001CD0  C0C2  FFD9         	movff	??_vfpfcnvrt,fsr2l
  2767  001CD4  C0C3  FFDA         	movff	??_vfpfcnvrt+1,fsr2h
  2768  001CD8  CFDE F050          	movff	postinc2,_prec
  2769  001CDC  CFDD F051          	movff	postdec2,_prec+1
  2770                           
  2771                           ;E:\MPLAB\xc8\pic\sources\c99\common\doprnt.c: 746:             } else {
  2772  001CE0  EFB6  F00E         	goto	l5738
  2773  001CE4                     l5728:
  2774                           
  2775                           ;E:\MPLAB\xc8\pic\sources\c99\common\doprnt.c: 747:                 prec = atoi(*fmt);
  2776  001CE4  C0BE  FFD9         	movff	vfpfcnvrt@fmt,fsr2l
  2777  001CE8  C0BF  FFDA         	movff	vfpfcnvrt@fmt+1,fsr2h
  2778  001CEC  CFDE F011          	movff	postinc2,atoi@s
  2779  001CF0  CFDD F012          	movff	postdec2,atoi@s+1
  2780  001CF4  EC34  F01A         	call	_atoi	;wreg free
  2781  001CF8  C011  F050         	movff	?_atoi,_prec
  2782  001CFC  C012  F051         	movff	?_atoi+1,_prec+1
  2783                           
  2784                           ;E:\MPLAB\xc8\pic\sources\c99\common\doprnt.c: 748:                 while ((0 ? isdigit(
      +                          (*fmt)[0]) : ((unsigned)((*fmt)[0])-'0') < 10)) {
  2785  001D00  EF89  F00E         	goto	l5732
  2786  001D04                     l5730:
  2787                           
  2788                           ; BSR set to: 0
  2789                           ;E:\MPLAB\xc8\pic\sources\c99\common\doprnt.c: 749:                     ++*fmt;
  2790  001D04  C0BE  FFD9         	movff	vfpfcnvrt@fmt,fsr2l
  2791  001D08  C0BF  FFDA         	movff	vfpfcnvrt@fmt+1,fsr2h
  2792  001D0C  2ADE               	incf	postinc2,f,c
  2793  001D0E  0E00               	movlw	0
  2794  001D10  22DD               	addwfc	postdec2,f,c
  2795  001D12                     l5732:
  2796  001D12  0ED0               	movlw	208
  2797  001D14  0100               	movlb	0	; () banked
  2798  001D16  6FC2               	movwf	??_vfpfcnvrt& (0+255),b
  2799  001D18  0EFF               	movlw	255
  2800  001D1A  6FC3               	movwf	(??_vfpfcnvrt+1)& (0+255),b
  2801  001D1C  C0BE  FFD9         	movff	vfpfcnvrt@fmt,fsr2l
  2802  001D20  C0BF  FFDA         	movff	vfpfcnvrt@fmt+1,fsr2h
  2803  001D24  CFDE FFF6          	movff	postinc2,tblptrl
  2804  001D28  CFDD FFF7          	movff	postdec2,tblptrh
  2805  001D2C                     	if	0	;tblptru may be non-zero
  2806  001D2C                     	endif
  2807  001D2C                     	if	0	;tblptru may be non-zero
  2808  001D2C                     	endif
  2809  001D2C  0008               	tblrd		*
  2810  001D2E  50F5               	movf	tablat,w,c
  2811  001D30  6FC4               	movwf	(??_vfpfcnvrt+2)& (0+255),b
  2812  001D32  6BC5               	clrf	(??_vfpfcnvrt+3)& (0+255),b
  2813  001D34  51C2               	movf	??_vfpfcnvrt& (0+255),w,b
  2814  001D36  27C4               	addwf	(??_vfpfcnvrt+2)& (0+255),f,b
  2815  001D38  51C3               	movf	(??_vfpfcnvrt+1)& (0+255),w,b
  2816  001D3A  23C5               	addwfc	(??_vfpfcnvrt+3)& (0+255),f,b
  2817  001D3C  51C5               	movf	(??_vfpfcnvrt+3)& (0+255),w,b
  2818  001D3E  E10A               	bnz	u6710
  2819  001D40  0E0A               	movlw	10
  2820  001D42  5DC4               	subwf	(??_vfpfcnvrt+2)& (0+255),w,b
  2821  001D44  A0D8               	btfss	status,0,c
  2822  001D46  EFA7  F00E         	goto	u6711
  2823  001D4A  EFAA  F00E         	goto	u6710
  2824  001D4E                     u6711:
  2825  001D4E  0E01               	movlw	1
  2826  001D50  EFAB  F00E         	goto	u6720
  2827  001D54                     u6710:
  2828  001D54  0E00               	movlw	0
  2829  001D56                     u6720:
  2830  001D56  6FCE               	movwf	_vfpfcnvrt$1374& (0+255),b
  2831  001D58  6BCF               	clrf	(_vfpfcnvrt$1374+1)& (0+255),b
  2832  001D5A                     
  2833                           ; BSR set to: 0
  2834  001D5A  51CE               	movf	_vfpfcnvrt$1374& (0+255),w,b
  2835  001D5C  11CF               	iorwf	(_vfpfcnvrt$1374+1)& (0+255),w,b
  2836  001D5E  A4D8               	btfss	status,2,c
  2837  001D60  EFB4  F00E         	goto	u6731
  2838  001D64  EFB6  F00E         	goto	u6730
  2839  001D68                     u6731:
  2840  001D68  EF82  F00E         	goto	l5730
  2841  001D6C                     u6730:
  2842  001D6C                     l5738:
  2843                           
  2844                           ;E:\MPLAB\xc8\pic\sources\c99\common\doprnt.c: 757:         ct[0] = tolower((int)(*fmt)[
      +                          0]);
  2845  001D6C  C0BE  FFD9         	movff	vfpfcnvrt@fmt,fsr2l
  2846  001D70  C0BF  FFDA         	movff	vfpfcnvrt@fmt+1,fsr2h
  2847  001D74  CFDE FFF6          	movff	postinc2,tblptrl
  2848  001D78  CFDD FFF7          	movff	postdec2,tblptrh
  2849  001D7C                     	if	0	;tblptru may be non-zero
  2850  001D7C                     	endif
  2851  001D7C                     	if	0	;tblptru may be non-zero
  2852  001D7C                     	endif
  2853  001D7C  0008               	tblrd		*
  2854  001D7E  50F5               	movf	tablat,w,c
  2855  001D80  6E10               	movwf	tolower@c^0,c
  2856  001D82  6A11               	clrf	(tolower@c+1)^0,c
  2857  001D84  EC17  F021         	call	_tolower	;wreg free
  2858  001D88  5010               	movf	?_tolower^0,w,c
  2859  001D8A  0100               	movlb	0	; () banked
  2860  001D8C  6FD2               	movwf	vfpfcnvrt@ct& (0+255),b
  2861  001D8E                     
  2862                           ; BSR set to: 0
  2863                           ;E:\MPLAB\xc8\pic\sources\c99\common\doprnt.c: 758:         if (ct[0]) {
  2864  001D8E  51D2               	movf	vfpfcnvrt@ct& (0+255),w,b
  2865  001D90  B4D8               	btfsc	status,2,c
  2866  001D92  EFCD  F00E         	goto	u6741
  2867  001D96  EFCF  F00E         	goto	u6740
  2868  001D9A                     u6741:
  2869  001D9A  EF09  F00F         	goto	l5748
  2870  001D9E                     u6740:
  2871  001D9E                     
  2872                           ; BSR set to: 0
  2873                           ;E:\MPLAB\xc8\pic\sources\c99\common\doprnt.c: 759:             ct[1] = tolower((int)(*f
      +                          mt)[1]);
  2874  001D9E  C0BE  FFD9         	movff	vfpfcnvrt@fmt,fsr2l
  2875  001DA2  C0BF  FFDA         	movff	vfpfcnvrt@fmt+1,fsr2h
  2876  001DA6  CFDE F0C2          	movff	postinc2,??_vfpfcnvrt
  2877  001DAA  CFDD F0C3          	movff	postdec2,??_vfpfcnvrt+1
  2878  001DAE  0E01               	movlw	1
  2879  001DB0  27C2               	addwf	??_vfpfcnvrt& (0+255),f,b
  2880  001DB2  0E00               	movlw	0
  2881  001DB4  23C3               	addwfc	(??_vfpfcnvrt+1)& (0+255),f,b
  2882  001DB6  C0C2  FFF6         	movff	??_vfpfcnvrt,tblptrl
  2883  001DBA  C0C3  FFF7         	movff	??_vfpfcnvrt+1,tblptrh
  2884  001DBE                     	if	0	;tblptru may be non-zero
  2885  001DBE                     	endif
  2886  001DBE                     	if	0	;tblptru may be non-zero
  2887  001DBE                     	endif
  2888  001DBE  0008               	tblrd		*
  2889  001DC0  50F5               	movf	tablat,w,c
  2890  001DC2  6E10               	movwf	tolower@c^0,c
  2891  001DC4  6A11               	clrf	(tolower@c+1)^0,c
  2892  001DC6  EC17  F021         	call	_tolower	;wreg free
  2893  001DCA  5010               	movf	?_tolower^0,w,c
  2894  001DCC  0100               	movlb	0	; () banked
  2895  001DCE  6FD3               	movwf	(vfpfcnvrt@ct+1)& (0+255),b
  2896  001DD0                     
  2897                           ; BSR set to: 0
  2898                           ;E:\MPLAB\xc8\pic\sources\c99\common\doprnt.c: 760:             if (ct[1]) {
  2899  001DD0  51D3               	movf	(vfpfcnvrt@ct+1)& (0+255),w,b
  2900  001DD2  B4D8               	btfsc	status,2,c
  2901  001DD4  EFEE  F00E         	goto	u6751
  2902  001DD8  EFF0  F00E         	goto	u6750
  2903  001DDC                     u6751:
  2904  001DDC  EF09  F00F         	goto	l5748
  2905  001DE0                     u6750:
  2906  001DE0                     
  2907                           ; BSR set to: 0
  2908                           ;E:\MPLAB\xc8\pic\sources\c99\common\doprnt.c: 761:                 ct[2] = tolower((int
      +                          )(*fmt)[2]);
  2909  001DE0  C0BE  FFD9         	movff	vfpfcnvrt@fmt,fsr2l
  2910  001DE4  C0BF  FFDA         	movff	vfpfcnvrt@fmt+1,fsr2h
  2911  001DE8  CFDE F0C2          	movff	postinc2,??_vfpfcnvrt
  2912  001DEC  CFDD F0C3          	movff	postdec2,??_vfpfcnvrt+1
  2913  001DF0  0E02               	movlw	2
  2914  001DF2  27C2               	addwf	??_vfpfcnvrt& (0+255),f,b
  2915  001DF4  0E00               	movlw	0
  2916  001DF6  23C3               	addwfc	(??_vfpfcnvrt+1)& (0+255),f,b
  2917  001DF8  C0C2  FFF6         	movff	??_vfpfcnvrt,tblptrl
  2918  001DFC  C0C3  FFF7         	movff	??_vfpfcnvrt+1,tblptrh
  2919  001E00                     	if	0	;tblptru may be non-zero
  2920  001E00                     	endif
  2921  001E00                     	if	0	;tblptru may be non-zero
  2922  001E00                     	endif
  2923  001E00  0008               	tblrd		*
  2924  001E02  50F5               	movf	tablat,w,c
  2925  001E04  6E10               	movwf	tolower@c^0,c
  2926  001E06  6A11               	clrf	(tolower@c+1)^0,c
  2927  001E08  EC17  F021         	call	_tolower	;wreg free
  2928  001E0C  5010               	movf	?_tolower^0,w,c
  2929  001E0E  0100               	movlb	0	; () banked
  2930  001E10  6FD4               	movwf	(vfpfcnvrt@ct+2)& (0+255),b
  2931  001E12                     l5748:
  2932                           
  2933                           ; BSR set to: 0
  2934                           ;E:\MPLAB\xc8\pic\sources\c99\common\doprnt.c: 825:         if ((*fmt[0] == 'd') || (*fm
      +                          t[0] == 'i')) {
  2935  001E12  C0BE  FFD9         	movff	vfpfcnvrt@fmt,fsr2l
  2936  001E16  C0BF  FFDA         	movff	vfpfcnvrt@fmt+1,fsr2h
  2937  001E1A  CFDE FFF6          	movff	postinc2,tblptrl
  2938  001E1E  CFDD FFF7          	movff	postdec2,tblptrh
  2939  001E22                     	if	0	;tblptru may be non-zero
  2940  001E22                     	endif
  2941  001E22                     	if	0	;tblptru may be non-zero
  2942  001E22                     	endif
  2943  001E22  0008               	tblrd		*
  2944  001E24  50F5               	movf	tablat,w,c
  2945  001E26  0A64               	xorlw	100
  2946  001E28  B4D8               	btfsc	status,2,c
  2947  001E2A  EF19  F00F         	goto	u6761
  2948  001E2E  EF1B  F00F         	goto	u6760
  2949  001E32                     u6761:
  2950  001E32  EF2D  F00F         	goto	l5752
  2951  001E36                     u6760:
  2952  001E36                     
  2953                           ; BSR set to: 0
  2954  001E36  C0BE  FFD9         	movff	vfpfcnvrt@fmt,fsr2l
  2955  001E3A  C0BF  FFDA         	movff	vfpfcnvrt@fmt+1,fsr2h
  2956  001E3E  CFDE FFF6          	movff	postinc2,tblptrl
  2957  001E42  CFDD FFF7          	movff	postdec2,tblptrh
  2958  001E46                     	if	0	;tblptru may be non-zero
  2959  001E46                     	endif
  2960  001E46                     	if	0	;tblptru may be non-zero
  2961  001E46                     	endif
  2962  001E46  0008               	tblrd		*
  2963  001E48  50F5               	movf	tablat,w,c
  2964  001E4A  0A69               	xorlw	105
  2965  001E4C  A4D8               	btfss	status,2,c
  2966  001E4E  EF2B  F00F         	goto	u6771
  2967  001E52  EF2D  F00F         	goto	u6770
  2968  001E56                     u6771:
  2969  001E56  EF6D  F00F         	goto	l5758
  2970  001E5A                     u6770:
  2971  001E5A                     l5752:
  2972                           
  2973                           ; BSR set to: 0
  2974                           ;E:\MPLAB\xc8\pic\sources\c99\common\doprnt.c: 827:             ++*fmt;
  2975  001E5A  C0BE  FFD9         	movff	vfpfcnvrt@fmt,fsr2l
  2976  001E5E  C0BF  FFDA         	movff	vfpfcnvrt@fmt+1,fsr2h
  2977  001E62  2ADE               	incf	postinc2,f,c
  2978  001E64  0E00               	movlw	0
  2979  001E66  22DD               	addwfc	postdec2,f,c
  2980                           
  2981                           ;E:\MPLAB\xc8\pic\sources\c99\common\doprnt.c: 828:             ll = (long long)(*(int *
      +                          )__va_arg(*(int **)ap, (int)0));
  2982  001E68  C0C0  FFD9         	movff	vfpfcnvrt@ap,fsr2l
  2983  001E6C  C0C1  FFDA         	movff	vfpfcnvrt@ap+1,fsr2h
  2984  001E70  CFDF F0C2          	movff	indf2,??_vfpfcnvrt
  2985  001E74  0E02               	movlw	2
  2986  001E76  26DE               	addwf	postinc2,f,c
  2987  001E78  CFDF F0C3          	movff	indf2,??_vfpfcnvrt+1
  2988  001E7C  0E00               	movlw	0
  2989  001E7E  22DD               	addwfc	postdec2,f,c
  2990  001E80  C0C2  FFD9         	movff	??_vfpfcnvrt,fsr2l
  2991  001E84  C0C3  FFDA         	movff	??_vfpfcnvrt+1,fsr2h
  2992  001E88  CFDE F0C6          	movff	postinc2,vfpfcnvrt@ll
  2993  001E8C  CFDD F0C7          	movff	postdec2,vfpfcnvrt@ll+1
  2994  001E90  0E00               	movlw	0
  2995  001E92  BFC7               	btfsc	(vfpfcnvrt@ll+1)& (0+255),7,b
  2996  001E94  0EFF               	movlw	-1
  2997  001E96  6FC8               	movwf	(vfpfcnvrt@ll+2)& (0+255),b
  2998  001E98  6FC9               	movwf	(vfpfcnvrt@ll+3)& (0+255),b
  2999  001E9A  6FCA               	movwf	(vfpfcnvrt@ll+4)& (0+255),b
  3000  001E9C  6FCB               	movwf	(vfpfcnvrt@ll+5)& (0+255),b
  3001  001E9E  6FCC               	movwf	(vfpfcnvrt@ll+6)& (0+255),b
  3002  001EA0  6FCD               	movwf	(vfpfcnvrt@ll+7)& (0+255),b
  3003  001EA2                     
  3004                           ; BSR set to: 0
  3005                           ;E:\MPLAB\xc8\pic\sources\c99\common\doprnt.c: 830:             return dtoa(fp, ll);
  3006  001EA2  C0BC  F025         	movff	vfpfcnvrt@fp,dtoa@fp
  3007  001EA6  C0BD  F026         	movff	vfpfcnvrt@fp+1,dtoa@fp+1
  3008  001EAA  C0C6  F027         	movff	vfpfcnvrt@ll,dtoa@d
  3009  001EAE  C0C7  F028         	movff	vfpfcnvrt@ll+1,dtoa@d+1
  3010  001EB2  C0C8  F029         	movff	vfpfcnvrt@ll+2,dtoa@d+2
  3011  001EB6  C0C9  F02A         	movff	vfpfcnvrt@ll+3,dtoa@d+3
  3012  001EBA  C0CA  F02B         	movff	vfpfcnvrt@ll+4,dtoa@d+4
  3013  001EBE  C0CB  F02C         	movff	vfpfcnvrt@ll+5,dtoa@d+5
  3014  001EC2  C0CC  F02D         	movff	vfpfcnvrt@ll+6,dtoa@d+6
  3015  001EC6  C0CD  F02E         	movff	vfpfcnvrt@ll+7,dtoa@d+7
  3016  001ECA  ECE0  F016         	call	_dtoa	;wreg free
  3017  001ECE  C025  F0BC         	movff	?_dtoa,?_vfpfcnvrt
  3018  001ED2  C026  F0BD         	movff	?_dtoa+1,?_vfpfcnvrt+1
  3019  001ED6  EF9C  F010         	goto	l1083
  3020  001EDA                     l5758:
  3021                           
  3022                           ; BSR set to: 0
  3023                           ;E:\MPLAB\xc8\pic\sources\c99\common\doprnt.c: 920:         if (ct[0] == 'f') {
  3024  001EDA  0E66               	movlw	102
  3025  001EDC  19D2               	xorwf	vfpfcnvrt@ct& (0+255),w,b
  3026  001EDE  A4D8               	btfss	status,2,c
  3027  001EE0  EF74  F00F         	goto	u6781
  3028  001EE4  EF76  F00F         	goto	u6780
  3029  001EE8                     u6781:
  3030  001EE8  EFB6  F00F         	goto	l5770
  3031  001EEC                     u6780:
  3032  001EEC                     
  3033                           ; BSR set to: 0
  3034                           ;E:\MPLAB\xc8\pic\sources\c99\common\doprnt.c: 922:             c = (*fmt)[0];
  3035  001EEC  C0BE  FFD9         	movff	vfpfcnvrt@fmt,fsr2l
  3036  001EF0  C0BF  FFDA         	movff	vfpfcnvrt@fmt+1,fsr2h
  3037  001EF4  CFDE FFF6          	movff	postinc2,tblptrl
  3038  001EF8  CFDD FFF7          	movff	postdec2,tblptrh
  3039  001EFC                     	if	0	;tblptru may be non-zero
  3040  001EFC                     	endif
  3041  001EFC                     	if	0	;tblptru may be non-zero
  3042  001EFC                     	endif
  3043  001EFC  0008               	tblrd		*
  3044  001EFE  CFF5 F0D9          	movff	tablat,vfpfcnvrt@c
  3045  001F02                     
  3046                           ; BSR set to: 0
  3047                           ;E:\MPLAB\xc8\pic\sources\c99\common\doprnt.c: 923:             ++*fmt;
  3048  001F02  C0BE  FFD9         	movff	vfpfcnvrt@fmt,fsr2l
  3049  001F06  C0BF  FFDA         	movff	vfpfcnvrt@fmt+1,fsr2h
  3050  001F0A  2ADE               	incf	postinc2,f,c
  3051  001F0C  0E00               	movlw	0
  3052  001F0E  22DD               	addwfc	postdec2,f,c
  3053  001F10                     
  3054                           ; BSR set to: 0
  3055                           ;E:\MPLAB\xc8\pic\sources\c99\common\doprnt.c: 924:             f = (long double)(*(doub
      +                          le *)__va_arg(*(double **)ap, (double)0));
  3056  001F10  C0C0  FFD9         	movff	vfpfcnvrt@ap,fsr2l
  3057  001F14  C0C1  FFDA         	movff	vfpfcnvrt@ap+1,fsr2h
  3058  001F18  CFDF F0C2          	movff	indf2,??_vfpfcnvrt
  3059  001F1C  0E04               	movlw	4
  3060  001F1E  26DE               	addwf	postinc2,f,c
  3061  001F20  CFDF F0C3          	movff	indf2,??_vfpfcnvrt+1
  3062  001F24  0E00               	movlw	0
  3063  001F26  22DD               	addwfc	postdec2,f,c
  3064  001F28  C0C2  FFD9         	movff	??_vfpfcnvrt,fsr2l
  3065  001F2C  C0C3  FFDA         	movff	??_vfpfcnvrt+1,fsr2h
  3066  001F30  CFDE F0D5          	movff	postinc2,vfpfcnvrt@f
  3067  001F34  CFDE F0D6          	movff	postinc2,vfpfcnvrt@f+1
  3068  001F38  CFDE F0D7          	movff	postinc2,vfpfcnvrt@f+2
  3069  001F3C  CFDE F0D8          	movff	postinc2,vfpfcnvrt@f+3
  3070  001F40                     l5766:
  3071                           
  3072                           ; BSR set to: 0
  3073                           ;E:\MPLAB\xc8\pic\sources\c99\common\doprnt.c: 926:             return efgtoa(fp, f, c);
  3074  001F40  C0BC  F07D         	movff	vfpfcnvrt@fp,efgtoa@fp
  3075  001F44  C0BD  F07E         	movff	vfpfcnvrt@fp+1,efgtoa@fp+1
  3076  001F48  C0D5  F07F         	movff	vfpfcnvrt@f,efgtoa@f
  3077  001F4C  C0D6  F080         	movff	vfpfcnvrt@f+1,efgtoa@f+1
  3078  001F50  C0D7  F081         	movff	vfpfcnvrt@f+2,efgtoa@f+2
  3079  001F54  C0D8  F082         	movff	vfpfcnvrt@f+3,efgtoa@f+3
  3080  001F58  C0D9  F083         	movff	vfpfcnvrt@c,efgtoa@c
  3081  001F5C  EC3C  F004         	call	_efgtoa	;wreg free
  3082  001F60  C07D  F0BC         	movff	?_efgtoa,?_vfpfcnvrt
  3083  001F64  C07E  F0BD         	movff	?_efgtoa+1,?_vfpfcnvrt+1
  3084  001F68  EF9C  F010         	goto	l1083
  3085  001F6C                     l5770:
  3086                           
  3087                           ; BSR set to: 0
  3088                           ;E:\MPLAB\xc8\pic\sources\c99\common\doprnt.c: 928:         if (!strncmp(ct, "lf", ((siz
      +                          eof("lf")/sizeof("lf"[0]))-1))) {
  3089  001F6C  0ED2               	movlw	low vfpfcnvrt@ct
  3090  001F6E  6E0A               	movwf	strncmp@_l^0,c
  3091  001F70  0E00               	movlw	high vfpfcnvrt@ct
  3092  001F72  6E0B               	movwf	(strncmp@_l+1)^0,c
  3093  001F74  0E72               	movlw	low STR_27
  3094  001F76  6E0C               	movwf	strncmp@_r^0,c
  3095  001F78  0E08               	movlw	high STR_27
  3096  001F7A  6E0D               	movwf	(strncmp@_r+1)^0,c
  3097  001F7C  0E00               	movlw	0
  3098  001F7E  6E0F               	movwf	(strncmp@n+1)^0,c
  3099  001F80  0E02               	movlw	2
  3100  001F82  6E0E               	movwf	strncmp@n^0,c
  3101  001F84  EC6D  F01E         	call	_strncmp	;wreg free
  3102  001F88  500A               	movf	?_strncmp^0,w,c
  3103  001F8A  100B               	iorwf	(?_strncmp+1)^0,w,c
  3104  001F8C  A4D8               	btfss	status,2,c
  3105  001F8E  EFCB  F00F         	goto	u6791
  3106  001F92  EFCD  F00F         	goto	u6790
  3107  001F96                     u6791:
  3108  001F96  EF49  F010         	goto	l5786
  3109  001F9A                     u6790:
  3110  001F9A                     
  3111                           ;E:\MPLAB\xc8\pic\sources\c99\common\doprnt.c: 931:             if ((0 ? isupper((int)(*
      +                          fmt)[0]) : ((unsigned)((int)(*fmt)[0])-'A') < 26)) {
  3112  001F9A  C0BE  FFD9         	movff	vfpfcnvrt@fmt,fsr2l
  3113  001F9E  C0BF  FFDA         	movff	vfpfcnvrt@fmt+1,fsr2h
  3114  001FA2  CFDE F0C2          	movff	postinc2,??_vfpfcnvrt
  3115  001FA6  CFDD F0C3          	movff	postdec2,??_vfpfcnvrt+1
  3116  001FAA  0E01               	movlw	1
  3117  001FAC  0100               	movlb	0	; () banked
  3118  001FAE  27C2               	addwf	??_vfpfcnvrt& (0+255),f,b
  3119  001FB0  0E00               	movlw	0
  3120  001FB2  23C3               	addwfc	(??_vfpfcnvrt+1)& (0+255),f,b
  3121  001FB4  C0C2  FFF6         	movff	??_vfpfcnvrt,tblptrl
  3122  001FB8  C0C3  FFF7         	movff	??_vfpfcnvrt+1,tblptrh
  3123  001FBC                     	if	0	;tblptru may be non-zero
  3124  001FBC                     	endif
  3125  001FBC                     	if	0	;tblptru may be non-zero
  3126  001FBC                     	endif
  3127  001FBC  0008               	tblrd		*
  3128  001FBE  CFF5 F0D9          	movff	tablat,vfpfcnvrt@c
  3129  001FC2  0EBF               	movlw	191
  3130  001FC4  6FC2               	movwf	??_vfpfcnvrt& (0+255),b
  3131  001FC6  0EFF               	movlw	255
  3132  001FC8  6FC3               	movwf	(??_vfpfcnvrt+1)& (0+255),b
  3133  001FCA  C0BE  FFD9         	movff	vfpfcnvrt@fmt,fsr2l
  3134  001FCE  C0BF  FFDA         	movff	vfpfcnvrt@fmt+1,fsr2h
  3135  001FD2  CFDE FFF6          	movff	postinc2,tblptrl
  3136  001FD6  CFDD FFF7          	movff	postdec2,tblptrh
  3137  001FDA                     	if	0	;tblptru may be non-zero
  3138  001FDA                     	endif
  3139  001FDA                     	if	0	;tblptru may be non-zero
  3140  001FDA                     	endif
  3141  001FDA  0008               	tblrd		*
  3142  001FDC  50F5               	movf	tablat,w,c
  3143  001FDE  6FC4               	movwf	(??_vfpfcnvrt+2)& (0+255),b
  3144  001FE0  6BC5               	clrf	(??_vfpfcnvrt+3)& (0+255),b
  3145  001FE2  51C2               	movf	??_vfpfcnvrt& (0+255),w,b
  3146  001FE4  27C4               	addwf	(??_vfpfcnvrt+2)& (0+255),f,b
  3147  001FE6  51C3               	movf	(??_vfpfcnvrt+1)& (0+255),w,b
  3148  001FE8  23C5               	addwfc	(??_vfpfcnvrt+3)& (0+255),f,b
  3149  001FEA  51C5               	movf	(??_vfpfcnvrt+3)& (0+255),w,b
  3150  001FEC  E10A               	bnz	u6800
  3151  001FEE  0E1A               	movlw	26
  3152  001FF0  5DC4               	subwf	(??_vfpfcnvrt+2)& (0+255),w,b
  3153  001FF2  A0D8               	btfss	status,0,c
  3154  001FF4  EFFE  F00F         	goto	u6801
  3155  001FF8  EF01  F010         	goto	u6800
  3156  001FFC                     u6801:
  3157  001FFC  0E01               	movlw	1
  3158  001FFE  EF02  F010         	goto	u6810
  3159  002002                     u6800:
  3160  002002  0E00               	movlw	0
  3161  002004                     u6810:
  3162  002004  6FD0               	movwf	_vfpfcnvrt$1379& (0+255),b
  3163  002006  6BD1               	clrf	(_vfpfcnvrt$1379+1)& (0+255),b
  3164  002008                     
  3165                           ; BSR set to: 0
  3166  002008  51D0               	movf	_vfpfcnvrt$1379& (0+255),w,b
  3167  00200A  11D1               	iorwf	(_vfpfcnvrt$1379+1)& (0+255),w,b
  3168  00200C  B4D8               	btfsc	status,2,c
  3169  00200E  EF0B  F010         	goto	u6821
  3170  002012  EF0D  F010         	goto	u6820
  3171  002016                     u6821:
  3172  002016  EF27  F010         	goto	l5780
  3173  00201A                     u6820:
  3174  00201A                     
  3175                           ; BSR set to: 0
  3176                           ;E:\MPLAB\xc8\pic\sources\c99\common\doprnt.c: 932:                 f = (*(long double *
      +                          )__va_arg(*(long double **)ap, (long double)0));
  3177  00201A  C0C0  FFD9         	movff	vfpfcnvrt@ap,fsr2l
  3178  00201E  C0C1  FFDA         	movff	vfpfcnvrt@ap+1,fsr2h
  3179  002022  CFDF F0C2          	movff	indf2,??_vfpfcnvrt
  3180  002026  0E04               	movlw	4
  3181  002028  26DE               	addwf	postinc2,f,c
  3182  00202A  CFDF F0C3          	movff	indf2,??_vfpfcnvrt+1
  3183  00202E  0E00               	movlw	0
  3184  002030  22DD               	addwfc	postdec2,f,c
  3185  002032  C0C2  FFD9         	movff	??_vfpfcnvrt,fsr2l
  3186  002036  C0C3  FFDA         	movff	??_vfpfcnvrt+1,fsr2h
  3187  00203A  CFDE F0D5          	movff	postinc2,vfpfcnvrt@f
  3188  00203E  CFDE F0D6          	movff	postinc2,vfpfcnvrt@f+1
  3189  002042  CFDE F0D7          	movff	postinc2,vfpfcnvrt@f+2
  3190  002046  CFDE F0D8          	movff	postinc2,vfpfcnvrt@f+3
  3191                           
  3192                           ;E:\MPLAB\xc8\pic\sources\c99\common\doprnt.c: 933:             } else {
  3193  00204A  EF3F  F010         	goto	l1091
  3194  00204E                     l5780:
  3195                           
  3196                           ; BSR set to: 0
  3197                           ;E:\MPLAB\xc8\pic\sources\c99\common\doprnt.c: 934:                 f = (long double)(*(
      +                          double *)__va_arg(*(double **)ap, (double)0));
  3198  00204E  C0C0  FFD9         	movff	vfpfcnvrt@ap,fsr2l
  3199  002052  C0C1  FFDA         	movff	vfpfcnvrt@ap+1,fsr2h
  3200  002056  CFDF F0C2          	movff	indf2,??_vfpfcnvrt
  3201  00205A  0E04               	movlw	4
  3202  00205C  26DE               	addwf	postinc2,f,c
  3203  00205E  CFDF F0C3          	movff	indf2,??_vfpfcnvrt+1
  3204  002062  0E00               	movlw	0
  3205  002064  22DD               	addwfc	postdec2,f,c
  3206  002066  C0C2  FFD9         	movff	??_vfpfcnvrt,fsr2l
  3207  00206A  C0C3  FFDA         	movff	??_vfpfcnvrt+1,fsr2h
  3208  00206E  CFDE F0D5          	movff	postinc2,vfpfcnvrt@f
  3209  002072  CFDE F0D6          	movff	postinc2,vfpfcnvrt@f+1
  3210  002076  CFDE F0D7          	movff	postinc2,vfpfcnvrt@f+2
  3211  00207A  CFDE F0D8          	movff	postinc2,vfpfcnvrt@f+3
  3212  00207E                     l1091:
  3213                           
  3214                           ; BSR set to: 0
  3215                           ;E:\MPLAB\xc8\pic\sources\c99\common\doprnt.c: 936:             *fmt += ((sizeof("lf")/s
      +                          izeof("lf"[0]))-1);
  3216  00207E  0E02               	movlw	2
  3217  002080  C0BE  FFD9         	movff	vfpfcnvrt@fmt,fsr2l
  3218  002084  C0BF  FFDA         	movff	vfpfcnvrt@fmt+1,fsr2h
  3219  002088  26DE               	addwf	postinc2,f,c
  3220  00208A  0E00               	movlw	0
  3221  00208C  22DD               	addwfc	postdec2,f,c
  3222  00208E  EFA0  F00F         	goto	l5766
  3223  002092                     l5786:
  3224                           
  3225                           ;E:\MPLAB\xc8\pic\sources\c99\common\doprnt.c: 1350:         if ((*fmt)[0] == '%') {
  3226  002092  C0BE  FFD9         	movff	vfpfcnvrt@fmt,fsr2l
  3227  002096  C0BF  FFDA         	movff	vfpfcnvrt@fmt+1,fsr2h
  3228  00209A  CFDE FFF6          	movff	postinc2,tblptrl
  3229  00209E  CFDD FFF7          	movff	postdec2,tblptrh
  3230  0020A2                     	if	0	;tblptru may be non-zero
  3231  0020A2                     	endif
  3232  0020A2                     	if	0	;tblptru may be non-zero
  3233  0020A2                     	endif
  3234  0020A2  0008               	tblrd		*
  3235  0020A4  50F5               	movf	tablat,w,c
  3236  0020A6  0A25               	xorlw	37
  3237  0020A8  A4D8               	btfss	status,2,c
  3238  0020AA  EF59  F010         	goto	u6831
  3239  0020AE  EF5B  F010         	goto	u6830
  3240  0020B2                     u6831:
  3241  0020B2  EF73  F010         	goto	l5796
  3242  0020B6                     u6830:
  3243  0020B6                     
  3244                           ;E:\MPLAB\xc8\pic\sources\c99\common\doprnt.c: 1351:             ++*fmt;
  3245  0020B6  C0BE  FFD9         	movff	vfpfcnvrt@fmt,fsr2l
  3246  0020BA  C0BF  FFDA         	movff	vfpfcnvrt@fmt+1,fsr2h
  3247  0020BE  2ADE               	incf	postinc2,f,c
  3248  0020C0  0E00               	movlw	0
  3249  0020C2  22DD               	addwfc	postdec2,f,c
  3250  0020C4                     
  3251                           ;E:\MPLAB\xc8\pic\sources\c99\common\doprnt.c: 1352:             fputc((int)'%', fp);
  3252  0020C4  0E00               	movlw	0
  3253  0020C6  6E0B               	movwf	(fputc@c+1)^0,c
  3254  0020C8  0E25               	movlw	37
  3255  0020CA  6E0A               	movwf	fputc@c^0,c
  3256  0020CC  C0BC  F00C         	movff	vfpfcnvrt@fp,fputc@fp
  3257  0020D0  C0BD  F00D         	movff	vfpfcnvrt@fp+1,fputc@fp+1
  3258  0020D4  ECD8  F01E         	call	_fputc	;wreg free
  3259  0020D8                     l5792:
  3260                           
  3261                           ;E:\MPLAB\xc8\pic\sources\c99\common\doprnt.c: 1353:             return 1;
  3262  0020D8  0E00               	movlw	0
  3263  0020DA  0100               	movlb	0	; () banked
  3264  0020DC  6FBD               	movwf	(?_vfpfcnvrt+1)& (0+255),b
  3265  0020DE  0E01               	movlw	1
  3266  0020E0  6FBC               	movwf	?_vfpfcnvrt& (0+255),b
  3267  0020E2  EF9C  F010         	goto	l1083
  3268  0020E6                     l5796:
  3269                           
  3270                           ;E:\MPLAB\xc8\pic\sources\c99\common\doprnt.c: 1357:         ++*fmt;
  3271  0020E6  C0BE  FFD9         	movff	vfpfcnvrt@fmt,fsr2l
  3272  0020EA  C0BF  FFDA         	movff	vfpfcnvrt@fmt+1,fsr2h
  3273  0020EE  2ADE               	incf	postinc2,f,c
  3274  0020F0  0E00               	movlw	0
  3275  0020F2  22DD               	addwfc	postdec2,f,c
  3276  0020F4                     
  3277                           ;E:\MPLAB\xc8\pic\sources\c99\common\doprnt.c: 1358:         return 0;
  3278  0020F4  0E00               	movlw	0
  3279  0020F6  0100               	movlb	0	; () banked
  3280  0020F8  6FBD               	movwf	(?_vfpfcnvrt+1)& (0+255),b
  3281  0020FA  0E00               	movlw	0
  3282  0020FC  6FBC               	movwf	?_vfpfcnvrt& (0+255),b
  3283  0020FE  EF9C  F010         	goto	l1083
  3284  002102                     l5802:
  3285                           
  3286                           ;E:\MPLAB\xc8\pic\sources\c99\common\doprnt.c: 1362:     fputc((int)(*fmt)[0], fp);
  3287  002102  C0BE  FFD9         	movff	vfpfcnvrt@fmt,fsr2l
  3288  002106  C0BF  FFDA         	movff	vfpfcnvrt@fmt+1,fsr2h
  3289  00210A  CFDE FFF6          	movff	postinc2,tblptrl
  3290  00210E  CFDD FFF7          	movff	postdec2,tblptrh
  3291  002112                     	if	0	;tblptru may be non-zero
  3292  002112                     	endif
  3293  002112                     	if	0	;tblptru may be non-zero
  3294  002112                     	endif
  3295  002112  0008               	tblrd		*
  3296  002114  50F5               	movf	tablat,w,c
  3297  002116  6E0A               	movwf	fputc@c^0,c
  3298  002118  6A0B               	clrf	(fputc@c+1)^0,c
  3299  00211A  C0BC  F00C         	movff	vfpfcnvrt@fp,fputc@fp
  3300  00211E  C0BD  F00D         	movff	vfpfcnvrt@fp+1,fputc@fp+1
  3301  002122  ECD8  F01E         	call	_fputc	;wreg free
  3302  002126                     
  3303                           ;E:\MPLAB\xc8\pic\sources\c99\common\doprnt.c: 1363:     ++*fmt;
  3304  002126  C0BE  FFD9         	movff	vfpfcnvrt@fmt,fsr2l
  3305  00212A  C0BF  FFDA         	movff	vfpfcnvrt@fmt+1,fsr2h
  3306  00212E  2ADE               	incf	postinc2,f,c
  3307  002130  0E00               	movlw	0
  3308  002132  22DD               	addwfc	postdec2,f,c
  3309  002134  EF6C  F010         	goto	l5792
  3310  002138                     l1083:
  3311  002138  0012               	return		;funcret
  3312  00213A                     __end_of_vfpfcnvrt:
  3313                           	callstack 0
  3314                           
  3315 ;; *************** function _strncmp *****************
  3316 ;; Defined at:
  3317 ;;		line 3 in file "E:\MPLAB\xc8\pic\sources\c99\common\strncmp.c"
  3318 ;; Parameters:    Size  Location     Type
  3319 ;;  _l              2    9[COMRAM] PTR const unsigned char 
  3320 ;;		 -> vfpfcnvrt@ct(3), 
  3321 ;;  _r              2   11[COMRAM] PTR const unsigned char 
  3322 ;;		 -> STR_29(3), 
  3323 ;;  n               2   13[COMRAM] unsigned int 
  3324 ;; Auto vars:     Size  Location     Type
  3325 ;;  r               2   18[COMRAM] PTR const unsigned char 
  3326 ;;		 -> STR_29(3), 
  3327 ;;  l               2   16[COMRAM] PTR const unsigned char 
  3328 ;;		 -> vfpfcnvrt@ct(3), 
  3329 ;; Return value:  Size  Location     Type
  3330 ;;                  2    9[COMRAM] int 
  3331 ;; Registers used:
  3332 ;;		wreg, fsr2l, fsr2h, status,2, status,0, tblptrl, tblptrh, tblptru
  3333 ;; Tracked objects:
  3334 ;;		On entry : 0/0
  3335 ;;		On exit  : 0/0
  3336 ;;		Unchanged: 0/0
  3337 ;; Data sizes:     COMRAM   BANK0   BANK1   BANK2   BANK3   BANK4   BANK5   BANK6   BANK7
  3338 ;;      Params:         6       0       0       0       0       0       0       0       0
  3339 ;;      Locals:         4       0       0       0       0       0       0       0       0
  3340 ;;      Temps:          1       0       0       0       0       0       0       0       0
  3341 ;;      Totals:        11       0       0       0       0       0       0       0       0
  3342 ;;Total ram usage:       11 bytes
  3343 ;; Hardware stack levels used:    1
  3344 ;; Hardware stack levels required when called:    2
  3345 ;; This function calls:
  3346 ;;		Nothing
  3347 ;; This function is called by:
  3348 ;;		_vfpfcnvrt
  3349 ;; This function uses a non-reentrant model
  3350 ;;
  3351                           
  3352                           	psect	text5
  3353  003CDA                     __ptext5:
  3354                           	callstack 0
  3355  003CDA                     _strncmp:
  3356                           	callstack 25
  3357  003CDA  C00A  F011         	movff	strncmp@_l,strncmp@l
  3358  003CDE  C00B  F012         	movff	strncmp@_l+1,strncmp@l+1
  3359  003CE2  C00C  F013         	movff	strncmp@_r,strncmp@r
  3360  003CE6  C00D  F014         	movff	strncmp@_r+1,strncmp@r+1
  3361  003CEA  060E               	decf	strncmp@n^0,f,c
  3362  003CEC  A0D8               	btfss	status,0,c
  3363  003CEE  060F               	decf	(strncmp@n+1)^0,f,c
  3364  003CF0  280E               	incf	strncmp@n^0,w,c
  3365  003CF2  E106               	bnz	u5331
  3366  003CF4  280F               	incf	(strncmp@n+1)^0,w,c
  3367  003CF6  A4D8               	btfss	status,2,c
  3368  003CF8  EF80  F01E         	goto	u5331
  3369  003CFC  EF82  F01E         	goto	u5330
  3370  003D00                     u5331:
  3371  003D00  EF8F  F01E         	goto	l4554
  3372  003D04                     u5330:
  3373  003D04  0E00               	movlw	0
  3374  003D06  6E0B               	movwf	(?_strncmp+1)^0,c
  3375  003D08  0E00               	movlw	0
  3376  003D0A  6E0A               	movwf	?_strncmp^0,c
  3377  003D0C  EFD7  F01E         	goto	l1226
  3378  003D10                     l4552:
  3379  003D10  4A11               	infsnz	strncmp@l^0,f,c
  3380  003D12  2A12               	incf	(strncmp@l+1)^0,f,c
  3381  003D14  4A13               	infsnz	strncmp@r^0,f,c
  3382  003D16  2A14               	incf	(strncmp@r+1)^0,f,c
  3383  003D18  060E               	decf	strncmp@n^0,f,c
  3384  003D1A  A0D8               	btfss	status,0,c
  3385  003D1C  060F               	decf	(strncmp@n+1)^0,f,c
  3386  003D1E                     l4554:
  3387  003D1E  C011  FFD9         	movff	strncmp@l,fsr2l
  3388  003D22  C012  FFDA         	movff	strncmp@l+1,fsr2h
  3389  003D26  50DF               	movf	indf2,w,c
  3390  003D28  B4D8               	btfsc	status,2,c
  3391  003D2A  EF99  F01E         	goto	u5341
  3392  003D2E  EF9B  F01E         	goto	u5340
  3393  003D32                     u5341:
  3394  003D32  EFC6  F01E         	goto	l4562
  3395  003D36                     u5340:
  3396  003D36  C013  FFF6         	movff	strncmp@r,tblptrl
  3397  003D3A  C014  FFF7         	movff	strncmp@r+1,tblptrh
  3398  003D3E                     	if	0	;tblptru may be non-zero
  3399  003D3E                     	endif
  3400  003D3E                     	if	0	;tblptru may be non-zero
  3401  003D3E                     	endif
  3402  003D3E  0008               	tblrd		*
  3403  003D40  50F5               	movf	tablat,w,c
  3404  003D42  0900               	iorlw	0
  3405  003D44  B4D8               	btfsc	status,2,c
  3406  003D46  EFA7  F01E         	goto	u5351
  3407  003D4A  EFA9  F01E         	goto	u5350
  3408  003D4E                     u5351:
  3409  003D4E  EFC6  F01E         	goto	l4562
  3410  003D52                     u5350:
  3411  003D52  500E               	movf	strncmp@n^0,w,c
  3412  003D54  100F               	iorwf	(strncmp@n+1)^0,w,c
  3413  003D56  B4D8               	btfsc	status,2,c
  3414  003D58  EFB0  F01E         	goto	u5361
  3415  003D5C  EFB2  F01E         	goto	u5360
  3416  003D60                     u5361:
  3417  003D60  EFC6  F01E         	goto	l4562
  3418  003D64                     u5360:
  3419  003D64  C011  FFD9         	movff	strncmp@l,fsr2l
  3420  003D68  C012  FFDA         	movff	strncmp@l+1,fsr2h
  3421  003D6C  50DF               	movf	indf2,w,c
  3422  003D6E  6E10               	movwf	??_strncmp^0,c
  3423  003D70  C013  FFF6         	movff	strncmp@r,tblptrl
  3424  003D74  C014  FFF7         	movff	strncmp@r+1,tblptrh
  3425  003D78                     	if	0	;tblptru may be non-zero
  3426  003D78                     	endif
  3427  003D78                     	if	0	;tblptru may be non-zero
  3428  003D78                     	endif
  3429  003D78  0008               	tblrd		*
  3430  003D7A  50F5               	movf	tablat,w,c
  3431  003D7C  1810               	xorwf	??_strncmp^0,w,c
  3432  003D7E  B4D8               	btfsc	status,2,c
  3433  003D80  EFC4  F01E         	goto	u5371
  3434  003D84  EFC6  F01E         	goto	u5370
  3435  003D88                     u5371:
  3436  003D88  EF88  F01E         	goto	l4552
  3437  003D8C                     u5370:
  3438  003D8C                     l4562:
  3439  003D8C  C011  FFD9         	movff	strncmp@l,fsr2l
  3440  003D90  C012  FFDA         	movff	strncmp@l+1,fsr2h
  3441  003D94  50DF               	movf	indf2,w,c
  3442  003D96  6E10               	movwf	??_strncmp^0,c
  3443  003D98  C013  FFF6         	movff	strncmp@r,tblptrl
  3444  003D9C  C014  FFF7         	movff	strncmp@r+1,tblptrh
  3445  003DA0                     	if	0	;tblptru may be non-zero
  3446  003DA0                     	endif
  3447  003DA0                     	if	0	;tblptru may be non-zero
  3448  003DA0                     	endif
  3449  003DA0  0008               	tblrd		*
  3450  003DA2  50F5               	movf	tablat,w,c
  3451  003DA4  5C10               	subwf	??_strncmp^0,w,c
  3452  003DA6  6E0A               	movwf	?_strncmp^0,c
  3453  003DA8  6A0B               	clrf	(?_strncmp+1)^0,c
  3454  003DAA  A0D8               	btfss	status,0,c
  3455  003DAC  060B               	decf	(?_strncmp+1)^0,f,c
  3456  003DAE                     l1226:
  3457  003DAE  0012               	return		;funcret
  3458  003DB0                     __end_of_strncmp:
  3459                           	callstack 0
  3460                           
  3461 ;; *************** function _efgtoa *****************
  3462 ;; Defined at:
  3463 ;;		line 319 in file "E:\MPLAB\xc8\pic\sources\c99\common\doprnt.c"
  3464 ;; Parameters:    Size  Location     Type
  3465 ;;  fp              2   29[BANK0 ] PTR struct _IO_FILE
  3466 ;;		 -> sprintf@f(6), 
  3467 ;;  f               4   31[BANK0 ] PTR struct _IO_FILE
  3468 ;;  c               1   35[BANK0 ] unsigned char 
  3469 ;; Auto vars:     Size  Location     Type
  3470 ;;  u               4   88[BANK0 ] unsigned char 
  3471 ;;  g               4   80[BANK0 ] unsigned char 
  3472 ;;  l               4   74[BANK0 ] unsigned char 
  3473 ;;  h               4   70[BANK0 ] unsigned char 
  3474 ;;  ou              4   36[BANK0 ] unsigned char 
  3475 ;;  n               2   86[BANK0 ] int 
  3476 ;;  e               2   84[BANK0 ] int 
  3477 ;;  i               2   78[BANK0 ] int 
  3478 ;;  w               2   67[BANK0 ] int 
  3479 ;;  p               2   64[BANK0 ] int 
  3480 ;;  sign            2   62[BANK0 ] int 
  3481 ;;  d               2   60[BANK0 ] int 
  3482 ;;  ne              2   58[BANK0 ] int 
  3483 ;;  m               2   56[BANK0 ] int 
  3484 ;;  pp              2   54[BANK0 ] int 
  3485 ;;  t               2   52[BANK0 ] int 
  3486 ;;  mode            1   69[BANK0 ] unsigned char 
  3487 ;;  nmode           1   66[BANK0 ] unsigned char 
  3488 ;; Return value:  Size  Location     Type
  3489 ;;                  2   29[BANK0 ] int 
  3490 ;; Registers used:
  3491 ;;		wreg, fsr1l, fsr1h, fsr2l, fsr2h, status,2, status,0, tblptrl, tblptrh, tblptru, prodl, prodh, cstack
  3492 ;; Tracked objects:
  3493 ;;		On entry : 0/0
  3494 ;;		On exit  : 0/0
  3495 ;;		Unchanged: 0/0
  3496 ;; Data sizes:     COMRAM   BANK0   BANK1   BANK2   BANK3   BANK4   BANK5   BANK6   BANK7
  3497 ;;      Params:         0       7       0       0       0       0       0       0       0
  3498 ;;      Locals:         0      56       0       0       0       0       0       0       0
  3499 ;;      Temps:          5       0       0       0       0       0       0       0       0
  3500 ;;      Totals:         5      63       0       0       0       0       0       0       0
  3501 ;;Total ram usage:       68 bytes
  3502 ;; Hardware stack levels used:    1
  3503 ;; Hardware stack levels required when called:    6
  3504 ;; This function calls:
  3505 ;;		___awdiv
  3506 ;;		___awmod
  3507 ;;		___fladd
  3508 ;;		___fldiv
  3509 ;;		___fleq
  3510 ;;		___flge
  3511 ;;		___flmul
  3512 ;;		___flneg
  3513 ;;		___flsub
  3514 ;;		___fltol
  3515 ;;		___fpclassifyf
  3516 ;;		_floorf
  3517 ;;		_isupper
  3518 ;;		_pad
  3519 ;;		_strcpy
  3520 ;;		_tolower
  3521 ;; This function is called by:
  3522 ;;		_vfpfcnvrt
  3523 ;; This function uses a non-reentrant model
  3524 ;;
  3525                           
  3526                           	psect	text6
  3527  000878                     __ptext6:
  3528                           	callstack 0
  3529  000878                     _efgtoa:
  3530                           	callstack 21
  3531  000878                     
  3532                           ;E:\MPLAB\xc8\pic\sources\c99\common\doprnt.c: 319: static int efgtoa(FILE *fp, long dou
      +                          ble f, char c);E:\MPLAB\xc8\pic\sources\c99\common\doprnt.c: 320: {;E:\MPLAB\xc8\pic\sou
      +                          rces\c99\common\doprnt.c: 321:     char mode, nmode;;E:\MPLAB\xc8\pic\sources\c99\common
      +                          \doprnt.c: 322:     int d, e, i, m, n, ne, p, pp, sign, t, w;;E:\MPLAB\xc8\pic\sources\c
      +                          99\common\doprnt.c: 323:     long double g, h, l, ou, u;;E:\MPLAB\xc8\pic\sources\c99\co
      +                          mmon\doprnt.c: 326:     sign = 0;
  3533  000878  0E00               	movlw	0
  3534  00087A  0100               	movlb	0	; () banked
  3535  00087C  6F9F               	movwf	(efgtoa@sign+1)& (0+255),b
  3536  00087E  0E00               	movlw	0
  3537  000880  6F9E               	movwf	efgtoa@sign& (0+255),b
  3538  000882                     
  3539                           ; BSR set to: 0
  3540                           ;E:\MPLAB\xc8\pic\sources\c99\common\doprnt.c: 327:     g = f;
  3541  000882  C07F  F0B0         	movff	efgtoa@f,efgtoa@g
  3542  000886  C080  F0B1         	movff	efgtoa@f+1,efgtoa@g+1
  3543  00088A  C081  F0B2         	movff	efgtoa@f+2,efgtoa@g+2
  3544  00088E  C082  F0B3         	movff	efgtoa@f+3,efgtoa@g+3
  3545  000892                     
  3546                           ; BSR set to: 0
  3547                           ;E:\MPLAB\xc8\pic\sources\c99\common\doprnt.c: 328:     if (g < 0.0) {
  3548  000892  BFB3               	btfsc	(efgtoa@g+3)& (0+255),7,b
  3549  000894  EF50  F004         	goto	u6160
  3550  000898  EF4E  F004         	goto	u6161
  3551  00089C                     u6161:
  3552  00089C  EF66  F004         	goto	l5422
  3553  0008A0                     u6160:
  3554  0008A0                     
  3555                           ; BSR set to: 0
  3556                           ;E:\MPLAB\xc8\pic\sources\c99\common\doprnt.c: 329:         sign = 1;
  3557  0008A0  0E00               	movlw	0
  3558  0008A2  6F9F               	movwf	(efgtoa@sign+1)& (0+255),b
  3559  0008A4  0E01               	movlw	1
  3560  0008A6  6F9E               	movwf	efgtoa@sign& (0+255),b
  3561  0008A8                     
  3562                           ; BSR set to: 0
  3563                           ;E:\MPLAB\xc8\pic\sources\c99\common\doprnt.c: 330:         g = -g;
  3564  0008A8  C0B0  F00A         	movff	efgtoa@g,___flneg@f1
  3565  0008AC  C0B1  F00B         	movff	efgtoa@g+1,___flneg@f1+1
  3566  0008B0  C0B2  F00C         	movff	efgtoa@g+2,___flneg@f1+2
  3567  0008B4  C0B3  F00D         	movff	efgtoa@g+3,___flneg@f1+3
  3568  0008B8  ECF8  F022         	call	___flneg	;wreg free
  3569  0008BC  C00A  F0B0         	movff	?___flneg,efgtoa@g
  3570  0008C0  C00B  F0B1         	movff	?___flneg+1,efgtoa@g+1
  3571  0008C4  C00C  F0B2         	movff	?___flneg+2,efgtoa@g+2
  3572  0008C8  C00D  F0B3         	movff	?___flneg+3,efgtoa@g+3
  3573  0008CC                     l5422:
  3574                           
  3575                           ;E:\MPLAB\xc8\pic\sources\c99\common\doprnt.c: 334:     n = 0;
  3576  0008CC  0E00               	movlw	0
  3577  0008CE  0100               	movlb	0	; () banked
  3578  0008D0  6FB7               	movwf	(efgtoa@n+1)& (0+255),b
  3579  0008D2  0E00               	movlw	0
  3580  0008D4  6FB6               	movwf	efgtoa@n& (0+255),b
  3581  0008D6                     
  3582                           ; BSR set to: 0
  3583                           ;E:\MPLAB\xc8\pic\sources\c99\common\doprnt.c: 335:     w = width;
  3584  0008D6  C04E  F0A3         	movff	_width,efgtoa@w
  3585  0008DA  C04F  F0A4         	movff	_width+1,efgtoa@w+1
  3586  0008DE                     
  3587                           ; BSR set to: 0
  3588                           ;E:\MPLAB\xc8\pic\sources\c99\common\doprnt.c: 336:     if (sign || (flags & (1 << 2))) 
      +                          {
  3589  0008DE  519E               	movf	efgtoa@sign& (0+255),w,b
  3590  0008E0  119F               	iorwf	(efgtoa@sign+1)& (0+255),w,b
  3591  0008E2  A4D8               	btfss	status,2,c
  3592  0008E4  EF76  F004         	goto	u6171
  3593  0008E8  EF78  F004         	goto	u6170
  3594  0008EC                     u6171:
  3595  0008EC  EF7F  F004         	goto	l5430
  3596  0008F0                     u6170:
  3597  0008F0                     
  3598                           ; BSR set to: 0
  3599  0008F0  A452               	btfss	_flags^0,2,c
  3600  0008F2  EF7D  F004         	goto	u6181
  3601  0008F6  EF7F  F004         	goto	u6180
  3602  0008FA                     u6181:
  3603  0008FA  EF99  F004         	goto	l5442
  3604  0008FE                     u6180:
  3605  0008FE                     l5430:
  3606                           
  3607                           ; BSR set to: 0
  3608                           ;E:\MPLAB\xc8\pic\sources\c99\common\doprnt.c: 337:         dbuf[n] = sign ? '-' : '+';
  3609  0008FE  519E               	movf	efgtoa@sign& (0+255),w,b
  3610  000900  119F               	iorwf	(efgtoa@sign+1)& (0+255),w,b
  3611  000902  A4D8               	btfss	status,2,c
  3612  000904  EF86  F004         	goto	u6191
  3613  000908  EF88  F004         	goto	u6190
  3614  00090C                     u6191:
  3615  00090C  EF8E  F004         	goto	l5434
  3616  000910                     u6190:
  3617  000910                     
  3618                           ; BSR set to: 0
  3619  000910  0E00               	movlw	0
  3620  000912  6F89               	movwf	(_efgtoa$1349+1)& (0+255),b
  3621  000914  0E2B               	movlw	43
  3622  000916  6F88               	movwf	_efgtoa$1349& (0+255),b
  3623  000918  EF92  F004         	goto	l5436
  3624  00091C                     l5434:
  3625                           
  3626                           ; BSR set to: 0
  3627  00091C  0E00               	movlw	0
  3628  00091E  6F89               	movwf	(_efgtoa$1349+1)& (0+255),b
  3629  000920  0E2D               	movlw	45
  3630  000922  6F88               	movwf	_efgtoa$1349& (0+255),b
  3631  000924                     l5436:
  3632                           
  3633                           ; BSR set to: 0
  3634  000924  C088  F172         	movff	_efgtoa$1349,_dbuf
  3635  000928                     
  3636                           ; BSR set to: 0
  3637                           ;E:\MPLAB\xc8\pic\sources\c99\common\doprnt.c: 338:         ++n;
  3638  000928  4BB6               	infsnz	efgtoa@n& (0+255),f,b
  3639  00092A  2BB7               	incf	(efgtoa@n+1)& (0+255),f,b
  3640  00092C                     
  3641                           ; BSR set to: 0
  3642                           ;E:\MPLAB\xc8\pic\sources\c99\common\doprnt.c: 339:         --w;
  3643  00092C  07A3               	decf	efgtoa@w& (0+255),f,b
  3644  00092E  A0D8               	btfss	status,0,c
  3645  000930  07A4               	decf	(efgtoa@w+1)& (0+255),f,b
  3646  000932                     l5442:
  3647                           
  3648                           ; BSR set to: 0
  3649                           ;E:\MPLAB\xc8\pic\sources\c99\common\doprnt.c: 344:         if ((0 ? isupper((int)c) : (
      +                          (unsigned)((int)c)-'A') < 26)) {
  3650  000932  C0B0  F00A         	movff	efgtoa@g,___fpclassifyf@x
  3651  000936  C0B1  F00B         	movff	efgtoa@g+1,___fpclassifyf@x+1
  3652  00093A  C0B2  F00C         	movff	efgtoa@g+2,___fpclassifyf@x+2
  3653  00093E  C0B3  F00D         	movff	efgtoa@g+3,___fpclassifyf@x+3
  3654  000942  EC77  F01D         	call	___fpclassifyf	;wreg free
  3655  000946  040A               	decf	?___fpclassifyf^0,w,c
  3656  000948  100B               	iorwf	(?___fpclassifyf+1)^0,w,c
  3657  00094A  A4D8               	btfss	status,2,c
  3658  00094C  EFAA  F004         	goto	u6201
  3659  000950  EFAC  F004         	goto	u6200
  3660  000954                     u6201:
  3661  000954  EF03  F005         	goto	l5460
  3662  000958                     u6200:
  3663  000958  0EBF               	movlw	191
  3664  00095A  6E49               	movwf	??_efgtoa^0,c
  3665  00095C  0EFF               	movlw	255
  3666  00095E  6E4A               	movwf	(??_efgtoa+1)^0,c
  3667  000960  0100               	movlb	0	; () banked
  3668  000962  5183               	movf	efgtoa@c& (0+255),w,b
  3669  000964  6E4B               	movwf	(??_efgtoa+2)^0,c
  3670  000966  6A4C               	clrf	(??_efgtoa+3)^0,c
  3671  000968  5049               	movf	??_efgtoa^0,w,c
  3672  00096A  264B               	addwf	(??_efgtoa+2)^0,f,c
  3673  00096C  504A               	movf	(??_efgtoa+1)^0,w,c
  3674  00096E  224C               	addwfc	(??_efgtoa+3)^0,f,c
  3675  000970  504C               	movf	(??_efgtoa+3)^0,w,c
  3676  000972  E10A               	bnz	u6210
  3677  000974  0E1A               	movlw	26
  3678  000976  5C4B               	subwf	(??_efgtoa+2)^0,w,c
  3679  000978  A0D8               	btfss	status,0,c
  3680  00097A  EFC1  F004         	goto	u6211
  3681  00097E  EFC4  F004         	goto	u6210
  3682  000982                     u6211:
  3683  000982  0E01               	movlw	1
  3684  000984  EFC5  F004         	goto	u6220
  3685  000988                     u6210:
  3686  000988  0E00               	movlw	0
  3687  00098A                     u6220:
  3688  00098A  6F8A               	movwf	_efgtoa$1350& (0+255),b
  3689  00098C  6B8B               	clrf	(_efgtoa$1350+1)& (0+255),b
  3690  00098E                     
  3691                           ; BSR set to: 0
  3692  00098E  518A               	movf	_efgtoa$1350& (0+255),w,b
  3693  000990  118B               	iorwf	(_efgtoa$1350+1)& (0+255),w,b
  3694  000992  B4D8               	btfsc	status,2,c
  3695  000994  EFCE  F004         	goto	u6231
  3696  000998  EFD0  F004         	goto	u6230
  3697  00099C                     u6231:
  3698  00099C  EFDE  F004         	goto	l5452
  3699  0009A0                     u6230:
  3700  0009A0                     
  3701                           ; BSR set to: 0
  3702                           ;E:\MPLAB\xc8\pic\sources\c99\common\doprnt.c: 345:             strcpy(&dbuf[n], "INF");
  3703  0009A0  0E72               	movlw	low _dbuf
  3704  0009A2  25B6               	addwf	efgtoa@n& (0+255),w,b
  3705  0009A4  6E0E               	movwf	strcpy@dest^0,c
  3706  0009A6  0E01               	movlw	high _dbuf
  3707  0009A8  21B7               	addwfc	(efgtoa@n+1)& (0+255),w,b
  3708  0009AA  6E0F               	movwf	(strcpy@dest+1)^0,c
  3709  0009AC  0E5E               	movlw	low STR_19
  3710  0009AE  6E10               	movwf	strcpy@src^0,c
  3711  0009B0  0E08               	movlw	high STR_19
  3712  0009B2  6E11               	movwf	(strcpy@src+1)^0,c
  3713  0009B4  EC76  F021         	call	_strcpy	;wreg free
  3714                           
  3715                           ;E:\MPLAB\xc8\pic\sources\c99\common\doprnt.c: 346:         } else {
  3716  0009B8  EFEA  F004         	goto	l5454
  3717  0009BC                     l5452:
  3718                           
  3719                           ; BSR set to: 0
  3720                           ;E:\MPLAB\xc8\pic\sources\c99\common\doprnt.c: 347:             strcpy(&dbuf[n], "inf");
  3721  0009BC  0E72               	movlw	low _dbuf
  3722  0009BE  25B6               	addwf	efgtoa@n& (0+255),w,b
  3723  0009C0  6E0E               	movwf	strcpy@dest^0,c
  3724  0009C2  0E01               	movlw	high _dbuf
  3725  0009C4  21B7               	addwfc	(efgtoa@n+1)& (0+255),w,b
  3726  0009C6  6E0F               	movwf	(strcpy@dest+1)^0,c
  3727  0009C8  0E66               	movlw	low STR_20
  3728  0009CA  6E10               	movwf	strcpy@src^0,c
  3729  0009CC  0E08               	movlw	high STR_20
  3730  0009CE  6E11               	movwf	(strcpy@src+1)^0,c
  3731  0009D0  EC76  F021         	call	_strcpy	;wreg free
  3732  0009D4                     l5454:
  3733                           
  3734                           ;E:\MPLAB\xc8\pic\sources\c99\common\doprnt.c: 349:         w -= ((sizeof("inf")/sizeof(
      +                          "inf"[0]))-1);
  3735  0009D4  0100               	movlb	0	; () banked
  3736  0009D6  0EFD               	movlw	253
  3737  0009D8  27A3               	addwf	efgtoa@w& (0+255),f,b
  3738  0009DA  0EFF               	movlw	255
  3739  0009DC  23A4               	addwfc	(efgtoa@w+1)& (0+255),f,b
  3740  0009DE                     l5456:
  3741                           
  3742                           ;E:\MPLAB\xc8\pic\sources\c99\common\doprnt.c: 350:         return pad(fp, &dbuf[0], w);
  3743  0009DE  C07D  F01A         	movff	efgtoa@fp,pad@fp
  3744  0009E2  C07E  F01B         	movff	efgtoa@fp+1,pad@fp+1
  3745  0009E6  0E72               	movlw	low _dbuf
  3746  0009E8  6E1C               	movwf	pad@buf^0,c
  3747  0009EA  0E01               	movlw	high _dbuf
  3748  0009EC  6E1D               	movwf	(pad@buf+1)^0,c
  3749  0009EE  C0A3  F01E         	movff	efgtoa@w,pad@p
  3750  0009F2  C0A4  F01F         	movff	efgtoa@w+1,pad@p+1
  3751  0009F6  EC9F  F01F         	call	_pad	;wreg free
  3752  0009FA  C01A  F07D         	movff	?_pad,?_efgtoa
  3753  0009FE  C01B  F07E         	movff	?_pad+1,?_efgtoa+1
  3754  000A02  EF14  F00A         	goto	l991
  3755  000A06                     l5460:
  3756                           
  3757                           ;E:\MPLAB\xc8\pic\sources\c99\common\doprnt.c: 353:         if ((0 ? isupper((int)c) : (
      +                          (unsigned)((int)c)-'A') < 26)) {
  3758  000A06  C0B0  F00A         	movff	efgtoa@g,___fpclassifyf@x
  3759  000A0A  C0B1  F00B         	movff	efgtoa@g+1,___fpclassifyf@x+1
  3760  000A0E  C0B2  F00C         	movff	efgtoa@g+2,___fpclassifyf@x+2
  3761  000A12  C0B3  F00D         	movff	efgtoa@g+3,___fpclassifyf@x+3
  3762  000A16  EC77  F01D         	call	___fpclassifyf	;wreg free
  3763  000A1A  500A               	movf	?___fpclassifyf^0,w,c
  3764  000A1C  100B               	iorwf	(?___fpclassifyf+1)^0,w,c
  3765  000A1E  A4D8               	btfss	status,2,c
  3766  000A20  EF14  F005         	goto	u6241
  3767  000A24  EF16  F005         	goto	u6240
  3768  000A28                     u6241:
  3769  000A28  EF56  F005         	goto	l5478
  3770  000A2C                     u6240:
  3771  000A2C  0EBF               	movlw	191
  3772  000A2E  6E49               	movwf	??_efgtoa^0,c
  3773  000A30  0EFF               	movlw	255
  3774  000A32  6E4A               	movwf	(??_efgtoa+1)^0,c
  3775  000A34  0100               	movlb	0	; () banked
  3776  000A36  5183               	movf	efgtoa@c& (0+255),w,b
  3777  000A38  6E4B               	movwf	(??_efgtoa+2)^0,c
  3778  000A3A  6A4C               	clrf	(??_efgtoa+3)^0,c
  3779  000A3C  5049               	movf	??_efgtoa^0,w,c
  3780  000A3E  264B               	addwf	(??_efgtoa+2)^0,f,c
  3781  000A40  504A               	movf	(??_efgtoa+1)^0,w,c
  3782  000A42  224C               	addwfc	(??_efgtoa+3)^0,f,c
  3783  000A44  504C               	movf	(??_efgtoa+3)^0,w,c
  3784  000A46  E10A               	bnz	u6250
  3785  000A48  0E1A               	movlw	26
  3786  000A4A  5C4B               	subwf	(??_efgtoa+2)^0,w,c
  3787  000A4C  A0D8               	btfss	status,0,c
  3788  000A4E  EF2B  F005         	goto	u6251
  3789  000A52  EF2E  F005         	goto	u6250
  3790  000A56                     u6251:
  3791  000A56  0E01               	movlw	1
  3792  000A58  EF2F  F005         	goto	u6260
  3793  000A5C                     u6250:
  3794  000A5C  0E00               	movlw	0
  3795  000A5E                     u6260:
  3796  000A5E  6F8C               	movwf	_efgtoa$1354& (0+255),b
  3797  000A60  6B8D               	clrf	(_efgtoa$1354+1)& (0+255),b
  3798  000A62                     
  3799                           ; BSR set to: 0
  3800  000A62  518C               	movf	_efgtoa$1354& (0+255),w,b
  3801  000A64  118D               	iorwf	(_efgtoa$1354+1)& (0+255),w,b
  3802  000A66  B4D8               	btfsc	status,2,c
  3803  000A68  EF38  F005         	goto	u6271
  3804  000A6C  EF3A  F005         	goto	u6270
  3805  000A70                     u6271:
  3806  000A70  EF48  F005         	goto	l5470
  3807  000A74                     u6270:
  3808  000A74                     
  3809                           ; BSR set to: 0
  3810                           ;E:\MPLAB\xc8\pic\sources\c99\common\doprnt.c: 354:             strcpy(&dbuf[n], "NAN");
  3811  000A74  0E72               	movlw	low _dbuf
  3812  000A76  25B6               	addwf	efgtoa@n& (0+255),w,b
  3813  000A78  6E0E               	movwf	strcpy@dest^0,c
  3814  000A7A  0E01               	movlw	high _dbuf
  3815  000A7C  21B7               	addwfc	(efgtoa@n+1)& (0+255),w,b
  3816  000A7E  6E0F               	movwf	(strcpy@dest+1)^0,c
  3817  000A80  0E62               	movlw	low STR_23
  3818  000A82  6E10               	movwf	strcpy@src^0,c
  3819  000A84  0E08               	movlw	high STR_23
  3820  000A86  6E11               	movwf	(strcpy@src+1)^0,c
  3821  000A88  EC76  F021         	call	_strcpy	;wreg free
  3822                           
  3823                           ;E:\MPLAB\xc8\pic\sources\c99\common\doprnt.c: 355:         } else {
  3824  000A8C  EFEA  F004         	goto	l5454
  3825  000A90                     l5470:
  3826                           
  3827                           ; BSR set to: 0
  3828                           ;E:\MPLAB\xc8\pic\sources\c99\common\doprnt.c: 356:             strcpy(&dbuf[n], "nan");
  3829  000A90  0E72               	movlw	low _dbuf
  3830  000A92  25B6               	addwf	efgtoa@n& (0+255),w,b
  3831  000A94  6E0E               	movwf	strcpy@dest^0,c
  3832  000A96  0E01               	movlw	high _dbuf
  3833  000A98  21B7               	addwfc	(efgtoa@n+1)& (0+255),w,b
  3834  000A9A  6E0F               	movwf	(strcpy@dest+1)^0,c
  3835  000A9C  0E6A               	movlw	low STR_24
  3836  000A9E  6E10               	movwf	strcpy@src^0,c
  3837  000AA0  0E08               	movlw	high STR_24
  3838  000AA2  6E11               	movwf	(strcpy@src+1)^0,c
  3839  000AA4  EC76  F021         	call	_strcpy	;wreg free
  3840  000AA8  EFEA  F004         	goto	l5454
  3841  000AAC                     l5478:
  3842                           
  3843                           ;E:\MPLAB\xc8\pic\sources\c99\common\doprnt.c: 363:     u = 1.0;
  3844  000AAC  0E00               	movlw	0
  3845  000AAE  0100               	movlb	0	; () banked
  3846  000AB0  6FB8               	movwf	efgtoa@u& (0+255),b
  3847  000AB2  0E00               	movlw	0
  3848  000AB4  6FB9               	movwf	(efgtoa@u+1)& (0+255),b
  3849  000AB6  0E80               	movlw	128
  3850  000AB8  6FBA               	movwf	(efgtoa@u+2)& (0+255),b
  3851  000ABA  0E3F               	movlw	63
  3852  000ABC  6FBB               	movwf	(efgtoa@u+3)& (0+255),b
  3853                           
  3854                           ;E:\MPLAB\xc8\pic\sources\c99\common\doprnt.c: 364:     e = 0;
  3855  000ABE  0E00               	movlw	0
  3856  000AC0  6FB5               	movwf	(efgtoa@e+1)& (0+255),b
  3857  000AC2  0E00               	movlw	0
  3858  000AC4  6FB4               	movwf	efgtoa@e& (0+255),b
  3859  000AC6                     
  3860                           ; BSR set to: 0
  3861                           ;E:\MPLAB\xc8\pic\sources\c99\common\doprnt.c: 365:     if (!(g == 0.0)) {
  3862  000AC6  C0B0  F00A         	movff	efgtoa@g,___fleq@ff1
  3863  000ACA  C0B1  F00B         	movff	efgtoa@g+1,___fleq@ff1+1
  3864  000ACE  C0B2  F00C         	movff	efgtoa@g+2,___fleq@ff1+2
  3865  000AD2  C0B3  F00D         	movff	efgtoa@g+3,___fleq@ff1+3
  3866  000AD6  0E00               	movlw	0
  3867  000AD8  6E0E               	movwf	___fleq@ff2^0,c
  3868  000ADA  0E00               	movlw	0
  3869  000ADC  6E0F               	movwf	(___fleq@ff2+1)^0,c
  3870  000ADE  0E00               	movlw	0
  3871  000AE0  6E10               	movwf	(___fleq@ff2+2)^0,c
  3872  000AE2  0E00               	movlw	0
  3873  000AE4  6E11               	movwf	(___fleq@ff2+3)^0,c
  3874  000AE6  EC58  F020         	call	___fleq	;wreg free
  3875  000AEA  B0D8               	btfsc	status,0,c
  3876  000AEC  EF7A  F005         	goto	u6281
  3877  000AF0  EF7C  F005         	goto	u6280
  3878  000AF4                     u6281:
  3879  000AF4  EFFF  F005         	goto	l5496
  3880  000AF8                     u6280:
  3881  000AF8  EF9B  F005         	goto	l5488
  3882  000AFC                     l5484:
  3883                           
  3884                           ;E:\MPLAB\xc8\pic\sources\c99\common\doprnt.c: 367:             u = u*10.0;
  3885  000AFC  C0B8  F018         	movff	efgtoa@u,___flmul@b
  3886  000B00  C0B9  F019         	movff	efgtoa@u+1,___flmul@b+1
  3887  000B04  C0BA  F01A         	movff	efgtoa@u+2,___flmul@b+2
  3888  000B08  C0BB  F01B         	movff	efgtoa@u+3,___flmul@b+3
  3889  000B0C  0E00               	movlw	0
  3890  000B0E  6E1C               	movwf	___flmul@a^0,c
  3891  000B10  0E00               	movlw	0
  3892  000B12  6E1D               	movwf	(___flmul@a+1)^0,c
  3893  000B14  0E20               	movlw	32
  3894  000B16  6E1E               	movwf	(___flmul@a+2)^0,c
  3895  000B18  0E41               	movlw	65
  3896  000B1A  6E1F               	movwf	(___flmul@a+3)^0,c
  3897  000B1C  ECFD  F012         	call	___flmul	;wreg free
  3898  000B20  C018  F0B8         	movff	?___flmul,efgtoa@u
  3899  000B24  C019  F0B9         	movff	?___flmul+1,efgtoa@u+1
  3900  000B28  C01A  F0BA         	movff	?___flmul+2,efgtoa@u+2
  3901  000B2C  C01B  F0BB         	movff	?___flmul+3,efgtoa@u+3
  3902  000B30                     
  3903                           ;E:\MPLAB\xc8\pic\sources\c99\common\doprnt.c: 368:             ++e;
  3904  000B30  0100               	movlb	0	; () banked
  3905  000B32  4BB4               	infsnz	efgtoa@e& (0+255),f,b
  3906  000B34  2BB5               	incf	(efgtoa@e+1)& (0+255),f,b
  3907  000B36                     l5488:
  3908                           
  3909                           ;E:\MPLAB\xc8\pic\sources\c99\common\doprnt.c: 366:         while (!(g < (u*10.0))) {
  3910  000B36  C0B0  F031         	movff	efgtoa@g,___flge@ff1
  3911  000B3A  C0B1  F032         	movff	efgtoa@g+1,___flge@ff1+1
  3912  000B3E  C0B2  F033         	movff	efgtoa@g+2,___flge@ff1+2
  3913  000B42  C0B3  F034         	movff	efgtoa@g+3,___flge@ff1+3
  3914  000B46  0E00               	movlw	0
  3915  000B48  6E1C               	movwf	___flmul@a^0,c
  3916  000B4A  0E00               	movlw	0
  3917  000B4C  6E1D               	movwf	(___flmul@a+1)^0,c
  3918  000B4E  0E20               	movlw	32
  3919  000B50  6E1E               	movwf	(___flmul@a+2)^0,c
  3920  000B52  0E41               	movlw	65
  3921  000B54  6E1F               	movwf	(___flmul@a+3)^0,c
  3922  000B56  C0B8  F018         	movff	efgtoa@u,___flmul@b
  3923  000B5A  C0B9  F019         	movff	efgtoa@u+1,___flmul@b+1
  3924  000B5E  C0BA  F01A         	movff	efgtoa@u+2,___flmul@b+2
  3925  000B62  C0BB  F01B         	movff	efgtoa@u+3,___flmul@b+3
  3926  000B66  ECFD  F012         	call	___flmul	;wreg free
  3927  000B6A  C018  F035         	movff	?___flmul,___flge@ff2
  3928  000B6E  C019  F036         	movff	?___flmul+1,___flge@ff2+1
  3929  000B72  C01A  F037         	movff	?___flmul+2,___flge@ff2+2
  3930  000B76  C01B  F038         	movff	?___flmul+3,___flge@ff2+3
  3931  000B7A  ECF5  F01C         	call	___flge	;wreg free
  3932  000B7E  B0D8               	btfsc	status,0,c
  3933  000B80  EFC4  F005         	goto	u6291
  3934  000B84  EFC6  F005         	goto	u6290
  3935  000B88                     u6291:
  3936  000B88  EF7E  F005         	goto	l5484
  3937  000B8C                     u6290:
  3938  000B8C  EFE6  F005         	goto	l5494
  3939  000B90                     l5490:
  3940                           
  3941                           ;E:\MPLAB\xc8\pic\sources\c99\common\doprnt.c: 371:             u = u/10.0;
  3942  000B90  C0B8  F039         	movff	efgtoa@u,___fldiv@b
  3943  000B94  C0B9  F03A         	movff	efgtoa@u+1,___fldiv@b+1
  3944  000B98  C0BA  F03B         	movff	efgtoa@u+2,___fldiv@b+2
  3945  000B9C  C0BB  F03C         	movff	efgtoa@u+3,___fldiv@b+3
  3946  000BA0  0E00               	movlw	0
  3947  000BA2  6E3D               	movwf	___fldiv@a^0,c
  3948  000BA4  0E00               	movlw	0
  3949  000BA6  6E3E               	movwf	(___fldiv@a+1)^0,c
  3950  000BA8  0E20               	movlw	32
  3951  000BAA  6E3F               	movwf	(___fldiv@a+2)^0,c
  3952  000BAC  0E41               	movlw	65
  3953  000BAE  6E40               	movwf	(___fldiv@a+3)^0,c
  3954  000BB0  EC12  F015         	call	___fldiv	;wreg free
  3955  000BB4  C039  F0B8         	movff	?___fldiv,efgtoa@u
  3956  000BB8  C03A  F0B9         	movff	?___fldiv+1,efgtoa@u+1
  3957  000BBC  C03B  F0BA         	movff	?___fldiv+2,efgtoa@u+2
  3958  000BC0  C03C  F0BB         	movff	?___fldiv+3,efgtoa@u+3
  3959  000BC4                     
  3960                           ;E:\MPLAB\xc8\pic\sources\c99\common\doprnt.c: 372:             --e;
  3961  000BC4  0100               	movlb	0	; () banked
  3962  000BC6  07B4               	decf	efgtoa@e& (0+255),f,b
  3963  000BC8  A0D8               	btfss	status,0,c
  3964  000BCA  07B5               	decf	(efgtoa@e+1)& (0+255),f,b
  3965  000BCC                     l5494:
  3966                           
  3967                           ;E:\MPLAB\xc8\pic\sources\c99\common\doprnt.c: 370:         while (g < u) {
  3968  000BCC  C0B0  F031         	movff	efgtoa@g,___flge@ff1
  3969  000BD0  C0B1  F032         	movff	efgtoa@g+1,___flge@ff1+1
  3970  000BD4  C0B2  F033         	movff	efgtoa@g+2,___flge@ff1+2
  3971  000BD8  C0B3  F034         	movff	efgtoa@g+3,___flge@ff1+3
  3972  000BDC  C0B8  F035         	movff	efgtoa@u,___flge@ff2
  3973  000BE0  C0B9  F036         	movff	efgtoa@u+1,___flge@ff2+1
  3974  000BE4  C0BA  F037         	movff	efgtoa@u+2,___flge@ff2+2
  3975  000BE8  C0BB  F038         	movff	efgtoa@u+3,___flge@ff2+3
  3976  000BEC  ECF5  F01C         	call	___flge	;wreg free
  3977  000BF0  A0D8               	btfss	status,0,c
  3978  000BF2  EFFD  F005         	goto	u6301
  3979  000BF6  EFFF  F005         	goto	u6300
  3980  000BFA                     u6301:
  3981  000BFA  EFC8  F005         	goto	l5490
  3982  000BFE                     u6300:
  3983  000BFE                     l5496:
  3984                           
  3985                           ;E:\MPLAB\xc8\pic\sources\c99\common\doprnt.c: 377:     mode = tolower((int)c);
  3986  000BFE  C083  F010         	movff	efgtoa@c,tolower@c
  3987  000C02  6A11               	clrf	(tolower@c+1)^0,c
  3988  000C04  EC17  F021         	call	_tolower	;wreg free
  3989  000C08  5010               	movf	?_tolower^0,w,c
  3990  000C0A  0100               	movlb	0	; () banked
  3991  000C0C  6FA5               	movwf	efgtoa@mode& (0+255),b
  3992  000C0E                     
  3993                           ; BSR set to: 0
  3994                           ;E:\MPLAB\xc8\pic\sources\c99\common\doprnt.c: 378:     nmode = mode;
  3995  000C0E  C0A5  F0A2         	movff	efgtoa@mode,efgtoa@nmode
  3996  000C12                     
  3997                           ; BSR set to: 0
  3998                           ;E:\MPLAB\xc8\pic\sources\c99\common\doprnt.c: 379:     if (mode == 'g') {
  3999  000C12  0E67               	movlw	103
  4000  000C14  19A5               	xorwf	efgtoa@mode& (0+255),w,b
  4001  000C16  A4D8               	btfss	status,2,c
  4002  000C18  EF10  F006         	goto	u6311
  4003  000C1C  EF12  F006         	goto	u6310
  4004  000C20                     u6311:
  4005  000C20  EF38  F006         	goto	l5510
  4006  000C24                     u6310:
  4007  000C24                     
  4008                           ; BSR set to: 0
  4009                           ;E:\MPLAB\xc8\pic\sources\c99\common\doprnt.c: 380:   if (prec == 0) {
  4010  000C24  5050               	movf	_prec^0,w,c
  4011  000C26  1051               	iorwf	(_prec+1)^0,w,c
  4012  000C28  A4D8               	btfss	status,2,c
  4013  000C2A  EF19  F006         	goto	u6321
  4014  000C2E  EF1B  F006         	goto	u6320
  4015  000C32                     u6321:
  4016  000C32  EF1F  F006         	goto	l5506
  4017  000C36                     u6320:
  4018  000C36                     
  4019                           ; BSR set to: 0
  4020                           ;E:\MPLAB\xc8\pic\sources\c99\common\doprnt.c: 381:    prec = 1;
  4021  000C36  0E00               	movlw	0
  4022  000C38  6E51               	movwf	(_prec+1)^0,c
  4023  000C3A  0E01               	movlw	1
  4024  000C3C  6E50               	movwf	_prec^0,c
  4025  000C3E                     l5506:
  4026                           
  4027                           ; BSR set to: 0
  4028                           ;E:\MPLAB\xc8\pic\sources\c99\common\doprnt.c: 383:         p = (0 < prec) ? prec : 6;
  4029  000C3E  BE51               	btfsc	(_prec+1)^0,7,c
  4030  000C40  EF2C  F006         	goto	u6330
  4031  000C44  5051               	movf	(_prec+1)^0,w,c
  4032  000C46  E106               	bnz	u6331
  4033  000C48  0450               	decf	_prec^0,w,c
  4034  000C4A  B0D8               	btfsc	status,0,c
  4035  000C4C  EF2A  F006         	goto	u6331
  4036  000C50  EF2C  F006         	goto	u6330
  4037  000C54                     u6331:
  4038  000C54  EF32  F006         	goto	l1009
  4039  000C58                     u6330:
  4040  000C58                     l5508:
  4041                           
  4042                           ; BSR set to: 0
  4043  000C58  0E00               	movlw	0
  4044  000C5A  6FA1               	movwf	(efgtoa@p+1)& (0+255),b
  4045  000C5C  0E06               	movlw	6
  4046  000C5E  6FA0               	movwf	efgtoa@p& (0+255),b
  4047  000C60  EF41  F006         	goto	l5516
  4048  000C64                     l1009:
  4049                           
  4050                           ; BSR set to: 0
  4051  000C64  C050  F0A0         	movff	_prec,efgtoa@p
  4052  000C68  C051  F0A1         	movff	_prec+1,efgtoa@p+1
  4053  000C6C  EF41  F006         	goto	l5516
  4054  000C70                     l5510:
  4055                           
  4056                           ; BSR set to: 0
  4057                           ;E:\MPLAB\xc8\pic\sources\c99\common\doprnt.c: 385:         p = (prec < 0) ? 6 : prec;
  4058  000C70  BE51               	btfsc	(_prec+1)^0,7,c
  4059  000C72  EF3D  F006         	goto	u6341
  4060  000C76  EF3F  F006         	goto	u6340
  4061  000C7A                     u6341:
  4062  000C7A  EF2C  F006         	goto	l5508
  4063  000C7E                     u6340:
  4064  000C7E  EF32  F006         	goto	l1009
  4065  000C82                     l5516:
  4066                           
  4067                           ; BSR set to: 0
  4068                           ;E:\MPLAB\xc8\pic\sources\c99\common\doprnt.c: 389:     if (mode == 'g') {
  4069  000C82  0E67               	movlw	103
  4070  000C84  19A5               	xorwf	efgtoa@mode& (0+255),w,b
  4071  000C86  A4D8               	btfss	status,2,c
  4072  000C88  EF48  F006         	goto	u6351
  4073  000C8C  EF4A  F006         	goto	u6350
  4074  000C90                     u6351:
  4075  000C90  EF79  F006         	goto	l5526
  4076  000C94                     u6350:
  4077  000C94                     
  4078                           ; BSR set to: 0
  4079                           ;E:\MPLAB\xc8\pic\sources\c99\common\doprnt.c: 390:         if (!(e < -4) && !((p - 1) <
      +                           e)) {
  4080  000C94  AFB5               	btfss	(efgtoa@e+1)& (0+255),7,b
  4081  000C96  EF58  F006         	goto	u6360
  4082  000C9A  0EFC               	movlw	252
  4083  000C9C  5DB4               	subwf	efgtoa@e& (0+255),w,b
  4084  000C9E  0EFF               	movlw	255
  4085  000CA0  59B5               	subwfb	(efgtoa@e+1)& (0+255),w,b
  4086  000CA2  A0D8               	btfss	status,0,c
  4087  000CA4  EF56  F006         	goto	u6361
  4088  000CA8  EF58  F006         	goto	u6360
  4089  000CAC                     u6361:
  4090  000CAC  EF77  F006         	goto	l5524
  4091  000CB0                     u6360:
  4092  000CB0                     
  4093                           ; BSR set to: 0
  4094  000CB0  0EFF               	movlw	255
  4095  000CB2  6E49               	movwf	??_efgtoa^0,c
  4096  000CB4  0EFF               	movlw	255
  4097  000CB6  6E4A               	movwf	(??_efgtoa+1)^0,c
  4098  000CB8  C0A0  F04B         	movff	efgtoa@p,??_efgtoa+2
  4099  000CBC  C0A1  F04C         	movff	efgtoa@p+1,??_efgtoa+3
  4100  000CC0  5049               	movf	??_efgtoa^0,w,c
  4101  000CC2  264B               	addwf	(??_efgtoa+2)^0,f,c
  4102  000CC4  504A               	movf	(??_efgtoa+1)^0,w,c
  4103  000CC6  224C               	addwfc	(??_efgtoa+3)^0,f,c
  4104  000CC8  51B4               	movf	efgtoa@e& (0+255),w,b
  4105  000CCA  5C4B               	subwf	(??_efgtoa+2)^0,w,c
  4106  000CCC  504C               	movf	(??_efgtoa+3)^0,w,c
  4107  000CCE  0A80               	xorlw	128
  4108  000CD0  6E4D               	movwf	(??_efgtoa+4)^0,c
  4109  000CD2  51B5               	movf	(efgtoa@e+1)& (0+255),w,b
  4110  000CD4  0A80               	xorlw	128
  4111  000CD6  584D               	subwfb	(??_efgtoa+4)^0,w,c
  4112  000CD8  A0D8               	btfss	status,0,c
  4113  000CDA  EF71  F006         	goto	u6371
  4114  000CDE  EF73  F006         	goto	u6370
  4115  000CE2                     u6371:
  4116  000CE2  EF77  F006         	goto	l5524
  4117  000CE6                     u6370:
  4118  000CE6                     
  4119                           ; BSR set to: 0
  4120                           ;E:\MPLAB\xc8\pic\sources\c99\common\doprnt.c: 391:             nmode = 'f';
  4121  000CE6  0E66               	movlw	102
  4122  000CE8  6FA2               	movwf	efgtoa@nmode& (0+255),b
  4123                           
  4124                           ;E:\MPLAB\xc8\pic\sources\c99\common\doprnt.c: 392:         } else {
  4125  000CEA  EF79  F006         	goto	l5526
  4126  000CEE                     l5524:
  4127                           
  4128                           ; BSR set to: 0
  4129                           ;E:\MPLAB\xc8\pic\sources\c99\common\doprnt.c: 393:             nmode = 'e';
  4130  000CEE  0E65               	movlw	101
  4131  000CF0  6FA2               	movwf	efgtoa@nmode& (0+255),b
  4132  000CF2                     l5526:
  4133                           
  4134                           ; BSR set to: 0
  4135                           ;E:\MPLAB\xc8\pic\sources\c99\common\doprnt.c: 398:     m = p;
  4136  000CF2  C0A0  F098         	movff	efgtoa@p,efgtoa@m
  4137  000CF6  C0A1  F099         	movff	efgtoa@p+1,efgtoa@m+1
  4138  000CFA                     
  4139                           ; BSR set to: 0
  4140                           ;E:\MPLAB\xc8\pic\sources\c99\common\doprnt.c: 399:     if (!(mode == 'g') || ((nmode ==
      +                           'f') && (e < 0))) {
  4141  000CFA  0E67               	movlw	103
  4142  000CFC  19A5               	xorwf	efgtoa@mode& (0+255),w,b
  4143  000CFE  A4D8               	btfss	status,2,c
  4144  000D00  EF84  F006         	goto	u6381
  4145  000D04  EF86  F006         	goto	u6380
  4146  000D08                     u6381:
  4147  000D08  EF96  F006         	goto	l5534
  4148  000D0C                     u6380:
  4149  000D0C                     
  4150                           ; BSR set to: 0
  4151  000D0C  0E66               	movlw	102
  4152  000D0E  19A2               	xorwf	efgtoa@nmode& (0+255),w,b
  4153  000D10  A4D8               	btfss	status,2,c
  4154  000D12  EF8D  F006         	goto	u6391
  4155  000D16  EF8F  F006         	goto	u6390
  4156  000D1A                     u6391:
  4157  000D1A  EF98  F006         	goto	l5536
  4158  000D1E                     u6390:
  4159  000D1E                     
  4160                           ; BSR set to: 0
  4161  000D1E  BFB5               	btfsc	(efgtoa@e+1)& (0+255),7,b
  4162  000D20  EF96  F006         	goto	u6400
  4163  000D24  EF94  F006         	goto	u6401
  4164  000D28                     u6401:
  4165  000D28  EF98  F006         	goto	l5536
  4166  000D2C                     u6400:
  4167  000D2C                     l5534:
  4168                           
  4169                           ; BSR set to: 0
  4170                           ;E:\MPLAB\xc8\pic\sources\c99\common\doprnt.c: 400:         ++m;
  4171  000D2C  4B98               	infsnz	efgtoa@m& (0+255),f,b
  4172  000D2E  2B99               	incf	(efgtoa@m+1)& (0+255),f,b
  4173  000D30                     l5536:
  4174                           
  4175                           ; BSR set to: 0
  4176                           ;E:\MPLAB\xc8\pic\sources\c99\common\doprnt.c: 404:     if (nmode == 'f') {
  4177  000D30  0E66               	movlw	102
  4178  000D32  19A2               	xorwf	efgtoa@nmode& (0+255),w,b
  4179  000D34  A4D8               	btfss	status,2,c
  4180  000D36  EF9F  F006         	goto	u6411
  4181  000D3A  EFA1  F006         	goto	u6410
  4182  000D3E                     u6411:
  4183  000D3E  EFC1  F006         	goto	l5546
  4184  000D42                     u6410:
  4185  000D42                     
  4186                           ; BSR set to: 0
  4187                           ;E:\MPLAB\xc8\pic\sources\c99\common\doprnt.c: 405:         if (e < 0) {
  4188  000D42  BFB5               	btfsc	(efgtoa@e+1)& (0+255),7,b
  4189  000D44  EFA8  F006         	goto	u6420
  4190  000D48  EFA6  F006         	goto	u6421
  4191  000D4C                     u6421:
  4192  000D4C  EFB4  F006         	goto	l5542
  4193  000D50                     u6420:
  4194  000D50                     
  4195                           ; BSR set to: 0
  4196                           ;E:\MPLAB\xc8\pic\sources\c99\common\doprnt.c: 406:             u = 1.0;
  4197  000D50  0E00               	movlw	0
  4198  000D52  6FB8               	movwf	efgtoa@u& (0+255),b
  4199  000D54  0E00               	movlw	0
  4200  000D56  6FB9               	movwf	(efgtoa@u+1)& (0+255),b
  4201  000D58  0E80               	movlw	128
  4202  000D5A  6FBA               	movwf	(efgtoa@u+2)& (0+255),b
  4203  000D5C  0E3F               	movlw	63
  4204  000D5E  6FBB               	movwf	(efgtoa@u+3)& (0+255),b
  4205                           
  4206                           ;E:\MPLAB\xc8\pic\sources\c99\common\doprnt.c: 407:             e = 0;
  4207  000D60  0E00               	movlw	0
  4208  000D62  6FB5               	movwf	(efgtoa@e+1)& (0+255),b
  4209  000D64  0E00               	movlw	0
  4210  000D66  6FB4               	movwf	efgtoa@e& (0+255),b
  4211  000D68                     l5542:
  4212                           
  4213                           ; BSR set to: 0
  4214                           ;E:\MPLAB\xc8\pic\sources\c99\common\doprnt.c: 409:         if (!(mode == 'g')) {
  4215  000D68  0E67               	movlw	103
  4216  000D6A  19A5               	xorwf	efgtoa@mode& (0+255),w,b
  4217  000D6C  B4D8               	btfsc	status,2,c
  4218  000D6E  EFBB  F006         	goto	u6431
  4219  000D72  EFBD  F006         	goto	u6430
  4220  000D76                     u6431:
  4221  000D76  EFC1  F006         	goto	l5546
  4222  000D7A                     u6430:
  4223  000D7A                     
  4224                           ; BSR set to: 0
  4225                           ;E:\MPLAB\xc8\pic\sources\c99\common\doprnt.c: 410:             m += e;
  4226  000D7A  51B4               	movf	efgtoa@e& (0+255),w,b
  4227  000D7C  2798               	addwf	efgtoa@m& (0+255),f,b
  4228  000D7E  51B5               	movf	(efgtoa@e+1)& (0+255),w,b
  4229  000D80  2399               	addwfc	(efgtoa@m+1)& (0+255),f,b
  4230  000D82                     l5546:
  4231                           
  4232                           ; BSR set to: 0
  4233                           ;E:\MPLAB\xc8\pic\sources\c99\common\doprnt.c: 415:     i = 0;
  4234  000D82  0E00               	movlw	0
  4235  000D84  6FAF               	movwf	(efgtoa@i+1)& (0+255),b
  4236  000D86  0E00               	movlw	0
  4237  000D88  6FAE               	movwf	efgtoa@i& (0+255),b
  4238  000D8A                     
  4239                           ; BSR set to: 0
  4240                           ;E:\MPLAB\xc8\pic\sources\c99\common\doprnt.c: 416:     h = g;
  4241  000D8A  C0B0  F0A6         	movff	efgtoa@g,efgtoa@h
  4242  000D8E  C0B1  F0A7         	movff	efgtoa@g+1,efgtoa@h+1
  4243  000D92  C0B2  F0A8         	movff	efgtoa@g+2,efgtoa@h+2
  4244  000D96  C0B3  F0A9         	movff	efgtoa@g+3,efgtoa@h+3
  4245  000D9A                     
  4246                           ; BSR set to: 0
  4247                           ;E:\MPLAB\xc8\pic\sources\c99\common\doprnt.c: 417:     ou = u;
  4248  000D9A  C0B8  F084         	movff	efgtoa@u,efgtoa@ou
  4249  000D9E  C0B9  F085         	movff	efgtoa@u+1,efgtoa@ou+1
  4250  000DA2  C0BA  F086         	movff	efgtoa@u+2,efgtoa@ou+2
  4251  000DA6  C0BB  F087         	movff	efgtoa@u+3,efgtoa@ou+3
  4252                           
  4253                           ;E:\MPLAB\xc8\pic\sources\c99\common\doprnt.c: 418:     while (i < m) {
  4254  000DAA  EF52  F007         	goto	l5560
  4255  000DAE                     l5552:
  4256                           
  4257                           ; BSR set to: 0
  4258                           ;E:\MPLAB\xc8\pic\sources\c99\common\doprnt.c: 419:         l = floorf(h/u);
  4259  000DAE  C0A6  F039         	movff	efgtoa@h,___fldiv@b
  4260  000DB2  C0A7  F03A         	movff	efgtoa@h+1,___fldiv@b+1
  4261  000DB6  C0A8  F03B         	movff	efgtoa@h+2,___fldiv@b+2
  4262  000DBA  C0A9  F03C         	movff	efgtoa@h+3,___fldiv@b+3
  4263  000DBE  C0B8  F03D         	movff	efgtoa@u,___fldiv@a
  4264  000DC2  C0B9  F03E         	movff	efgtoa@u+1,___fldiv@a+1
  4265  000DC6  C0BA  F03F         	movff	efgtoa@u+2,___fldiv@a+2
  4266  000DCA  C0BB  F040         	movff	efgtoa@u+3,___fldiv@a+3
  4267  000DCE  EC12  F015         	call	___fldiv	;wreg free
  4268  000DD2  C039  F045         	movff	?___fldiv,floorf@x
  4269  000DD6  C03A  F046         	movff	?___fldiv+1,floorf@x+1
  4270  000DDA  C03B  F047         	movff	?___fldiv+2,floorf@x+2
  4271  000DDE  C03C  F048         	movff	?___fldiv+3,floorf@x+3
  4272  000DE2  EC4F  F018         	call	_floorf	;wreg free
  4273  000DE6  C045  F0AA         	movff	?_floorf,efgtoa@l
  4274  000DEA  C046  F0AB         	movff	?_floorf+1,efgtoa@l+1
  4275  000DEE  C047  F0AC         	movff	?_floorf+2,efgtoa@l+2
  4276  000DF2  C048  F0AD         	movff	?_floorf+3,efgtoa@l+3
  4277                           
  4278                           ;E:\MPLAB\xc8\pic\sources\c99\common\doprnt.c: 420:         d = (int)l;
  4279  000DF6  C0AA  F00A         	movff	efgtoa@l,___fltol@f1
  4280  000DFA  C0AB  F00B         	movff	efgtoa@l+1,___fltol@f1+1
  4281  000DFE  C0AC  F00C         	movff	efgtoa@l+2,___fltol@f1+2
  4282  000E02  C0AD  F00D         	movff	efgtoa@l+3,___fltol@f1+3
  4283  000E06  EC72  F01C         	call	___fltol	;wreg free
  4284  000E0A  C00A  F09C         	movff	?___fltol,efgtoa@d
  4285  000E0E  C00B  F09D         	movff	?___fltol+1,efgtoa@d+1
  4286  000E12                     
  4287                           ;E:\MPLAB\xc8\pic\sources\c99\common\doprnt.c: 421:         h -= l*u;
  4288  000E12  C0A6  F031         	movff	efgtoa@h,___flsub@b
  4289  000E16  C0A7  F032         	movff	efgtoa@h+1,___flsub@b+1
  4290  000E1A  C0A8  F033         	movff	efgtoa@h+2,___flsub@b+2
  4291  000E1E  C0A9  F034         	movff	efgtoa@h+3,___flsub@b+3
  4292  000E22  C0B8  F01C         	movff	efgtoa@u,___flmul@a
  4293  000E26  C0B9  F01D         	movff	efgtoa@u+1,___flmul@a+1
  4294  000E2A  C0BA  F01E         	movff	efgtoa@u+2,___flmul@a+2
  4295  000E2E  C0BB  F01F         	movff	efgtoa@u+3,___flmul@a+3
  4296  000E32  C0AA  F018         	movff	efgtoa@l,___flmul@b
  4297  000E36  C0AB  F019         	movff	efgtoa@l+1,___flmul@b+1
  4298  000E3A  C0AC  F01A         	movff	efgtoa@l+2,___flmul@b+2
  4299  000E3E  C0AD  F01B         	movff	efgtoa@l+3,___flmul@b+3
  4300  000E42  ECFD  F012         	call	___flmul	;wreg free
  4301  000E46  C018  F035         	movff	?___flmul,___flsub@a
  4302  000E4A  C019  F036         	movff	?___flmul+1,___flsub@a+1
  4303  000E4E  C01A  F037         	movff	?___flmul+2,___flsub@a+2
  4304  000E52  C01B  F038         	movff	?___flmul+3,___flsub@a+3
  4305  000E56  ECF6  F021         	call	___flsub	;wreg free
  4306  000E5A  C031  F0A6         	movff	?___flsub,efgtoa@h
  4307  000E5E  C032  F0A7         	movff	?___flsub+1,efgtoa@h+1
  4308  000E62  C033  F0A8         	movff	?___flsub+2,efgtoa@h+2
  4309  000E66  C034  F0A9         	movff	?___flsub+3,efgtoa@h+3
  4310  000E6A                     
  4311                           ;E:\MPLAB\xc8\pic\sources\c99\common\doprnt.c: 422:         u = u/10.0;
  4312  000E6A  C0B8  F039         	movff	efgtoa@u,___fldiv@b
  4313  000E6E  C0B9  F03A         	movff	efgtoa@u+1,___fldiv@b+1
  4314  000E72  C0BA  F03B         	movff	efgtoa@u+2,___fldiv@b+2
  4315  000E76  C0BB  F03C         	movff	efgtoa@u+3,___fldiv@b+3
  4316  000E7A  0E00               	movlw	0
  4317  000E7C  6E3D               	movwf	___fldiv@a^0,c
  4318  000E7E  0E00               	movlw	0
  4319  000E80  6E3E               	movwf	(___fldiv@a+1)^0,c
  4320  000E82  0E20               	movlw	32
  4321  000E84  6E3F               	movwf	(___fldiv@a+2)^0,c
  4322  000E86  0E41               	movlw	65
  4323  000E88  6E40               	movwf	(___fldiv@a+3)^0,c
  4324  000E8A  EC12  F015         	call	___fldiv	;wreg free
  4325  000E8E  C039  F0B8         	movff	?___fldiv,efgtoa@u
  4326  000E92  C03A  F0B9         	movff	?___fldiv+1,efgtoa@u+1
  4327  000E96  C03B  F0BA         	movff	?___fldiv+2,efgtoa@u+2
  4328  000E9A  C03C  F0BB         	movff	?___fldiv+3,efgtoa@u+3
  4329  000E9E                     
  4330                           ;E:\MPLAB\xc8\pic\sources\c99\common\doprnt.c: 423:         ++i;
  4331  000E9E  0100               	movlb	0	; () banked
  4332  000EA0  4BAE               	infsnz	efgtoa@i& (0+255),f,b
  4333  000EA2  2BAF               	incf	(efgtoa@i+1)& (0+255),f,b
  4334  000EA4                     l5560:
  4335                           
  4336                           ; BSR set to: 0
  4337                           ;E:\MPLAB\xc8\pic\sources\c99\common\doprnt.c: 418:     while (i < m) {
  4338  000EA4  5198               	movf	efgtoa@m& (0+255),w,b
  4339  000EA6  5DAE               	subwf	efgtoa@i& (0+255),w,b
  4340  000EA8  51AF               	movf	(efgtoa@i+1)& (0+255),w,b
  4341  000EAA  0A80               	xorlw	128
  4342  000EAC  6E49               	movwf	??_efgtoa^0,c
  4343  000EAE  5199               	movf	(efgtoa@m+1)& (0+255),w,b
  4344  000EB0  0A80               	xorlw	128
  4345  000EB2  5849               	subwfb	??_efgtoa^0,w,c
  4346  000EB4  A0D8               	btfss	status,0,c
  4347  000EB6  EF5F  F007         	goto	u6441
  4348  000EBA  EF61  F007         	goto	u6440
  4349  000EBE                     u6441:
  4350  000EBE  EFD7  F006         	goto	l5552
  4351  000EC2                     u6440:
  4352  000EC2                     
  4353                           ; BSR set to: 0
  4354                           ;E:\MPLAB\xc8\pic\sources\c99\common\doprnt.c: 427:     l = u*5.0;
  4355  000EC2  C0B8  F018         	movff	efgtoa@u,___flmul@b
  4356  000EC6  C0B9  F019         	movff	efgtoa@u+1,___flmul@b+1
  4357  000ECA  C0BA  F01A         	movff	efgtoa@u+2,___flmul@b+2
  4358  000ECE  C0BB  F01B         	movff	efgtoa@u+3,___flmul@b+3
  4359  000ED2  0E00               	movlw	0
  4360  000ED4  6E1C               	movwf	___flmul@a^0,c
  4361  000ED6  0E00               	movlw	0
  4362  000ED8  6E1D               	movwf	(___flmul@a+1)^0,c
  4363  000EDA  0EA0               	movlw	160
  4364  000EDC  6E1E               	movwf	(___flmul@a+2)^0,c
  4365  000EDE  0E40               	movlw	64
  4366  000EE0  6E1F               	movwf	(___flmul@a+3)^0,c
  4367  000EE2  ECFD  F012         	call	___flmul	;wreg free
  4368  000EE6  C018  F0AA         	movff	?___flmul,efgtoa@l
  4369  000EEA  C019  F0AB         	movff	?___flmul+1,efgtoa@l+1
  4370  000EEE  C01A  F0AC         	movff	?___flmul+2,efgtoa@l+2
  4371  000EF2  C01B  F0AD         	movff	?___flmul+3,efgtoa@l+3
  4372  000EF6                     
  4373                           ;E:\MPLAB\xc8\pic\sources\c99\common\doprnt.c: 428:     if (h < l) {
  4374  000EF6  C0A6  F031         	movff	efgtoa@h,___flge@ff1
  4375  000EFA  C0A7  F032         	movff	efgtoa@h+1,___flge@ff1+1
  4376  000EFE  C0A8  F033         	movff	efgtoa@h+2,___flge@ff1+2
  4377  000F02  C0A9  F034         	movff	efgtoa@h+3,___flge@ff1+3
  4378  000F06  C0AA  F035         	movff	efgtoa@l,___flge@ff2
  4379  000F0A  C0AB  F036         	movff	efgtoa@l+1,___flge@ff2+1
  4380  000F0E  C0AC  F037         	movff	efgtoa@l+2,___flge@ff2+2
  4381  000F12  C0AD  F038         	movff	efgtoa@l+3,___flge@ff2+3
  4382  000F16  ECF5  F01C         	call	___flge	;wreg free
  4383  000F1A  B0D8               	btfsc	status,0,c
  4384  000F1C  EF92  F007         	goto	u6451
  4385  000F20  EF94  F007         	goto	u6450
  4386  000F24                     u6451:
  4387  000F24  EF9F  F007         	goto	l5568
  4388  000F28                     u6450:
  4389  000F28                     
  4390                           ;E:\MPLAB\xc8\pic\sources\c99\common\doprnt.c: 429:         l = 0.0;
  4391  000F28  0E00               	movlw	0
  4392  000F2A  0100               	movlb	0	; () banked
  4393  000F2C  6FAA               	movwf	efgtoa@l& (0+255),b
  4394  000F2E  0E00               	movlw	0
  4395  000F30  6FAB               	movwf	(efgtoa@l+1)& (0+255),b
  4396  000F32  0E00               	movlw	0
  4397  000F34  6FAC               	movwf	(efgtoa@l+2)& (0+255),b
  4398  000F36  0E00               	movlw	0
  4399  000F38  6FAD               	movwf	(efgtoa@l+3)& (0+255),b
  4400                           
  4401                           ;E:\MPLAB\xc8\pic\sources\c99\common\doprnt.c: 430:     } else {
  4402  000F3A  EFC8  F007         	goto	l5574
  4403  000F3E                     l5568:
  4404                           
  4405                           ;E:\MPLAB\xc8\pic\sources\c99\common\doprnt.c: 432:         if ((h == l) && !(d % 2)) {
  4406  000F3E  C0A6  F00A         	movff	efgtoa@h,___fleq@ff1
  4407  000F42  C0A7  F00B         	movff	efgtoa@h+1,___fleq@ff1+1
  4408  000F46  C0A8  F00C         	movff	efgtoa@h+2,___fleq@ff1+2
  4409  000F4A  C0A9  F00D         	movff	efgtoa@h+3,___fleq@ff1+3
  4410  000F4E  C0AA  F00E         	movff	efgtoa@l,___fleq@ff2
  4411  000F52  C0AB  F00F         	movff	efgtoa@l+1,___fleq@ff2+1
  4412  000F56  C0AC  F010         	movff	efgtoa@l+2,___fleq@ff2+2
  4413  000F5A  C0AD  F011         	movff	efgtoa@l+3,___fleq@ff2+3
  4414  000F5E  EC58  F020         	call	___fleq	;wreg free
  4415  000F62  A0D8               	btfss	status,0,c
  4416  000F64  EFB6  F007         	goto	u6461
  4417  000F68  EFB8  F007         	goto	u6460
  4418  000F6C                     u6461:
  4419  000F6C  EFC8  F007         	goto	l5574
  4420  000F70                     u6460:
  4421  000F70  0100               	movlb	0	; () banked
  4422  000F72  B19C               	btfsc	efgtoa@d& (0+255),0,b
  4423  000F74  EFBE  F007         	goto	u6471
  4424  000F78  EFC0  F007         	goto	u6470
  4425  000F7C                     u6471:
  4426  000F7C  EFC8  F007         	goto	l5574
  4427  000F80                     u6470:
  4428  000F80                     
  4429                           ; BSR set to: 0
  4430                           ;E:\MPLAB\xc8\pic\sources\c99\common\doprnt.c: 433:             l = 0.0;
  4431  000F80  0E00               	movlw	0
  4432  000F82  6FAA               	movwf	efgtoa@l& (0+255),b
  4433  000F84  0E00               	movlw	0
  4434  000F86  6FAB               	movwf	(efgtoa@l+1)& (0+255),b
  4435  000F88  0E00               	movlw	0
  4436  000F8A  6FAC               	movwf	(efgtoa@l+2)& (0+255),b
  4437  000F8C  0E00               	movlw	0
  4438  000F8E  6FAD               	movwf	(efgtoa@l+3)& (0+255),b
  4439  000F90                     l5574:
  4440                           
  4441                           ;E:\MPLAB\xc8\pic\sources\c99\common\doprnt.c: 438:     h = g + l;
  4442  000F90  C0B0  F00A         	movff	efgtoa@g,___fladd@b
  4443  000F94  C0B1  F00B         	movff	efgtoa@g+1,___fladd@b+1
  4444  000F98  C0B2  F00C         	movff	efgtoa@g+2,___fladd@b+2
  4445  000F9C  C0B3  F00D         	movff	efgtoa@g+3,___fladd@b+3
  4446  000FA0  C0AA  F00E         	movff	efgtoa@l,___fladd@a
  4447  000FA4  C0AB  F00F         	movff	efgtoa@l+1,___fladd@a+1
  4448  000FA8  C0AC  F010         	movff	efgtoa@l+2,___fladd@a+2
  4449  000FAC  C0AD  F011         	movff	efgtoa@l+3,___fladd@a+3
  4450  000FB0  EC9D  F010         	call	___fladd	;wreg free
  4451  000FB4  C00A  F0A6         	movff	?___fladd,efgtoa@h
  4452  000FB8  C00B  F0A7         	movff	?___fladd+1,efgtoa@h+1
  4453  000FBC  C00C  F0A8         	movff	?___fladd+2,efgtoa@h+2
  4454  000FC0  C00D  F0A9         	movff	?___fladd+3,efgtoa@h+3
  4455  000FC4                     
  4456                           ;E:\MPLAB\xc8\pic\sources\c99\common\doprnt.c: 441:     u = ou;
  4457  000FC4  C084  F0B8         	movff	efgtoa@ou,efgtoa@u
  4458  000FC8  C085  F0B9         	movff	efgtoa@ou+1,efgtoa@u+1
  4459  000FCC  C086  F0BA         	movff	efgtoa@ou+2,efgtoa@u+2
  4460  000FD0  C087  F0BB         	movff	efgtoa@ou+3,efgtoa@u+3
  4461  000FD4                     
  4462                           ;E:\MPLAB\xc8\pic\sources\c99\common\doprnt.c: 442:     ne = (nmode == 'e') ? 0 : e;
  4463  000FD4  0E65               	movlw	101
  4464  000FD6  0100               	movlb	0	; () banked
  4465  000FD8  19A2               	xorwf	efgtoa@nmode& (0+255),w,b
  4466  000FDA  B4D8               	btfsc	status,2,c
  4467  000FDC  EFF2  F007         	goto	u6481
  4468  000FE0  EFF4  F007         	goto	u6480
  4469  000FE4                     u6481:
  4470  000FE4  EFFA  F007         	goto	l5582
  4471  000FE8                     u6480:
  4472  000FE8                     
  4473                           ; BSR set to: 0
  4474  000FE8  C0B4  F09A         	movff	efgtoa@e,efgtoa@ne
  4475  000FEC  C0B5  F09B         	movff	efgtoa@e+1,efgtoa@ne+1
  4476  000FF0  EFFE  F007         	goto	l1035
  4477  000FF4                     l5582:
  4478                           
  4479                           ; BSR set to: 0
  4480  000FF4  0E00               	movlw	0
  4481  000FF6  6F9B               	movwf	(efgtoa@ne+1)& (0+255),b
  4482  000FF8  0E00               	movlw	0
  4483  000FFA  6F9A               	movwf	efgtoa@ne& (0+255),b
  4484  000FFC                     l1035:
  4485                           
  4486                           ; BSR set to: 0
  4487                           ;E:\MPLAB\xc8\pic\sources\c99\common\doprnt.c: 443:     pp = 0;
  4488  000FFC  0E00               	movlw	0
  4489  000FFE  6F97               	movwf	(efgtoa@pp+1)& (0+255),b
  4490  001000  0E00               	movlw	0
  4491  001002  6F96               	movwf	efgtoa@pp& (0+255),b
  4492                           
  4493                           ;E:\MPLAB\xc8\pic\sources\c99\common\doprnt.c: 444:     t = 0;
  4494  001004  0E00               	movlw	0
  4495  001006  6F95               	movwf	(efgtoa@t+1)& (0+255),b
  4496  001008  0E00               	movlw	0
  4497  00100A  6F94               	movwf	efgtoa@t& (0+255),b
  4498                           
  4499                           ;E:\MPLAB\xc8\pic\sources\c99\common\doprnt.c: 445:     i = 0;
  4500  00100C  0E00               	movlw	0
  4501  00100E  6FAF               	movwf	(efgtoa@i+1)& (0+255),b
  4502  001010  0E00               	movlw	0
  4503  001012  6FAE               	movwf	efgtoa@i& (0+255),b
  4504                           
  4505                           ;E:\MPLAB\xc8\pic\sources\c99\common\doprnt.c: 446:     while ((i < m) && (n < (80 - 5))
      +                          ) {
  4506  001014  EFFA  F008         	goto	l5632
  4507  001018                     l5584:
  4508                           
  4509                           ; BSR set to: 0
  4510                           ;E:\MPLAB\xc8\pic\sources\c99\common\doprnt.c: 447:         l = floorf(h/u);
  4511  001018  C0A6  F039         	movff	efgtoa@h,___fldiv@b
  4512  00101C  C0A7  F03A         	movff	efgtoa@h+1,___fldiv@b+1
  4513  001020  C0A8  F03B         	movff	efgtoa@h+2,___fldiv@b+2
  4514  001024  C0A9  F03C         	movff	efgtoa@h+3,___fldiv@b+3
  4515  001028  C0B8  F03D         	movff	efgtoa@u,___fldiv@a
  4516  00102C  C0B9  F03E         	movff	efgtoa@u+1,___fldiv@a+1
  4517  001030  C0BA  F03F         	movff	efgtoa@u+2,___fldiv@a+2
  4518  001034  C0BB  F040         	movff	efgtoa@u+3,___fldiv@a+3
  4519  001038  EC12  F015         	call	___fldiv	;wreg free
  4520  00103C  C039  F045         	movff	?___fldiv,floorf@x
  4521  001040  C03A  F046         	movff	?___fldiv+1,floorf@x+1
  4522  001044  C03B  F047         	movff	?___fldiv+2,floorf@x+2
  4523  001048  C03C  F048         	movff	?___fldiv+3,floorf@x+3
  4524  00104C  EC4F  F018         	call	_floorf	;wreg free
  4525  001050  C045  F0AA         	movff	?_floorf,efgtoa@l
  4526  001054  C046  F0AB         	movff	?_floorf+1,efgtoa@l+1
  4527  001058  C047  F0AC         	movff	?_floorf+2,efgtoa@l+2
  4528  00105C  C048  F0AD         	movff	?_floorf+3,efgtoa@l+3
  4529                           
  4530                           ;E:\MPLAB\xc8\pic\sources\c99\common\doprnt.c: 448:         d = (int)l;
  4531  001060  C0AA  F00A         	movff	efgtoa@l,___fltol@f1
  4532  001064  C0AB  F00B         	movff	efgtoa@l+1,___fltol@f1+1
  4533  001068  C0AC  F00C         	movff	efgtoa@l+2,___fltol@f1+2
  4534  00106C  C0AD  F00D         	movff	efgtoa@l+3,___fltol@f1+3
  4535  001070  EC72  F01C         	call	___fltol	;wreg free
  4536  001074  C00A  F09C         	movff	?___fltol,efgtoa@d
  4537  001078  C00B  F09D         	movff	?___fltol+1,efgtoa@d+1
  4538  00107C                     
  4539                           ;E:\MPLAB\xc8\pic\sources\c99\common\doprnt.c: 449:         if (!(flags & (1 << 4)) && !
      +                          d && (mode == 'g') && (ne < 0)) {
  4540  00107C  B852               	btfsc	_flags^0,4,c
  4541  00107E  EF43  F008         	goto	u6491
  4542  001082  EF45  F008         	goto	u6490
  4543  001086                     u6491:
  4544  001086  EF63  F008         	goto	l5596
  4545  00108A                     u6490:
  4546  00108A  0100               	movlb	0	; () banked
  4547  00108C  519C               	movf	efgtoa@d& (0+255),w,b
  4548  00108E  119D               	iorwf	(efgtoa@d+1)& (0+255),w,b
  4549  001090  A4D8               	btfss	status,2,c
  4550  001092  EF4D  F008         	goto	u6501
  4551  001096  EF4F  F008         	goto	u6500
  4552  00109A                     u6501:
  4553  00109A  EF63  F008         	goto	l5596
  4554  00109E                     u6500:
  4555  00109E                     
  4556                           ; BSR set to: 0
  4557  00109E  0E67               	movlw	103
  4558  0010A0  19A5               	xorwf	efgtoa@mode& (0+255),w,b
  4559  0010A2  A4D8               	btfss	status,2,c
  4560  0010A4  EF56  F008         	goto	u6511
  4561  0010A8  EF58  F008         	goto	u6510
  4562  0010AC                     u6511:
  4563  0010AC  EF63  F008         	goto	l5596
  4564  0010B0                     u6510:
  4565  0010B0                     
  4566                           ; BSR set to: 0
  4567  0010B0  BF9B               	btfsc	(efgtoa@ne+1)& (0+255),7,b
  4568  0010B2  EF5F  F008         	goto	u6520
  4569  0010B6  EF5D  F008         	goto	u6521
  4570  0010BA                     u6521:
  4571  0010BA  EF63  F008         	goto	l5596
  4572  0010BE                     u6520:
  4573  0010BE                     
  4574                           ; BSR set to: 0
  4575                           ;E:\MPLAB\xc8\pic\sources\c99\common\doprnt.c: 450:             ++t;
  4576  0010BE  4B94               	infsnz	efgtoa@t& (0+255),f,b
  4577  0010C0  2B95               	incf	(efgtoa@t+1)& (0+255),f,b
  4578                           
  4579                           ;E:\MPLAB\xc8\pic\sources\c99\common\doprnt.c: 451:         } else {
  4580  0010C2  EFAE  F008         	goto	l5624
  4581  0010C6                     l5596:
  4582                           
  4583                           ;E:\MPLAB\xc8\pic\sources\c99\common\doprnt.c: 452:             if (!pp && (ne < 0)) {
  4584  0010C6  0100               	movlb	0	; () banked
  4585  0010C8  5196               	movf	efgtoa@pp& (0+255),w,b
  4586  0010CA  1197               	iorwf	(efgtoa@pp+1)& (0+255),w,b
  4587  0010CC  A4D8               	btfss	status,2,c
  4588  0010CE  EF6B  F008         	goto	u6531
  4589  0010D2  EF6D  F008         	goto	u6530
  4590  0010D6                     u6531:
  4591  0010D6  EF97  F008         	goto	l5616
  4592  0010DA                     u6530:
  4593  0010DA                     
  4594                           ; BSR set to: 0
  4595  0010DA  BF9B               	btfsc	(efgtoa@ne+1)& (0+255),7,b
  4596  0010DC  EF74  F008         	goto	u6540
  4597  0010E0  EF72  F008         	goto	u6541
  4598  0010E4                     u6541:
  4599  0010E4  EF97  F008         	goto	l5616
  4600  0010E8                     u6540:
  4601  0010E8                     
  4602                           ; BSR set to: 0
  4603                           ;E:\MPLAB\xc8\pic\sources\c99\common\doprnt.c: 453:                 dbuf[n++] = '.';
  4604  0010E8  0E72               	movlw	low _dbuf
  4605  0010EA  25B6               	addwf	efgtoa@n& (0+255),w,b
  4606  0010EC  6ED9               	movwf	fsr2l,c
  4607  0010EE  0E01               	movlw	high _dbuf
  4608  0010F0  21B7               	addwfc	(efgtoa@n+1)& (0+255),w,b
  4609  0010F2  6EDA               	movwf	fsr2h,c
  4610  0010F4  0E2E               	movlw	46
  4611  0010F6  6EDF               	movwf	indf2,c
  4612  0010F8                     
  4613                           ; BSR set to: 0
  4614  0010F8  4BB6               	infsnz	efgtoa@n& (0+255),f,b
  4615  0010FA  2BB7               	incf	(efgtoa@n+1)& (0+255),f,b
  4616  0010FC                     
  4617                           ; BSR set to: 0
  4618                           ;E:\MPLAB\xc8\pic\sources\c99\common\doprnt.c: 454:                 --w;
  4619  0010FC  07A3               	decf	efgtoa@w& (0+255),f,b
  4620  0010FE  A0D8               	btfss	status,0,c
  4621  001100  07A4               	decf	(efgtoa@w+1)& (0+255),f,b
  4622  001102                     
  4623                           ; BSR set to: 0
  4624                           ;E:\MPLAB\xc8\pic\sources\c99\common\doprnt.c: 455:                 pp = 1;
  4625  001102  0E00               	movlw	0
  4626  001104  6F97               	movwf	(efgtoa@pp+1)& (0+255),b
  4627  001106  0E01               	movlw	1
  4628  001108  6F96               	movwf	efgtoa@pp& (0+255),b
  4629  00110A  EF97  F008         	goto	l5616
  4630  00110E                     l5608:
  4631                           
  4632                           ; BSR set to: 0
  4633                           ;E:\MPLAB\xc8\pic\sources\c99\common\doprnt.c: 458:                 dbuf[n++] = '0';
  4634  00110E  0E72               	movlw	low _dbuf
  4635  001110  25B6               	addwf	efgtoa@n& (0+255),w,b
  4636  001112  6ED9               	movwf	fsr2l,c
  4637  001114  0E01               	movlw	high _dbuf
  4638  001116  21B7               	addwfc	(efgtoa@n+1)& (0+255),w,b
  4639  001118  6EDA               	movwf	fsr2h,c
  4640  00111A  0E30               	movlw	48
  4641  00111C  6EDF               	movwf	indf2,c
  4642  00111E                     
  4643                           ; BSR set to: 0
  4644  00111E  4BB6               	infsnz	efgtoa@n& (0+255),f,b
  4645  001120  2BB7               	incf	(efgtoa@n+1)& (0+255),f,b
  4646  001122                     
  4647                           ; BSR set to: 0
  4648                           ;E:\MPLAB\xc8\pic\sources\c99\common\doprnt.c: 459:                 --w;
  4649  001122  07A3               	decf	efgtoa@w& (0+255),f,b
  4650  001124  A0D8               	btfss	status,0,c
  4651  001126  07A4               	decf	(efgtoa@w+1)& (0+255),f,b
  4652  001128                     
  4653                           ; BSR set to: 0
  4654                           ;E:\MPLAB\xc8\pic\sources\c99\common\doprnt.c: 460:                 --t;
  4655  001128  0794               	decf	efgtoa@t& (0+255),f,b
  4656  00112A  A0D8               	btfss	status,0,c
  4657  00112C  0795               	decf	(efgtoa@t+1)& (0+255),f,b
  4658  00112E                     l5616:
  4659                           
  4660                           ; BSR set to: 0
  4661                           ;E:\MPLAB\xc8\pic\sources\c99\common\doprnt.c: 457:             while (t) {
  4662  00112E  5194               	movf	efgtoa@t& (0+255),w,b
  4663  001130  1195               	iorwf	(efgtoa@t+1)& (0+255),w,b
  4664  001132  A4D8               	btfss	status,2,c
  4665  001134  EF9E  F008         	goto	u6551
  4666  001138  EFA0  F008         	goto	u6550
  4667  00113C                     u6551:
  4668  00113C  EF87  F008         	goto	l5608
  4669  001140                     u6550:
  4670  001140                     
  4671                           ; BSR set to: 0
  4672                           ;E:\MPLAB\xc8\pic\sources\c99\common\doprnt.c: 462:             dbuf[n++] = '0' + d;
  4673  001140  0E72               	movlw	low _dbuf
  4674  001142  25B6               	addwf	efgtoa@n& (0+255),w,b
  4675  001144  6ED9               	movwf	fsr2l,c
  4676  001146  0E01               	movlw	high _dbuf
  4677  001148  21B7               	addwfc	(efgtoa@n+1)& (0+255),w,b
  4678  00114A  6EDA               	movwf	fsr2h,c
  4679  00114C  519C               	movf	efgtoa@d& (0+255),w,b
  4680  00114E  0F30               	addlw	48
  4681  001150  6EDF               	movwf	indf2,c
  4682  001152                     
  4683                           ; BSR set to: 0
  4684  001152  4BB6               	infsnz	efgtoa@n& (0+255),f,b
  4685  001154  2BB7               	incf	(efgtoa@n+1)& (0+255),f,b
  4686  001156                     
  4687                           ; BSR set to: 0
  4688                           ;E:\MPLAB\xc8\pic\sources\c99\common\doprnt.c: 463:             --w;
  4689  001156  07A3               	decf	efgtoa@w& (0+255),f,b
  4690  001158  A0D8               	btfss	status,0,c
  4691  00115A  07A4               	decf	(efgtoa@w+1)& (0+255),f,b
  4692  00115C                     l5624:
  4693                           
  4694                           ; BSR set to: 0
  4695                           ;E:\MPLAB\xc8\pic\sources\c99\common\doprnt.c: 465:         h -= l*u;
  4696  00115C  C0A6  F031         	movff	efgtoa@h,___flsub@b
  4697  001160  C0A7  F032         	movff	efgtoa@h+1,___flsub@b+1
  4698  001164  C0A8  F033         	movff	efgtoa@h+2,___flsub@b+2
  4699  001168  C0A9  F034         	movff	efgtoa@h+3,___flsub@b+3
  4700  00116C  C0B8  F01C         	movff	efgtoa@u,___flmul@a
  4701  001170  C0B9  F01D         	movff	efgtoa@u+1,___flmul@a+1
  4702  001174  C0BA  F01E         	movff	efgtoa@u+2,___flmul@a+2
  4703  001178  C0BB  F01F         	movff	efgtoa@u+3,___flmul@a+3
  4704  00117C  C0AA  F018         	movff	efgtoa@l,___flmul@b
  4705  001180  C0AB  F019         	movff	efgtoa@l+1,___flmul@b+1
  4706  001184  C0AC  F01A         	movff	efgtoa@l+2,___flmul@b+2
  4707  001188  C0AD  F01B         	movff	efgtoa@l+3,___flmul@b+3
  4708  00118C  ECFD  F012         	call	___flmul	;wreg free
  4709  001190  C018  F035         	movff	?___flmul,___flsub@a
  4710  001194  C019  F036         	movff	?___flmul+1,___flsub@a+1
  4711  001198  C01A  F037         	movff	?___flmul+2,___flsub@a+2
  4712  00119C  C01B  F038         	movff	?___flmul+3,___flsub@a+3
  4713  0011A0  ECF6  F021         	call	___flsub	;wreg free
  4714  0011A4  C031  F0A6         	movff	?___flsub,efgtoa@h
  4715  0011A8  C032  F0A7         	movff	?___flsub+1,efgtoa@h+1
  4716  0011AC  C033  F0A8         	movff	?___flsub+2,efgtoa@h+2
  4717  0011B0  C034  F0A9         	movff	?___flsub+3,efgtoa@h+3
  4718  0011B4                     
  4719                           ;E:\MPLAB\xc8\pic\sources\c99\common\doprnt.c: 466:         u = u/10.0;
  4720  0011B4  C0B8  F039         	movff	efgtoa@u,___fldiv@b
  4721  0011B8  C0B9  F03A         	movff	efgtoa@u+1,___fldiv@b+1
  4722  0011BC  C0BA  F03B         	movff	efgtoa@u+2,___fldiv@b+2
  4723  0011C0  C0BB  F03C         	movff	efgtoa@u+3,___fldiv@b+3
  4724  0011C4  0E00               	movlw	0
  4725  0011C6  6E3D               	movwf	___fldiv@a^0,c
  4726  0011C8  0E00               	movlw	0
  4727  0011CA  6E3E               	movwf	(___fldiv@a+1)^0,c
  4728  0011CC  0E20               	movlw	32
  4729  0011CE  6E3F               	movwf	(___fldiv@a+2)^0,c
  4730  0011D0  0E41               	movlw	65
  4731  0011D2  6E40               	movwf	(___fldiv@a+3)^0,c
  4732  0011D4  EC12  F015         	call	___fldiv	;wreg free
  4733  0011D8  C039  F0B8         	movff	?___fldiv,efgtoa@u
  4734  0011DC  C03A  F0B9         	movff	?___fldiv+1,efgtoa@u+1
  4735  0011E0  C03B  F0BA         	movff	?___fldiv+2,efgtoa@u+2
  4736  0011E4  C03C  F0BB         	movff	?___fldiv+3,efgtoa@u+3
  4737  0011E8                     
  4738                           ;E:\MPLAB\xc8\pic\sources\c99\common\doprnt.c: 467:         --ne;
  4739  0011E8  0100               	movlb	0	; () banked
  4740  0011EA  079A               	decf	efgtoa@ne& (0+255),f,b
  4741  0011EC  A0D8               	btfss	status,0,c
  4742  0011EE  079B               	decf	(efgtoa@ne+1)& (0+255),f,b
  4743  0011F0                     
  4744                           ; BSR set to: 0
  4745                           ;E:\MPLAB\xc8\pic\sources\c99\common\doprnt.c: 468:         ++i;
  4746  0011F0  4BAE               	infsnz	efgtoa@i& (0+255),f,b
  4747  0011F2  2BAF               	incf	(efgtoa@i+1)& (0+255),f,b
  4748  0011F4                     l5632:
  4749                           
  4750                           ; BSR set to: 0
  4751                           ;E:\MPLAB\xc8\pic\sources\c99\common\doprnt.c: 446:     while ((i < m) && (n < (80 - 5))
      +                          ) {
  4752  0011F4  5198               	movf	efgtoa@m& (0+255),w,b
  4753  0011F6  5DAE               	subwf	efgtoa@i& (0+255),w,b
  4754  0011F8  51AF               	movf	(efgtoa@i+1)& (0+255),w,b
  4755  0011FA  0A80               	xorlw	128
  4756  0011FC  6E49               	movwf	??_efgtoa^0,c
  4757  0011FE  5199               	movf	(efgtoa@m+1)& (0+255),w,b
  4758  001200  0A80               	xorlw	128
  4759  001202  5849               	subwfb	??_efgtoa^0,w,c
  4760  001204  B0D8               	btfsc	status,0,c
  4761  001206  EF07  F009         	goto	u6561
  4762  00120A  EF09  F009         	goto	u6560
  4763  00120E                     u6561:
  4764  00120E  EF17  F009         	goto	l5636
  4765  001212                     u6560:
  4766  001212                     
  4767                           ; BSR set to: 0
  4768  001212  BFB7               	btfsc	(efgtoa@n+1)& (0+255),7,b
  4769  001214  EF15  F009         	goto	u6571
  4770  001218  51B7               	movf	(efgtoa@n+1)& (0+255),w,b
  4771  00121A  E109               	bnz	u6570
  4772  00121C  0E4B               	movlw	75
  4773  00121E  5DB6               	subwf	efgtoa@n& (0+255),w,b
  4774  001220  A0D8               	btfss	status,0,c
  4775  001222  EF15  F009         	goto	u6571
  4776  001226  EF17  F009         	goto	u6570
  4777  00122A                     u6571:
  4778  00122A  EF0C  F008         	goto	l5584
  4779  00122E                     u6570:
  4780  00122E                     l5636:
  4781                           
  4782                           ; BSR set to: 0
  4783                           ;E:\MPLAB\xc8\pic\sources\c99\common\doprnt.c: 470:     if (!pp && (flags & (1 << 4))) {
  4784  00122E  5196               	movf	efgtoa@pp& (0+255),w,b
  4785  001230  1197               	iorwf	(efgtoa@pp+1)& (0+255),w,b
  4786  001232  A4D8               	btfss	status,2,c
  4787  001234  EF1E  F009         	goto	u6581
  4788  001238  EF20  F009         	goto	u6580
  4789  00123C                     u6581:
  4790  00123C  EF31  F009         	goto	l5644
  4791  001240                     u6580:
  4792  001240                     
  4793                           ; BSR set to: 0
  4794  001240  A852               	btfss	_flags^0,4,c
  4795  001242  EF25  F009         	goto	u6591
  4796  001246  EF27  F009         	goto	u6590
  4797  00124A                     u6591:
  4798  00124A  EF31  F009         	goto	l5644
  4799  00124E                     u6590:
  4800  00124E                     
  4801                           ; BSR set to: 0
  4802                           ;E:\MPLAB\xc8\pic\sources\c99\common\doprnt.c: 471:         dbuf[n++] = '.';
  4803  00124E  0E72               	movlw	low _dbuf
  4804  001250  25B6               	addwf	efgtoa@n& (0+255),w,b
  4805  001252  6ED9               	movwf	fsr2l,c
  4806  001254  0E01               	movlw	high _dbuf
  4807  001256  21B7               	addwfc	(efgtoa@n+1)& (0+255),w,b
  4808  001258  6EDA               	movwf	fsr2h,c
  4809  00125A  0E2E               	movlw	46
  4810  00125C  6EDF               	movwf	indf2,c
  4811  00125E                     
  4812                           ; BSR set to: 0
  4813  00125E  4BB6               	infsnz	efgtoa@n& (0+255),f,b
  4814  001260  2BB7               	incf	(efgtoa@n+1)& (0+255),f,b
  4815  001262                     l5644:
  4816                           
  4817                           ; BSR set to: 0
  4818                           ;E:\MPLAB\xc8\pic\sources\c99\common\doprnt.c: 473:     dbuf[n] = '\0';
  4819  001262  0E72               	movlw	low _dbuf
  4820  001264  25B6               	addwf	efgtoa@n& (0+255),w,b
  4821  001266  6ED9               	movwf	fsr2l,c
  4822  001268  0E01               	movlw	high _dbuf
  4823  00126A  21B7               	addwfc	(efgtoa@n+1)& (0+255),w,b
  4824  00126C  6EDA               	movwf	fsr2h,c
  4825  00126E  0E00               	movlw	0
  4826  001270  6EDF               	movwf	indf2,c
  4827  001272                     
  4828                           ; BSR set to: 0
  4829                           ;E:\MPLAB\xc8\pic\sources\c99\common\doprnt.c: 476:     if (nmode == 'e') {
  4830  001272  0E65               	movlw	101
  4831  001274  19A2               	xorwf	efgtoa@nmode& (0+255),w,b
  4832  001276  A4D8               	btfss	status,2,c
  4833  001278  EF40  F009         	goto	u6601
  4834  00127C  EF42  F009         	goto	u6600
  4835  001280                     u6601:
  4836  001280  EFEF  F004         	goto	l5456
  4837  001284                     u6600:
  4838  001284                     
  4839                           ; BSR set to: 0
  4840                           ;E:\MPLAB\xc8\pic\sources\c99\common\doprnt.c: 477:         i = sizeof(dbuf) - 1;
  4841  001284  0E00               	movlw	0
  4842  001286  6FAF               	movwf	(efgtoa@i+1)& (0+255),b
  4843  001288  0E4F               	movlw	79
  4844  00128A  6FAE               	movwf	efgtoa@i& (0+255),b
  4845  00128C                     
  4846                           ; BSR set to: 0
  4847                           ;E:\MPLAB\xc8\pic\sources\c99\common\doprnt.c: 478:         dbuf[i] = '\0';
  4848  00128C  0E72               	movlw	low _dbuf
  4849  00128E  25AE               	addwf	efgtoa@i& (0+255),w,b
  4850  001290  6ED9               	movwf	fsr2l,c
  4851  001292  0E01               	movlw	high _dbuf
  4852  001294  21AF               	addwfc	(efgtoa@i+1)& (0+255),w,b
  4853  001296  6EDA               	movwf	fsr2h,c
  4854  001298  0E00               	movlw	0
  4855  00129A  6EDF               	movwf	indf2,c
  4856  00129C                     
  4857                           ; BSR set to: 0
  4858                           ;E:\MPLAB\xc8\pic\sources\c99\common\doprnt.c: 479:         sign = 0;
  4859  00129C  0E00               	movlw	0
  4860  00129E  6F9F               	movwf	(efgtoa@sign+1)& (0+255),b
  4861  0012A0  0E00               	movlw	0
  4862  0012A2  6F9E               	movwf	efgtoa@sign& (0+255),b
  4863  0012A4                     
  4864                           ; BSR set to: 0
  4865                           ;E:\MPLAB\xc8\pic\sources\c99\common\doprnt.c: 480:         if (e < 0) {
  4866  0012A4  BFB5               	btfsc	(efgtoa@e+1)& (0+255),7,b
  4867  0012A6  EF59  F009         	goto	u6610
  4868  0012AA  EF57  F009         	goto	u6611
  4869  0012AE                     u6611:
  4870  0012AE  EF61  F009         	goto	l5660
  4871  0012B2                     u6610:
  4872  0012B2                     
  4873                           ; BSR set to: 0
  4874                           ;E:\MPLAB\xc8\pic\sources\c99\common\doprnt.c: 481:             sign = 1;
  4875  0012B2  0E00               	movlw	0
  4876  0012B4  6F9F               	movwf	(efgtoa@sign+1)& (0+255),b
  4877  0012B6  0E01               	movlw	1
  4878  0012B8  6F9E               	movwf	efgtoa@sign& (0+255),b
  4879  0012BA                     
  4880                           ; BSR set to: 0
  4881                           ;E:\MPLAB\xc8\pic\sources\c99\common\doprnt.c: 482:             e = -e;
  4882  0012BA  6DB4               	negf	efgtoa@e& (0+255),b
  4883  0012BC  1FB5               	comf	(efgtoa@e+1)& (0+255),f,b
  4884  0012BE  B0D8               	btfsc	status,0,c
  4885  0012C0  2BB5               	incf	(efgtoa@e+1)& (0+255),f,b
  4886  0012C2                     l5660:
  4887                           
  4888                           ; BSR set to: 0
  4889                           ;E:\MPLAB\xc8\pic\sources\c99\common\doprnt.c: 484:         p = 2;
  4890  0012C2  0E00               	movlw	0
  4891  0012C4  6FA1               	movwf	(efgtoa@p+1)& (0+255),b
  4892  0012C6  0E02               	movlw	2
  4893  0012C8  6FA0               	movwf	efgtoa@p& (0+255),b
  4894                           
  4895                           ;E:\MPLAB\xc8\pic\sources\c99\common\doprnt.c: 485:         while (e || (0 < p)) {
  4896  0012CA  EF92  F009         	goto	l5672
  4897  0012CE                     l5662:
  4898                           
  4899                           ; BSR set to: 0
  4900                           ;E:\MPLAB\xc8\pic\sources\c99\common\doprnt.c: 486:             --i;
  4901  0012CE  07AE               	decf	efgtoa@i& (0+255),f,b
  4902  0012D0  A0D8               	btfss	status,0,c
  4903  0012D2  07AF               	decf	(efgtoa@i+1)& (0+255),f,b
  4904  0012D4                     
  4905                           ; BSR set to: 0
  4906                           ;E:\MPLAB\xc8\pic\sources\c99\common\doprnt.c: 487:             dbuf[i] = '0' + (e % 10)
      +                          ;
  4907  0012D4  0E72               	movlw	low _dbuf
  4908  0012D6  25AE               	addwf	efgtoa@i& (0+255),w,b
  4909  0012D8  6ED9               	movwf	fsr2l,c
  4910  0012DA  0E01               	movlw	high _dbuf
  4911  0012DC  21AF               	addwfc	(efgtoa@i+1)& (0+255),w,b
  4912  0012DE  6EDA               	movwf	fsr2h,c
  4913  0012E0  C0B4  F00A         	movff	efgtoa@e,___awmod@dividend
  4914  0012E4  C0B5  F00B         	movff	efgtoa@e+1,___awmod@dividend+1
  4915  0012E8  0E00               	movlw	0
  4916  0012EA  6E0D               	movwf	(___awmod@divisor+1)^0,c
  4917  0012EC  0E0A               	movlw	10
  4918  0012EE  6E0C               	movwf	___awmod@divisor^0,c
  4919  0012F0  EC00  F020         	call	___awmod	;wreg free
  4920  0012F4  500A               	movf	?___awmod^0,w,c
  4921  0012F6  0F30               	addlw	48
  4922  0012F8  6EDF               	movwf	indf2,c
  4923  0012FA                     
  4924                           ;E:\MPLAB\xc8\pic\sources\c99\common\doprnt.c: 488:             e = e / 10;
  4925  0012FA  C0B4  F00A         	movff	efgtoa@e,___awdiv@dividend
  4926  0012FE  C0B5  F00B         	movff	efgtoa@e+1,___awdiv@dividend+1
  4927  001302  0E00               	movlw	0
  4928  001304  6E0D               	movwf	(___awdiv@divisor+1)^0,c
  4929  001306  0E0A               	movlw	10
  4930  001308  6E0C               	movwf	___awdiv@divisor^0,c
  4931  00130A  EC3D  F01F         	call	___awdiv	;wreg free
  4932  00130E  C00A  F0B4         	movff	?___awdiv,efgtoa@e
  4933  001312  C00B  F0B5         	movff	?___awdiv+1,efgtoa@e+1
  4934  001316                     
  4935                           ;E:\MPLAB\xc8\pic\sources\c99\common\doprnt.c: 489:             --p;
  4936  001316  0100               	movlb	0	; () banked
  4937  001318  07A0               	decf	efgtoa@p& (0+255),f,b
  4938  00131A  A0D8               	btfss	status,0,c
  4939  00131C  07A1               	decf	(efgtoa@p+1)& (0+255),f,b
  4940  00131E                     
  4941                           ; BSR set to: 0
  4942                           ;E:\MPLAB\xc8\pic\sources\c99\common\doprnt.c: 490:             --w;
  4943  00131E  07A3               	decf	efgtoa@w& (0+255),f,b
  4944  001320  A0D8               	btfss	status,0,c
  4945  001322  07A4               	decf	(efgtoa@w+1)& (0+255),f,b
  4946  001324                     l5672:
  4947                           
  4948                           ; BSR set to: 0
  4949                           ;E:\MPLAB\xc8\pic\sources\c99\common\doprnt.c: 485:         while (e || (0 < p)) {
  4950  001324  51B4               	movf	efgtoa@e& (0+255),w,b
  4951  001326  11B5               	iorwf	(efgtoa@e+1)& (0+255),w,b
  4952  001328  A4D8               	btfss	status,2,c
  4953  00132A  EF99  F009         	goto	u6621
  4954  00132E  EF9B  F009         	goto	u6620
  4955  001332                     u6621:
  4956  001332  EF67  F009         	goto	l5662
  4957  001336                     u6620:
  4958  001336                     
  4959                           ; BSR set to: 0
  4960  001336  BFA1               	btfsc	(efgtoa@p+1)& (0+255),7,b
  4961  001338  EFA8  F009         	goto	u6630
  4962  00133C  51A1               	movf	(efgtoa@p+1)& (0+255),w,b
  4963  00133E  E106               	bnz	u6631
  4964  001340  05A0               	decf	efgtoa@p& (0+255),w,b
  4965  001342  B0D8               	btfsc	status,0,c
  4966  001344  EFA6  F009         	goto	u6631
  4967  001348  EFA8  F009         	goto	u6630
  4968  00134C                     u6631:
  4969  00134C  EF67  F009         	goto	l5662
  4970  001350                     u6630:
  4971  001350                     
  4972                           ; BSR set to: 0
  4973                           ;E:\MPLAB\xc8\pic\sources\c99\common\doprnt.c: 492:         --i;
  4974  001350  07AE               	decf	efgtoa@i& (0+255),f,b
  4975  001352  A0D8               	btfss	status,0,c
  4976  001354  07AF               	decf	(efgtoa@i+1)& (0+255),f,b
  4977  001356                     
  4978                           ; BSR set to: 0
  4979                           ;E:\MPLAB\xc8\pic\sources\c99\common\doprnt.c: 493:         dbuf[i] = sign ? '-' : '+';
  4980  001356  519E               	movf	efgtoa@sign& (0+255),w,b
  4981  001358  119F               	iorwf	(efgtoa@sign+1)& (0+255),w,b
  4982  00135A  A4D8               	btfss	status,2,c
  4983  00135C  EFB2  F009         	goto	u6641
  4984  001360  EFB4  F009         	goto	u6640
  4985  001364                     u6641:
  4986  001364  EFBA  F009         	goto	l5682
  4987  001368                     u6640:
  4988  001368                     
  4989                           ; BSR set to: 0
  4990  001368  0E00               	movlw	0
  4991  00136A  6F8F               	movwf	(_efgtoa$1358+1)& (0+255),b
  4992  00136C  0E2B               	movlw	43
  4993  00136E  6F8E               	movwf	_efgtoa$1358& (0+255),b
  4994  001370  EFBE  F009         	goto	l5684
  4995  001374                     l5682:
  4996                           
  4997                           ; BSR set to: 0
  4998  001374  0E00               	movlw	0
  4999  001376  6F8F               	movwf	(_efgtoa$1358+1)& (0+255),b
  5000  001378  0E2D               	movlw	45
  5001  00137A  6F8E               	movwf	_efgtoa$1358& (0+255),b
  5002  00137C                     l5684:
  5003                           
  5004                           ; BSR set to: 0
  5005  00137C  0E72               	movlw	low _dbuf
  5006  00137E  25AE               	addwf	efgtoa@i& (0+255),w,b
  5007  001380  6ED9               	movwf	fsr2l,c
  5008  001382  0E01               	movlw	high _dbuf
  5009  001384  21AF               	addwfc	(efgtoa@i+1)& (0+255),w,b
  5010  001386  6EDA               	movwf	fsr2h,c
  5011  001388  C08E  FFDF         	movff	_efgtoa$1358,indf2
  5012  00138C                     
  5013                           ; BSR set to: 0
  5014                           ;E:\MPLAB\xc8\pic\sources\c99\common\doprnt.c: 494:         --w;
  5015  00138C  07A3               	decf	efgtoa@w& (0+255),f,b
  5016  00138E  A0D8               	btfss	status,0,c
  5017  001390  07A4               	decf	(efgtoa@w+1)& (0+255),f,b
  5018  001392                     
  5019                           ; BSR set to: 0
  5020                           ;E:\MPLAB\xc8\pic\sources\c99\common\doprnt.c: 496:         dbuf[i] = (0 ? isupper((int)
      +                          c) : ((unsigned)((int)c)-'A') < 26) ? 'E' : 'e';
  5021  001392  07AE               	decf	efgtoa@i& (0+255),f,b
  5022  001394  A0D8               	btfss	status,0,c
  5023  001396  07AF               	decf	(efgtoa@i+1)& (0+255),f,b
  5024  001398                     
  5025                           ; BSR set to: 0
  5026  001398  0EBF               	movlw	191
  5027  00139A  6E49               	movwf	??_efgtoa^0,c
  5028  00139C  0EFF               	movlw	255
  5029  00139E  6E4A               	movwf	(??_efgtoa+1)^0,c
  5030  0013A0  5183               	movf	efgtoa@c& (0+255),w,b
  5031  0013A2  6E4B               	movwf	(??_efgtoa+2)^0,c
  5032  0013A4  6A4C               	clrf	(??_efgtoa+3)^0,c
  5033  0013A6  5049               	movf	??_efgtoa^0,w,c
  5034  0013A8  264B               	addwf	(??_efgtoa+2)^0,f,c
  5035  0013AA  504A               	movf	(??_efgtoa+1)^0,w,c
  5036  0013AC  224C               	addwfc	(??_efgtoa+3)^0,f,c
  5037  0013AE  504C               	movf	(??_efgtoa+3)^0,w,c
  5038  0013B0  E10A               	bnz	u6650
  5039  0013B2  0E1A               	movlw	26
  5040  0013B4  5C4B               	subwf	(??_efgtoa+2)^0,w,c
  5041  0013B6  A0D8               	btfss	status,0,c
  5042  0013B8  EFE0  F009         	goto	u6651
  5043  0013BC  EFE3  F009         	goto	u6650
  5044  0013C0                     u6651:
  5045  0013C0  0E01               	movlw	1
  5046  0013C2  EFE4  F009         	goto	u6660
  5047  0013C6                     u6650:
  5048  0013C6  0E00               	movlw	0
  5049  0013C8                     u6660:
  5050  0013C8  6F92               	movwf	_efgtoa$1360& (0+255),b
  5051  0013CA  6B93               	clrf	(_efgtoa$1360+1)& (0+255),b
  5052  0013CC                     
  5053                           ; BSR set to: 0
  5054  0013CC  5192               	movf	_efgtoa$1360& (0+255),w,b
  5055  0013CE  1193               	iorwf	(_efgtoa$1360+1)& (0+255),w,b
  5056  0013D0  A4D8               	btfss	status,2,c
  5057  0013D2  EFED  F009         	goto	u6671
  5058  0013D6  EFEF  F009         	goto	u6670
  5059  0013DA                     u6671:
  5060  0013DA  EFF5  F009         	goto	l5698
  5061  0013DE                     u6670:
  5062  0013DE                     
  5063                           ; BSR set to: 0
  5064  0013DE  0E00               	movlw	0
  5065  0013E0  6F91               	movwf	(_efgtoa$1359+1)& (0+255),b
  5066  0013E2  0E65               	movlw	101
  5067  0013E4  6F90               	movwf	_efgtoa$1359& (0+255),b
  5068  0013E6  EFF9  F009         	goto	l5700
  5069  0013EA                     l5698:
  5070                           
  5071                           ; BSR set to: 0
  5072  0013EA  0E00               	movlw	0
  5073  0013EC  6F91               	movwf	(_efgtoa$1359+1)& (0+255),b
  5074  0013EE  0E45               	movlw	69
  5075  0013F0  6F90               	movwf	_efgtoa$1359& (0+255),b
  5076  0013F2                     l5700:
  5077                           
  5078                           ; BSR set to: 0
  5079  0013F2  0E72               	movlw	low _dbuf
  5080  0013F4  25AE               	addwf	efgtoa@i& (0+255),w,b
  5081  0013F6  6ED9               	movwf	fsr2l,c
  5082  0013F8  0E01               	movlw	high _dbuf
  5083  0013FA  21AF               	addwfc	(efgtoa@i+1)& (0+255),w,b
  5084  0013FC  6EDA               	movwf	fsr2h,c
  5085  0013FE  C090  FFDF         	movff	_efgtoa$1359,indf2
  5086  001402                     
  5087                           ; BSR set to: 0
  5088                           ;E:\MPLAB\xc8\pic\sources\c99\common\doprnt.c: 497:         --w;
  5089  001402  07A3               	decf	efgtoa@w& (0+255),f,b
  5090  001404  A0D8               	btfss	status,0,c
  5091  001406  07A4               	decf	(efgtoa@w+1)& (0+255),f,b
  5092  001408                     
  5093                           ; BSR set to: 0
  5094                           ;E:\MPLAB\xc8\pic\sources\c99\common\doprnt.c: 498:         strcpy(&dbuf[n], &dbuf[i]);
  5095  001408  0E72               	movlw	low _dbuf
  5096  00140A  25B6               	addwf	efgtoa@n& (0+255),w,b
  5097  00140C  6E0E               	movwf	strcpy@dest^0,c
  5098  00140E  0E01               	movlw	high _dbuf
  5099  001410  21B7               	addwfc	(efgtoa@n+1)& (0+255),w,b
  5100  001412  6E0F               	movwf	(strcpy@dest+1)^0,c
  5101  001414  0E72               	movlw	low _dbuf
  5102  001416  25AE               	addwf	efgtoa@i& (0+255),w,b
  5103  001418  6E10               	movwf	strcpy@src^0,c
  5104  00141A  0E01               	movlw	high _dbuf
  5105  00141C  21AF               	addwfc	(efgtoa@i+1)& (0+255),w,b
  5106  00141E  6E11               	movwf	(strcpy@src+1)^0,c
  5107  001420  EC76  F021         	call	_strcpy	;wreg free
  5108  001424  EFEF  F004         	goto	l5456
  5109  001428                     l991:
  5110  001428  0012               	return		;funcret
  5111  00142A                     __end_of_efgtoa:
  5112                           	callstack 0
  5113                           
  5114 ;; *************** function _tolower *****************
  5115 ;; Defined at:
  5116 ;;		line 4 in file "E:\MPLAB\xc8\pic\sources\c99\common\tolower.c"
  5117 ;; Parameters:    Size  Location     Type
  5118 ;;  c               2   15[COMRAM] int 
  5119 ;; Auto vars:     Size  Location     Type
  5120 ;;		None
  5121 ;; Return value:  Size  Location     Type
  5122 ;;                  2   15[COMRAM] int 
  5123 ;; Registers used:
  5124 ;;		wreg, status,2, status,0
  5125 ;; Tracked objects:
  5126 ;;		On entry : 0/0
  5127 ;;		On exit  : 0/0
  5128 ;;		Unchanged: 0/0
  5129 ;; Data sizes:     COMRAM   BANK0   BANK1   BANK2   BANK3   BANK4   BANK5   BANK6   BANK7
  5130 ;;      Params:         2       0       0       0       0       0       0       0       0
  5131 ;;      Locals:         2       0       0       0       0       0       0       0       0
  5132 ;;      Temps:          4       0       0       0       0       0       0       0       0
  5133 ;;      Totals:         8       0       0       0       0       0       0       0       0
  5134 ;;Total ram usage:        8 bytes
  5135 ;; Hardware stack levels used:    1
  5136 ;; Hardware stack levels required when called:    3
  5137 ;; This function calls:
  5138 ;;		_isupper
  5139 ;; This function is called by:
  5140 ;;		_efgtoa
  5141 ;;		_vfpfcnvrt
  5142 ;; This function uses a non-reentrant model
  5143 ;;
  5144                           
  5145                           	psect	text7
  5146  00422E                     __ptext7:
  5147                           	callstack 0
  5148  00422E                     _tolower:
  5149                           	callstack 24
  5150  00422E  0EBF               	movlw	191
  5151  004230  6E12               	movwf	??_tolower^0,c
  5152  004232  0EFF               	movlw	255
  5153  004234  6E13               	movwf	(??_tolower+1)^0,c
  5154  004236  C010  F014         	movff	tolower@c,??_tolower+2
  5155  00423A  C011  F015         	movff	tolower@c+1,??_tolower+3
  5156  00423E  5012               	movf	??_tolower^0,w,c
  5157  004240  2614               	addwf	(??_tolower+2)^0,f,c
  5158  004242  5013               	movf	(??_tolower+1)^0,w,c
  5159  004244  2215               	addwfc	(??_tolower+3)^0,f,c
  5160  004246  5015               	movf	(??_tolower+3)^0,w,c
  5161  004248  E10A               	bnz	u4420
  5162  00424A  0E1A               	movlw	26
  5163  00424C  5C14               	subwf	(??_tolower+2)^0,w,c
  5164  00424E  A0D8               	btfss	status,0,c
  5165  004250  EF2C  F021         	goto	u4421
  5166  004254  EF2F  F021         	goto	u4420
  5167  004258                     u4421:
  5168  004258  0E01               	movlw	1
  5169  00425A  EF30  F021         	goto	u4430
  5170  00425E                     u4420:
  5171  00425E  0E00               	movlw	0
  5172  004260                     u4430:
  5173  004260  6E16               	movwf	_tolower$1517^0,c
  5174  004262  6A17               	clrf	(_tolower$1517+1)^0,c
  5175  004264  5016               	movf	_tolower$1517^0,w,c
  5176  004266  1017               	iorwf	(_tolower$1517+1)^0,w,c
  5177  004268  B4D8               	btfsc	status,2,c
  5178  00426A  EF39  F021         	goto	u4441
  5179  00426E  EF3B  F021         	goto	u4440
  5180  004272                     u4441:
  5181  004272  EF42  F021         	goto	l1236
  5182  004276                     u4440:
  5183  004276  0E20               	movlw	32
  5184  004278  1010               	iorwf	tolower@c^0,w,c
  5185  00427A  6E10               	movwf	?_tolower^0,c
  5186  00427C  5011               	movf	(tolower@c+1)^0,w,c
  5187  00427E  6E11               	movwf	(?_tolower+1)^0,c
  5188  004280  EF46  F021         	goto	l1241
  5189  004284                     l1236:
  5190  004284  C010  F010         	movff	tolower@c,?_tolower
  5191  004288  C011  F011         	movff	tolower@c+1,?_tolower+1
  5192  00428C                     l1241:
  5193  00428C  0012               	return		;funcret
  5194  00428E                     __end_of_tolower:
  5195                           	callstack 0
  5196                           
  5197 ;; *************** function _isupper *****************
  5198 ;; Defined at:
  5199 ;;		line 5 in file "E:\MPLAB\xc8\pic\sources\c99\common\isupper.c"
  5200 ;; Parameters:    Size  Location     Type
  5201 ;;  c               2    9[COMRAM] int 
  5202 ;; Auto vars:     Size  Location     Type
  5203 ;;		None
  5204 ;; Return value:  Size  Location     Type
  5205 ;;                  2    9[COMRAM] int 
  5206 ;; Registers used:
  5207 ;;		wreg, status,2, status,0
  5208 ;; Tracked objects:
  5209 ;;		On entry : 0/0
  5210 ;;		On exit  : 0/0
  5211 ;;		Unchanged: 0/0
  5212 ;; Data sizes:     COMRAM   BANK0   BANK1   BANK2   BANK3   BANK4   BANK5   BANK6   BANK7
  5213 ;;      Params:         2       0       0       0       0       0       0       0       0
  5214 ;;      Locals:         0       0       0       0       0       0       0       0       0
  5215 ;;      Temps:          4       0       0       0       0       0       0       0       0
  5216 ;;      Totals:         6       0       0       0       0       0       0       0       0
  5217 ;;Total ram usage:        6 bytes
  5218 ;; Hardware stack levels used:    1
  5219 ;; Hardware stack levels required when called:    2
  5220 ;; This function calls:
  5221 ;;		Nothing
  5222 ;; This function is called by:
  5223 ;;		_efgtoa
  5224 ;;		_vfpfcnvrt
  5225 ;;		_tolower
  5226 ;; This function uses a non-reentrant model
  5227 ;;
  5228                           
  5229                           	psect	text8
  5230  0045B8                     __ptext8:
  5231                           	callstack 0
  5232  0045B8                     _isupper:
  5233                           	callstack 24
  5234  0045B8  0EBF               	movlw	191
  5235  0045BA  6E0C               	movwf	??_isupper^0,c
  5236  0045BC  0EFF               	movlw	255
  5237  0045BE  6E0D               	movwf	(??_isupper+1)^0,c
  5238  0045C0  C00A  F00E         	movff	isupper@c,??_isupper+2
  5239  0045C4  C00B  F00F         	movff	isupper@c+1,??_isupper+3
  5240  0045C8  500C               	movf	??_isupper^0,w,c
  5241  0045CA  260E               	addwf	(??_isupper+2)^0,f,c
  5242  0045CC  500D               	movf	(??_isupper+1)^0,w,c
  5243  0045CE  220F               	addwfc	(??_isupper+3)^0,f,c
  5244  0045D0  500F               	movf	(??_isupper+3)^0,w,c
  5245  0045D2  E10A               	bnz	u3430
  5246  0045D4  0E1A               	movlw	26
  5247  0045D6  5C0E               	subwf	(??_isupper+2)^0,w,c
  5248  0045D8  A0D8               	btfss	status,0,c
  5249  0045DA  EFF1  F022         	goto	u3431
  5250  0045DE  EFF4  F022         	goto	u3430
  5251  0045E2                     u3431:
  5252  0045E2  0E01               	movlw	1
  5253  0045E4  EFF5  F022         	goto	u3440
  5254  0045E8                     u3430:
  5255  0045E8  0E00               	movlw	0
  5256  0045EA                     u3440:
  5257  0045EA  6E0A               	movwf	?_isupper^0,c
  5258  0045EC  6A0B               	clrf	(?_isupper+1)^0,c
  5259  0045EE  0012               	return		;funcret
  5260  0045F0                     __end_of_isupper:
  5261                           	callstack 0
  5262                           
  5263 ;; *************** function _strcpy *****************
  5264 ;; Defined at:
  5265 ;;		line 3 in file "E:\MPLAB\xc8\pic\sources\c99\common\strcpy.c"
  5266 ;; Parameters:    Size  Location     Type
  5267 ;;  dest            2   13[COMRAM] PTR unsigned char 
  5268 ;;		 -> dbuf(80), main@minuteWatts(10), main@currentWatts(10), 
  5269 ;;  src             2   15[COMRAM] PTR const unsigned char 
  5270 ;;		 -> STR_24(4), STR_23(4), STR_20(4), STR_19(4), 
  5271 ;;		 -> dbuf(80), STR_7(5), STR_4(4), 
  5272 ;; Auto vars:     Size  Location     Type
  5273 ;;  d               2   21[COMRAM] PTR unsigned char 
  5274 ;;		 -> dbuf(80), main@minuteWatts(10), main@currentWatts(10), 
  5275 ;;  s               2   19[COMRAM] PTR const unsigned char 
  5276 ;;		 -> STR_24(4), STR_23(4), STR_20(4), STR_19(4), 
  5277 ;;		 -> dbuf(80), STR_7(5), STR_4(4), 
  5278 ;; Return value:  Size  Location     Type
  5279 ;;                  2   13[COMRAM] PTR unsigned char 
  5280 ;; Registers used:
  5281 ;;		wreg, fsr1l, fsr1h, fsr2l, fsr2h, status,2, status,0, tblptrl, tblptrh, tblptru
  5282 ;; Tracked objects:
  5283 ;;		On entry : 0/0
  5284 ;;		On exit  : 0/0
  5285 ;;		Unchanged: 0/0
  5286 ;; Data sizes:     COMRAM   BANK0   BANK1   BANK2   BANK3   BANK4   BANK5   BANK6   BANK7
  5287 ;;      Params:         4       0       0       0       0       0       0       0       0
  5288 ;;      Locals:         4       0       0       0       0       0       0       0       0
  5289 ;;      Temps:          2       0       0       0       0       0       0       0       0
  5290 ;;      Totals:        10       0       0       0       0       0       0       0       0
  5291 ;;Total ram usage:       10 bytes
  5292 ;; Hardware stack levels used:    1
  5293 ;; Hardware stack levels required when called:    2
  5294 ;; This function calls:
  5295 ;;		Nothing
  5296 ;; This function is called by:
  5297 ;;		_efgtoa
  5298 ;;		_strcat
  5299 ;; This function uses a non-reentrant model
  5300 ;;
  5301                           
  5302                           	psect	text9
  5303  0042EC                     __ptext9:
  5304                           	callstack 0
  5305  0042EC                     _strcpy:
  5306                           	callstack 27
  5307  0042EC  C010  F014         	movff	strcpy@src,strcpy@s
  5308  0042F0  C011  F015         	movff	strcpy@src+1,strcpy@s+1
  5309  0042F4  C00E  F016         	movff	strcpy@dest,strcpy@d
  5310  0042F8  C00F  F017         	movff	strcpy@dest+1,strcpy@d+1
  5311  0042FC                     l4088:
  5312  0042FC  5014               	movf	strcpy@s^0,w,c
  5313  0042FE  6E12               	movwf	??_strcpy^0,c
  5314  004300  5015               	movf	(strcpy@s+1)^0,w,c
  5315  004302  6E13               	movwf	(??_strcpy+1)^0,c
  5316  004304  4A14               	infsnz	strcpy@s^0,f,c
  5317  004306  2A15               	incf	(strcpy@s+1)^0,f,c
  5318  004308  C012  FFF6         	movff	??_strcpy,tblptrl
  5319  00430C  C013  FFF7         	movff	??_strcpy+1,tblptrh
  5320  004310  6AF8               	clrf	tblptru,c
  5321  004312  C016  FFD9         	movff	strcpy@d,fsr2l
  5322  004316  C017  FFDA         	movff	strcpy@d+1,fsr2h
  5323  00431A  4A16               	infsnz	strcpy@d^0,f,c
  5324  00431C  2A17               	incf	(strcpy@d+1)^0,f,c
  5325  00431E  0E07               	movlw	(high __ramtop+-1)
  5326  004320  64F7               	cpfsgt	tblptrh,c
  5327  004322  D003               	bra	u4407
  5328  004324  0008               	tblrd		*
  5329  004326  50F5               	movf	tablat,w,c
  5330  004328  D005               	bra	u4400
  5331  00432A                     u4407:
  5332  00432A  CFF6 FFE1          	movff	tblptrl,fsr1l
  5333  00432E  CFF7 FFE2          	movff	tblptrh,fsr1h
  5334  004332  50E7               	movf	indf1,w,c
  5335  004334                     u4400:
  5336  004334  6EDF               	movwf	indf2,c
  5337  004336  50DF               	movf	indf2,w,c
  5338  004338  A4D8               	btfss	status,2,c
  5339  00433A  EFA1  F021         	goto	u4411
  5340  00433E  EFA3  F021         	goto	u4410
  5341  004342                     u4411:
  5342  004342  EF7E  F021         	goto	l4088
  5343  004346                     u4410:
  5344  004346  0012               	return		;funcret
  5345  004348                     __end_of_strcpy:
  5346                           	callstack 0
  5347                           
  5348 ;; *************** function _floorf *****************
  5349 ;; Defined at:
  5350 ;;		line 3 in file "E:\MPLAB\xc8\pic\sources\c99\common\floorf.c"
  5351 ;; Parameters:    Size  Location     Type
  5352 ;;  x               4   68[COMRAM] float 
  5353 ;; Auto vars:     Size  Location     Type
  5354 ;;  u               4   25[BANK0 ] struct .
  5355 ;;  m               4   19[BANK0 ] unsigned long 
  5356 ;;  e               2   23[BANK0 ] int 
  5357 ;; Return value:  Size  Location     Type
  5358 ;;                  4   68[COMRAM] float 
  5359 ;; Registers used:
  5360 ;;		wreg, status,2, status,0
  5361 ;; Tracked objects:
  5362 ;;		On entry : 0/0
  5363 ;;		On exit  : 0/0
  5364 ;;		Unchanged: 0/0
  5365 ;; Data sizes:     COMRAM   BANK0   BANK1   BANK2   BANK3   BANK4   BANK5   BANK6   BANK7
  5366 ;;      Params:         4       0       0       0       0       0       0       0       0
  5367 ;;      Locals:         0      10       0       0       0       0       0       0       0
  5368 ;;      Temps:          0       6       0       0       0       0       0       0       0
  5369 ;;      Totals:         4      16       0       0       0       0       0       0       0
  5370 ;;Total ram usage:       20 bytes
  5371 ;; Hardware stack levels used:    1
  5372 ;; Hardware stack levels required when called:    2
  5373 ;; This function calls:
  5374 ;;		Nothing
  5375 ;; This function is called by:
  5376 ;;		_efgtoa
  5377 ;; This function uses a non-reentrant model
  5378 ;;
  5379                           
  5380                           	psect	text10
  5381  00309E                     __ptext10:
  5382                           	callstack 0
  5383  00309E                     _floorf:
  5384                           	callstack 24
  5385  00309E  C0F4  F079         	movff	floorf@F524,floorf@u
  5386  0030A2  C0F5  F07A         	movff	floorf@F524+1,floorf@u+1
  5387  0030A6  C0F6  F07B         	movff	floorf@F524+2,floorf@u+2
  5388  0030AA  C0F7  F07C         	movff	floorf@F524+3,floorf@u+3
  5389  0030AE  C045  F079         	movff	floorf@x,floorf@u
  5390  0030B2  C046  F07A         	movff	floorf@x+1,floorf@u+1
  5391  0030B6  C047  F07B         	movff	floorf@x+2,floorf@u+2
  5392  0030BA  C048  F07C         	movff	floorf@x+3,floorf@u+3
  5393  0030BE  0E81               	movlw	129
  5394  0030C0  0100               	movlb	0	; () banked
  5395  0030C2  6F6D               	movwf	??_floorf& (0+255),b
  5396  0030C4  0EFF               	movlw	255
  5397  0030C6  6F6E               	movwf	(??_floorf+1)& (0+255),b
  5398  0030C8  C079  F06F         	movff	floorf@u,??_floorf+2
  5399  0030CC  C07A  F070         	movff	floorf@u+1,??_floorf+3
  5400  0030D0  C07B  F071         	movff	floorf@u+2,??_floorf+4
  5401  0030D4  C07C  F072         	movff	floorf@u+3,??_floorf+5
  5402  0030D8  0E18               	movlw	24
  5403  0030DA  EF74  F018         	goto	u4450
  5404  0030DE                     u4455:
  5405  0030DE  90D8               	bcf	status,0,c
  5406  0030E0  3372               	rrcf	(??_floorf+5)& (0+255),f,b
  5407  0030E2  3371               	rrcf	(??_floorf+4)& (0+255),f,b
  5408  0030E4  3370               	rrcf	(??_floorf+3)& (0+255),f,b
  5409  0030E6  336F               	rrcf	(??_floorf+2)& (0+255),f,b
  5410  0030E8                     u4450:
  5411  0030E8  2EE8               	decfsz	wreg,f,c
  5412  0030EA  EF6F  F018         	goto	u4455
  5413  0030EE  516F               	movf	(??_floorf+2)& (0+255),w,b
  5414  0030F0  256D               	addwf	??_floorf& (0+255),w,b
  5415  0030F2  6F77               	movwf	floorf@e& (0+255),b
  5416  0030F4  0E00               	movlw	0
  5417  0030F6  216E               	addwfc	(??_floorf+1)& (0+255),w,b
  5418  0030F8  6F78               	movwf	(floorf@e+1)& (0+255),b
  5419  0030FA  BF78               	btfsc	(floorf@e+1)& (0+255),7,b
  5420  0030FC  EF89  F018         	goto	u4461
  5421  003100  5178               	movf	(floorf@e+1)& (0+255),w,b
  5422  003102  E109               	bnz	u4460
  5423  003104  0E17               	movlw	23
  5424  003106  5D77               	subwf	floorf@e& (0+255),w,b
  5425  003108  A0D8               	btfss	status,0,c
  5426  00310A  EF89  F018         	goto	u4461
  5427  00310E  EF8B  F018         	goto	u4460
  5428  003112                     u4461:
  5429  003112  EF95  F018         	goto	l4106
  5430  003116                     u4460:
  5431  003116                     l4104:
  5432                           
  5433                           ; BSR set to: 0
  5434  003116  C045  F045         	movff	floorf@x,?_floorf
  5435  00311A  C046  F046         	movff	floorf@x+1,?_floorf+1
  5436  00311E  C047  F047         	movff	floorf@x+2,?_floorf+2
  5437  003122  C048  F048         	movff	floorf@x+3,?_floorf+3
  5438  003126  EF59  F019         	goto	l1153
  5439  00312A                     l4106:
  5440                           
  5441                           ; BSR set to: 0
  5442  00312A  BF78               	btfsc	(floorf@e+1)& (0+255),7,b
  5443  00312C  EF9A  F018         	goto	u4471
  5444  003130  EF9C  F018         	goto	u4470
  5445  003134                     u4471:
  5446  003134  EF0D  F019         	goto	l4116
  5447  003138                     u4470:
  5448  003138                     
  5449                           ; BSR set to: 0
  5450  003138  C077  F06D         	movff	floorf@e,??_floorf
  5451  00313C  0EFF               	movlw	255
  5452  00313E  6F6E               	movwf	(??_floorf+1)& (0+255),b
  5453  003140  0EFF               	movlw	255
  5454  003142  6F6F               	movwf	(??_floorf+2)& (0+255),b
  5455  003144  0E7F               	movlw	127
  5456  003146  6F70               	movwf	(??_floorf+3)& (0+255),b
  5457  003148  0E00               	movlw	0
  5458  00314A  6F71               	movwf	(??_floorf+4)& (0+255),b
  5459  00314C                     u4485:
  5460  00314C  676D               	tstfsz	??_floorf& (0+255),b
  5461  00314E  EFAB  F018         	goto	u4486
  5462  003152  EFB3  F018         	goto	u4487
  5463  003156                     u4486:
  5464  003156  3571               	rlcf	(??_floorf+4)& (0+255),w,b
  5465  003158  3371               	rrcf	(??_floorf+4)& (0+255),f,b
  5466  00315A  3370               	rrcf	(??_floorf+3)& (0+255),f,b
  5467  00315C  336F               	rrcf	(??_floorf+2)& (0+255),f,b
  5468  00315E  336E               	rrcf	(??_floorf+1)& (0+255),f,b
  5469  003160  2F6D               	decfsz	??_floorf& (0+255),f,b
  5470  003162  EFA6  F018         	goto	u4485
  5471  003166                     u4487:
  5472  003166  C06E  F073         	movff	??_floorf+1,floorf@m
  5473  00316A  C06F  F074         	movff	??_floorf+2,floorf@m+1
  5474  00316E  C070  F075         	movff	??_floorf+3,floorf@m+2
  5475  003172  C071  F076         	movff	??_floorf+4,floorf@m+3
  5476  003176  0100               	movlb	0	; () banked
  5477  003178  5173               	movf	floorf@m& (0+255),w,b
  5478  00317A  1579               	andwf	floorf@u& (0+255),w,b
  5479  00317C  6F6D               	movwf	??_floorf& (0+255),b
  5480  00317E  5174               	movf	(floorf@m+1)& (0+255),w,b
  5481  003180  157A               	andwf	(floorf@u+1)& (0+255),w,b
  5482  003182  6F6E               	movwf	(??_floorf+1)& (0+255),b
  5483  003184  5175               	movf	(floorf@m+2)& (0+255),w,b
  5484  003186  157B               	andwf	(floorf@u+2)& (0+255),w,b
  5485  003188  6F6F               	movwf	(??_floorf+2)& (0+255),b
  5486  00318A  5176               	movf	(floorf@m+3)& (0+255),w,b
  5487  00318C  157C               	andwf	(floorf@u+3)& (0+255),w,b
  5488  00318E  6F70               	movwf	(??_floorf+3)& (0+255),b
  5489  003190  516D               	movf	??_floorf& (0+255),w,b
  5490  003192  116E               	iorwf	(??_floorf+1)& (0+255),w,b
  5491  003194  116F               	iorwf	(??_floorf+2)& (0+255),w,b
  5492  003196  1170               	iorwf	(??_floorf+3)& (0+255),w,b
  5493  003198  A4D8               	btfss	status,2,c
  5494  00319A  EFD1  F018         	goto	u4491
  5495  00319E  EFD3  F018         	goto	u4490
  5496  0031A2                     u4491:
  5497  0031A2  EFD5  F018         	goto	l4112
  5498  0031A6                     u4490:
  5499  0031A6  EF8B  F018         	goto	l4104
  5500  0031AA                     l4112:
  5501                           
  5502                           ; BSR set to: 0
  5503  0031AA  C079  F06D         	movff	floorf@u,??_floorf
  5504  0031AE  C07A  F06E         	movff	floorf@u+1,??_floorf+1
  5505  0031B2  C07B  F06F         	movff	floorf@u+2,??_floorf+2
  5506  0031B6  C07C  F070         	movff	floorf@u+3,??_floorf+3
  5507  0031BA  0E20               	movlw	32
  5508  0031BC  EFE5  F018         	goto	u4500
  5509  0031C0                     u4505:
  5510  0031C0  90D8               	bcf	status,0,c
  5511  0031C2  3370               	rrcf	(??_floorf+3)& (0+255),f,b
  5512  0031C4  336F               	rrcf	(??_floorf+2)& (0+255),f,b
  5513  0031C6  336E               	rrcf	(??_floorf+1)& (0+255),f,b
  5514  0031C8  336D               	rrcf	??_floorf& (0+255),f,b
  5515  0031CA                     u4500:
  5516  0031CA  2EE8               	decfsz	wreg,f,c
  5517  0031CC  EFE0  F018         	goto	u4505
  5518  0031D0  516D               	movf	??_floorf& (0+255),w,b
  5519  0031D2  116E               	iorwf	(??_floorf+1)& (0+255),w,b
  5520  0031D4  116F               	iorwf	(??_floorf+2)& (0+255),w,b
  5521  0031D6  1170               	iorwf	(??_floorf+3)& (0+255),w,b
  5522  0031D8  B4D8               	btfsc	status,2,c
  5523  0031DA  EFF1  F018         	goto	u4511
  5524  0031DE  EFF3  F018         	goto	u4510
  5525  0031E2                     u4511:
  5526  0031E2  EFFB  F018         	goto	l1156
  5527  0031E6                     u4510:
  5528  0031E6                     
  5529                           ; BSR set to: 0
  5530  0031E6  5173               	movf	floorf@m& (0+255),w,b
  5531  0031E8  2779               	addwf	floorf@u& (0+255),f,b
  5532  0031EA  5174               	movf	(floorf@m+1)& (0+255),w,b
  5533  0031EC  237A               	addwfc	(floorf@u+1)& (0+255),f,b
  5534  0031EE  5175               	movf	(floorf@m+2)& (0+255),w,b
  5535  0031F0  237B               	addwfc	(floorf@u+2)& (0+255),f,b
  5536  0031F2  5176               	movf	(floorf@m+3)& (0+255),w,b
  5537  0031F4  237C               	addwfc	(floorf@u+3)& (0+255),f,b
  5538  0031F6                     l1156:
  5539                           
  5540                           ; BSR set to: 0
  5541  0031F6  1D73               	comf	floorf@m& (0+255),w,b
  5542  0031F8  6F6D               	movwf	??_floorf& (0+255),b
  5543  0031FA  1D74               	comf	(floorf@m+1)& (0+255),w,b
  5544  0031FC  6F6E               	movwf	(??_floorf+1)& (0+255),b
  5545  0031FE  1D75               	comf	(floorf@m+2)& (0+255),w,b
  5546  003200  6F6F               	movwf	(??_floorf+2)& (0+255),b
  5547  003202  1D76               	comf	(floorf@m+3)& (0+255),w,b
  5548  003204  6F70               	movwf	(??_floorf+3)& (0+255),b
  5549  003206  516D               	movf	??_floorf& (0+255),w,b
  5550  003208  1779               	andwf	floorf@u& (0+255),f,b
  5551  00320A  516E               	movf	(??_floorf+1)& (0+255),w,b
  5552  00320C  177A               	andwf	(floorf@u+1)& (0+255),f,b
  5553  00320E  516F               	movf	(??_floorf+2)& (0+255),w,b
  5554  003210  177B               	andwf	(floorf@u+2)& (0+255),f,b
  5555  003212  5170               	movf	(??_floorf+3)& (0+255),w,b
  5556  003214  177C               	andwf	(floorf@u+3)& (0+255),f,b
  5557  003216  EF51  F019         	goto	l4124
  5558  00321A                     l4116:
  5559                           
  5560                           ; BSR set to: 0
  5561  00321A  C079  F06D         	movff	floorf@u,??_floorf
  5562  00321E  C07A  F06E         	movff	floorf@u+1,??_floorf+1
  5563  003222  C07B  F06F         	movff	floorf@u+2,??_floorf+2
  5564  003226  C07C  F070         	movff	floorf@u+3,??_floorf+3
  5565  00322A  0E20               	movlw	32
  5566  00322C  EF1D  F019         	goto	u4520
  5567  003230                     u4525:
  5568  003230  90D8               	bcf	status,0,c
  5569  003232  3370               	rrcf	(??_floorf+3)& (0+255),f,b
  5570  003234  336F               	rrcf	(??_floorf+2)& (0+255),f,b
  5571  003236  336E               	rrcf	(??_floorf+1)& (0+255),f,b
  5572  003238  336D               	rrcf	??_floorf& (0+255),f,b
  5573  00323A                     u4520:
  5574  00323A  2EE8               	decfsz	wreg,f,c
  5575  00323C  EF18  F019         	goto	u4525
  5576  003240  516D               	movf	??_floorf& (0+255),w,b
  5577  003242  116E               	iorwf	(??_floorf+1)& (0+255),w,b
  5578  003244  116F               	iorwf	(??_floorf+2)& (0+255),w,b
  5579  003246  1170               	iorwf	(??_floorf+3)& (0+255),w,b
  5580  003248  A4D8               	btfss	status,2,c
  5581  00324A  EF29  F019         	goto	u4531
  5582  00324E  EF2B  F019         	goto	u4530
  5583  003252                     u4531:
  5584  003252  EF35  F019         	goto	l4120
  5585  003256                     u4530:
  5586  003256                     
  5587                           ; BSR set to: 0
  5588  003256  0E00               	movlw	0
  5589  003258  6F79               	movwf	floorf@u& (0+255),b
  5590  00325A  0E00               	movlw	0
  5591  00325C  6F7A               	movwf	(floorf@u+1)& (0+255),b
  5592  00325E  0E00               	movlw	0
  5593  003260  6F7B               	movwf	(floorf@u+2)& (0+255),b
  5594  003262  0E00               	movlw	0
  5595  003264  6F7C               	movwf	(floorf@u+3)& (0+255),b
  5596  003266  EF51  F019         	goto	l4124
  5597  00326A                     l4120:
  5598                           
  5599                           ; BSR set to: 0
  5600  00326A  90D8               	bcf	status,0,c
  5601  00326C  3579               	rlcf	floorf@u& (0+255),w,b
  5602  00326E  6F6D               	movwf	??_floorf& (0+255),b
  5603  003270  357A               	rlcf	(floorf@u+1)& (0+255),w,b
  5604  003272  6F6E               	movwf	(??_floorf+1)& (0+255),b
  5605  003274  357B               	rlcf	(floorf@u+2)& (0+255),w,b
  5606  003276  6F6F               	movwf	(??_floorf+2)& (0+255),b
  5607  003278  357C               	rlcf	(floorf@u+3)& (0+255),w,b
  5608  00327A  6F70               	movwf	(??_floorf+3)& (0+255),b
  5609  00327C  516D               	movf	??_floorf& (0+255),w,b
  5610  00327E  116E               	iorwf	(??_floorf+1)& (0+255),w,b
  5611  003280  116F               	iorwf	(??_floorf+2)& (0+255),w,b
  5612  003282  1170               	iorwf	(??_floorf+3)& (0+255),w,b
  5613  003284  B4D8               	btfsc	status,2,c
  5614  003286  EF47  F019         	goto	u4541
  5615  00328A  EF49  F019         	goto	u4540
  5616  00328E                     u4541:
  5617  00328E  EF51  F019         	goto	l4124
  5618  003292                     u4540:
  5619  003292                     
  5620                           ; BSR set to: 0
  5621  003292  0E00               	movlw	0
  5622  003294  6F79               	movwf	floorf@u& (0+255),b
  5623  003296  0E00               	movlw	0
  5624  003298  6F7A               	movwf	(floorf@u+1)& (0+255),b
  5625  00329A  0E80               	movlw	128
  5626  00329C  6F7B               	movwf	(floorf@u+2)& (0+255),b
  5627  00329E  0EBF               	movlw	191
  5628  0032A0  6F7C               	movwf	(floorf@u+3)& (0+255),b
  5629  0032A2                     l4124:
  5630                           
  5631                           ; BSR set to: 0
  5632  0032A2  C079  F045         	movff	floorf@u,?_floorf
  5633  0032A6  C07A  F046         	movff	floorf@u+1,?_floorf+1
  5634  0032AA  C07B  F047         	movff	floorf@u+2,?_floorf+2
  5635  0032AE  C07C  F048         	movff	floorf@u+3,?_floorf+3
  5636  0032B2                     l1153:
  5637                           
  5638                           ; BSR set to: 0
  5639  0032B2  0012               	return		;funcret
  5640  0032B4                     __end_of_floorf:
  5641                           	callstack 0
  5642                           
  5643 ;; *************** function ___fpclassifyf *****************
  5644 ;; Defined at:
  5645 ;;		line 4 in file "E:\MPLAB\xc8\pic\sources\c99\common\__fpclassifyf.c"
  5646 ;; Parameters:    Size  Location     Type
  5647 ;;  x               4    9[COMRAM] float 
  5648 ;; Auto vars:     Size  Location     Type
  5649 ;;  u               4   19[COMRAM] struct .
  5650 ;;  e               2   17[COMRAM] int 
  5651 ;; Return value:  Size  Location     Type
  5652 ;;                  2    9[COMRAM] int 
  5653 ;; Registers used:
  5654 ;;		wreg, status,2, status,0
  5655 ;; Tracked objects:
  5656 ;;		On entry : 0/0
  5657 ;;		On exit  : 0/0
  5658 ;;		Unchanged: 0/0
  5659 ;; Data sizes:     COMRAM   BANK0   BANK1   BANK2   BANK3   BANK4   BANK5   BANK6   BANK7
  5660 ;;      Params:         4       0       0       0       0       0       0       0       0
  5661 ;;      Locals:         6       0       0       0       0       0       0       0       0
  5662 ;;      Temps:          4       0       0       0       0       0       0       0       0
  5663 ;;      Totals:        14       0       0       0       0       0       0       0       0
  5664 ;;Total ram usage:       14 bytes
  5665 ;; Hardware stack levels used:    1
  5666 ;; Hardware stack levels required when called:    2
  5667 ;; This function calls:
  5668 ;;		Nothing
  5669 ;; This function is called by:
  5670 ;;		_efgtoa
  5671 ;; This function uses a non-reentrant model
  5672 ;;
  5673                           
  5674                           	psect	text11
  5675  003AEE                     __ptext11:
  5676                           	callstack 0
  5677  003AEE                     ___fpclassifyf:
  5678                           	callstack 24
  5679  003AEE  C0F8  F014         	movff	___fpclassifyf@F463,___fpclassifyf@u
  5680  003AF2  C0F9  F015         	movff	___fpclassifyf@F463+1,___fpclassifyf@u+1
  5681  003AF6  C0FA  F016         	movff	___fpclassifyf@F463+2,___fpclassifyf@u+2
  5682  003AFA  C0FB  F017         	movff	___fpclassifyf@F463+3,___fpclassifyf@u+3
  5683  003AFE  C00A  F014         	movff	___fpclassifyf@x,___fpclassifyf@u
  5684  003B02  C00B  F015         	movff	___fpclassifyf@x+1,___fpclassifyf@u+1
  5685  003B06  C00C  F016         	movff	___fpclassifyf@x+2,___fpclassifyf@u+2
  5686  003B0A  C00D  F017         	movff	___fpclassifyf@x+3,___fpclassifyf@u+3
  5687  003B0E  C014  F00E         	movff	___fpclassifyf@u,??___fpclassifyf
  5688  003B12  C015  F00F         	movff	___fpclassifyf@u+1,??___fpclassifyf+1
  5689  003B16  C016  F010         	movff	___fpclassifyf@u+2,??___fpclassifyf+2
  5690  003B1A  C017  F011         	movff	___fpclassifyf@u+3,??___fpclassifyf+3
  5691  003B1E  0E18               	movlw	24
  5692  003B20  EF97  F01D         	goto	u4330
  5693  003B24                     u4335:
  5694  003B24  90D8               	bcf	status,0,c
  5695  003B26  3211               	rrcf	(??___fpclassifyf+3)^0,f,c
  5696  003B28  3210               	rrcf	(??___fpclassifyf+2)^0,f,c
  5697  003B2A  320F               	rrcf	(??___fpclassifyf+1)^0,f,c
  5698  003B2C  320E               	rrcf	??___fpclassifyf^0,f,c
  5699  003B2E                     u4330:
  5700  003B2E  2EE8               	decfsz	wreg,f,c
  5701  003B30  EF92  F01D         	goto	u4335
  5702  003B34  500E               	movf	??___fpclassifyf^0,w,c
  5703  003B36  6E12               	movwf	___fpclassifyf@e^0,c
  5704  003B38  6A13               	clrf	(___fpclassifyf@e+1)^0,c
  5705  003B3A  5012               	movf	___fpclassifyf@e^0,w,c
  5706  003B3C  1013               	iorwf	(___fpclassifyf@e+1)^0,w,c
  5707  003B3E  A4D8               	btfss	status,2,c
  5708  003B40  EFA4  F01D         	goto	u4341
  5709  003B44  EFA6  F01D         	goto	u4340
  5710  003B48                     u4341:
  5711  003B48  EFC6  F01D         	goto	l4076
  5712  003B4C                     u4340:
  5713  003B4C  90D8               	bcf	status,0,c
  5714  003B4E  3414               	rlcf	___fpclassifyf@u^0,w,c
  5715  003B50  6E0E               	movwf	??___fpclassifyf^0,c
  5716  003B52  3415               	rlcf	(___fpclassifyf@u+1)^0,w,c
  5717  003B54  6E0F               	movwf	(??___fpclassifyf+1)^0,c
  5718  003B56  3416               	rlcf	(___fpclassifyf@u+2)^0,w,c
  5719  003B58  6E10               	movwf	(??___fpclassifyf+2)^0,c
  5720  003B5A  3417               	rlcf	(___fpclassifyf@u+3)^0,w,c
  5721  003B5C  6E11               	movwf	(??___fpclassifyf+3)^0,c
  5722  003B5E  500E               	movf	??___fpclassifyf^0,w,c
  5723  003B60  100F               	iorwf	(??___fpclassifyf+1)^0,w,c
  5724  003B62  1010               	iorwf	(??___fpclassifyf+2)^0,w,c
  5725  003B64  1011               	iorwf	(??___fpclassifyf+3)^0,w,c
  5726  003B66  A4D8               	btfss	status,2,c
  5727  003B68  EFB8  F01D         	goto	u4351
  5728  003B6C  EFBA  F01D         	goto	u4350
  5729  003B70                     u4351:
  5730  003B70  EFC0  F01D         	goto	l4072
  5731  003B74                     u4350:
  5732  003B74  0E00               	movlw	0
  5733  003B76  6E0B               	movwf	(?___fpclassifyf+1)^0,c
  5734  003B78  0E02               	movlw	2
  5735  003B7A  6E0A               	movwf	?___fpclassifyf^0,c
  5736  003B7C  EFF5  F01D         	goto	l1108
  5737  003B80                     l4072:
  5738  003B80  0E00               	movlw	0
  5739  003B82  6E0B               	movwf	(?___fpclassifyf+1)^0,c
  5740  003B84  0E03               	movlw	3
  5741  003B86  6E0A               	movwf	?___fpclassifyf^0,c
  5742  003B88  EFF5  F01D         	goto	l1108
  5743  003B8C                     l4076:
  5744  003B8C  2812               	incf	___fpclassifyf@e^0,w,c
  5745  003B8E  1013               	iorwf	(___fpclassifyf@e+1)^0,w,c
  5746  003B90  A4D8               	btfss	status,2,c
  5747  003B92  EFCD  F01D         	goto	u4361
  5748  003B96  EFCF  F01D         	goto	u4360
  5749  003B9A                     u4361:
  5750  003B9A  EFF1  F01D         	goto	l4082
  5751  003B9E                     u4360:
  5752  003B9E  C014  F00E         	movff	___fpclassifyf@u,??___fpclassifyf
  5753  003BA2  C015  F00F         	movff	___fpclassifyf@u+1,??___fpclassifyf+1
  5754  003BA6  C016  F010         	movff	___fpclassifyf@u+2,??___fpclassifyf+2
  5755  003BAA  C017  F011         	movff	___fpclassifyf@u+3,??___fpclassifyf+3
  5756  003BAE  0E09               	movlw	9
  5757  003BB0                     u4375:
  5758  003BB0  90D8               	bcf	status,0,c
  5759  003BB2  360E               	rlcf	??___fpclassifyf^0,f,c
  5760  003BB4  360F               	rlcf	(??___fpclassifyf+1)^0,f,c
  5761  003BB6  3610               	rlcf	(??___fpclassifyf+2)^0,f,c
  5762  003BB8  3611               	rlcf	(??___fpclassifyf+3)^0,f,c
  5763  003BBA  2EE8               	decfsz	wreg,f,c
  5764  003BBC  EFD8  F01D         	goto	u4375
  5765  003BC0  500E               	movf	??___fpclassifyf^0,w,c
  5766  003BC2  100F               	iorwf	(??___fpclassifyf+1)^0,w,c
  5767  003BC4  1010               	iorwf	(??___fpclassifyf+2)^0,w,c
  5768  003BC6  1011               	iorwf	(??___fpclassifyf+3)^0,w,c
  5769  003BC8  B4D8               	btfsc	status,2,c
  5770  003BCA  EFE9  F01D         	goto	u4381
  5771  003BCE  EFEC  F01D         	goto	u4380
  5772  003BD2                     u4381:
  5773  003BD2  0E01               	movlw	1
  5774  003BD4  EFED  F01D         	goto	u4390
  5775  003BD8                     u4380:
  5776  003BD8  0E00               	movlw	0
  5777  003BDA                     u4390:
  5778  003BDA  6E0A               	movwf	?___fpclassifyf^0,c
  5779  003BDC  6A0B               	clrf	(?___fpclassifyf+1)^0,c
  5780  003BDE  EFF5  F01D         	goto	l1108
  5781  003BE2                     l4082:
  5782  003BE2  0E00               	movlw	0
  5783  003BE4  6E0B               	movwf	(?___fpclassifyf+1)^0,c
  5784  003BE6  0E04               	movlw	4
  5785  003BE8  6E0A               	movwf	?___fpclassifyf^0,c
  5786  003BEA                     l1108:
  5787  003BEA  0012               	return		;funcret
  5788  003BEC                     __end_of___fpclassifyf:
  5789                           	callstack 0
  5790                           
  5791 ;; *************** function ___fltol *****************
  5792 ;; Defined at:
  5793 ;;		line 43 in file "E:\MPLAB\xc8\pic\sources\c99\common\fltol.c"
  5794 ;; Parameters:    Size  Location     Type
  5795 ;;  f1              4    9[COMRAM] int 
  5796 ;; Auto vars:     Size  Location     Type
  5797 ;;  exp1            1   18[COMRAM] unsigned char 
  5798 ;;  sign1           1   17[COMRAM] unsigned char 
  5799 ;; Return value:  Size  Location     Type
  5800 ;;                  4    9[COMRAM] long 
  5801 ;; Registers used:
  5802 ;;		wreg, status,2, status,0
  5803 ;; Tracked objects:
  5804 ;;		On entry : 0/0
  5805 ;;		On exit  : 0/0
  5806 ;;		Unchanged: 0/0
  5807 ;; Data sizes:     COMRAM   BANK0   BANK1   BANK2   BANK3   BANK4   BANK5   BANK6   BANK7
  5808 ;;      Params:         4       0       0       0       0       0       0       0       0
  5809 ;;      Locals:         2       0       0       0       0       0       0       0       0
  5810 ;;      Temps:          4       0       0       0       0       0       0       0       0
  5811 ;;      Totals:        10       0       0       0       0       0       0       0       0
  5812 ;;Total ram usage:       10 bytes
  5813 ;; Hardware stack levels used:    1
  5814 ;; Hardware stack levels required when called:    2
  5815 ;; This function calls:
  5816 ;;		Nothing
  5817 ;; This function is called by:
  5818 ;;		_efgtoa
  5819 ;; This function uses a non-reentrant model
  5820 ;;
  5821                           
  5822                           	psect	text12
  5823  0038E4                     __ptext12:
  5824                           	callstack 0
  5825  0038E4                     ___fltol:
  5826                           	callstack 24
  5827  0038E4  340C               	rlcf	(___fltol@f1+2)^0,w,c
  5828  0038E6  340D               	rlcf	(___fltol@f1+3)^0,w,c
  5829  0038E8  6E13               	movwf	___fltol@exp1^0,c
  5830  0038EA  5013               	movf	___fltol@exp1^0,w,c
  5831  0038EC  A4D8               	btfss	status,2,c
  5832  0038EE  EF7B  F01C         	goto	u4211
  5833  0038F2  EF7D  F01C         	goto	u4210
  5834  0038F6                     u4211:
  5835  0038F6  EF87  F01C         	goto	l4000
  5836  0038FA                     u4210:
  5837  0038FA                     l3996:
  5838  0038FA  0E00               	movlw	0
  5839  0038FC  6E0A               	movwf	?___fltol^0,c
  5840  0038FE  0E00               	movlw	0
  5841  003900  6E0B               	movwf	(?___fltol+1)^0,c
  5842  003902  0E00               	movlw	0
  5843  003904  6E0C               	movwf	(?___fltol+2)^0,c
  5844  003906  0E00               	movlw	0
  5845  003908  6E0D               	movwf	(?___fltol+3)^0,c
  5846  00390A  EFF4  F01C         	goto	l518
  5847  00390E                     l4000:
  5848  00390E  C00A  F00E         	movff	___fltol@f1,??___fltol
  5849  003912  C00B  F00F         	movff	___fltol@f1+1,??___fltol+1
  5850  003916  C00C  F010         	movff	___fltol@f1+2,??___fltol+2
  5851  00391A  C00D  F011         	movff	___fltol@f1+3,??___fltol+3
  5852  00391E  0E20               	movlw	32
  5853  003920  EF97  F01C         	goto	u4220
  5854  003924                     u4225:
  5855  003924  90D8               	bcf	status,0,c
  5856  003926  3211               	rrcf	(??___fltol+3)^0,f,c
  5857  003928  3210               	rrcf	(??___fltol+2)^0,f,c
  5858  00392A  320F               	rrcf	(??___fltol+1)^0,f,c
  5859  00392C  320E               	rrcf	??___fltol^0,f,c
  5860  00392E                     u4220:
  5861  00392E  2EE8               	decfsz	wreg,f,c
  5862  003930  EF92  F01C         	goto	u4225
  5863  003934  500E               	movf	??___fltol^0,w,c
  5864  003936  6E12               	movwf	___fltol@sign1^0,c
  5865  003938  8E0C               	bsf	(___fltol@f1+2)^0,7,c
  5866  00393A  0EFF               	movlw	255
  5867  00393C  160A               	andwf	___fltol@f1^0,f,c
  5868  00393E  0EFF               	movlw	255
  5869  003940  160B               	andwf	(___fltol@f1+1)^0,f,c
  5870  003942  0EFF               	movlw	255
  5871  003944  160C               	andwf	(___fltol@f1+2)^0,f,c
  5872  003946  0E00               	movlw	0
  5873  003948  160D               	andwf	(___fltol@f1+3)^0,f,c
  5874  00394A  0E96               	movlw	150
  5875  00394C  5E13               	subwf	___fltol@exp1^0,f,c
  5876  00394E  BE13               	btfsc	___fltol@exp1^0,7,c
  5877  003950  EFAE  F01C         	goto	u4230
  5878  003954  EFAC  F01C         	goto	u4231
  5879  003958                     u4231:
  5880  003958  EFC4  F01C         	goto	l4020
  5881  00395C                     u4230:
  5882  00395C  5013               	movf	___fltol@exp1^0,w,c
  5883  00395E  0A80               	xorlw	128
  5884  003960  0F97               	addlw	151
  5885  003962  B0D8               	btfsc	status,0,c
  5886  003964  EFB6  F01C         	goto	u4241
  5887  003968  EFB8  F01C         	goto	u4240
  5888  00396C                     u4241:
  5889  00396C  EFBA  F01C         	goto	l4016
  5890  003970                     u4240:
  5891  003970  EF7D  F01C         	goto	l3996
  5892  003974                     l4016:
  5893  003974  90D8               	bcf	status,0,c
  5894  003976  320D               	rrcf	(___fltol@f1+3)^0,f,c
  5895  003978  320C               	rrcf	(___fltol@f1+2)^0,f,c
  5896  00397A  320B               	rrcf	(___fltol@f1+1)^0,f,c
  5897  00397C  320A               	rrcf	___fltol@f1^0,f,c
  5898  00397E  3E13               	incfsz	___fltol@exp1^0,f,c
  5899  003980  EFBA  F01C         	goto	l4016
  5900  003984  EFDC  F01C         	goto	l4030
  5901  003988                     l4020:
  5902  003988  0E1F               	movlw	31
  5903  00398A  6413               	cpfsgt	___fltol@exp1^0,c
  5904  00398C  EFCA  F01C         	goto	u4251
  5905  003990  EFCC  F01C         	goto	u4250
  5906  003994                     u4251:
  5907  003994  EFD4  F01C         	goto	l4028
  5908  003998                     u4250:
  5909  003998  EF7D  F01C         	goto	l3996
  5910  00399C                     l4026:
  5911  00399C  90D8               	bcf	status,0,c
  5912  00399E  360A               	rlcf	___fltol@f1^0,f,c
  5913  0039A0  360B               	rlcf	(___fltol@f1+1)^0,f,c
  5914  0039A2  360C               	rlcf	(___fltol@f1+2)^0,f,c
  5915  0039A4  360D               	rlcf	(___fltol@f1+3)^0,f,c
  5916  0039A6  0613               	decf	___fltol@exp1^0,f,c
  5917  0039A8                     l4028:
  5918  0039A8  5013               	movf	___fltol@exp1^0,w,c
  5919  0039AA  A4D8               	btfss	status,2,c
  5920  0039AC  EFDA  F01C         	goto	u4261
  5921  0039B0  EFDC  F01C         	goto	u4260
  5922  0039B4                     u4261:
  5923  0039B4  EFCE  F01C         	goto	l4026
  5924  0039B8                     u4260:
  5925  0039B8                     l4030:
  5926  0039B8  5012               	movf	___fltol@sign1^0,w,c
  5927  0039BA  B4D8               	btfsc	status,2,c
  5928  0039BC  EFE2  F01C         	goto	u4271
  5929  0039C0  EFE4  F01C         	goto	u4270
  5930  0039C4                     u4271:
  5931  0039C4  EFEC  F01C         	goto	l4034
  5932  0039C8                     u4270:
  5933  0039C8  1E0D               	comf	(___fltol@f1+3)^0,f,c
  5934  0039CA  1E0C               	comf	(___fltol@f1+2)^0,f,c
  5935  0039CC  1E0B               	comf	(___fltol@f1+1)^0,f,c
  5936  0039CE  6C0A               	negf	___fltol@f1^0,c
  5937  0039D0  0E00               	movlw	0
  5938  0039D2  220B               	addwfc	(___fltol@f1+1)^0,f,c
  5939  0039D4  220C               	addwfc	(___fltol@f1+2)^0,f,c
  5940  0039D6  220D               	addwfc	(___fltol@f1+3)^0,f,c
  5941  0039D8                     l4034:
  5942  0039D8  C00A  F00A         	movff	___fltol@f1,?___fltol
  5943  0039DC  C00B  F00B         	movff	___fltol@f1+1,?___fltol+1
  5944  0039E0  C00C  F00C         	movff	___fltol@f1+2,?___fltol+2
  5945  0039E4  C00D  F00D         	movff	___fltol@f1+3,?___fltol+3
  5946  0039E8                     l518:
  5947  0039E8  0012               	return		;funcret
  5948  0039EA                     __end_of___fltol:
  5949                           	callstack 0
  5950                           
  5951 ;; *************** function ___flsub *****************
  5952 ;; Defined at:
  5953 ;;		line 245 in file "E:\MPLAB\xc8\pic\sources\c99\common\sprcadd.c"
  5954 ;; Parameters:    Size  Location     Type
  5955 ;;  b               4   48[COMRAM] long 
  5956 ;;  a               4   52[COMRAM] long 
  5957 ;; Auto vars:     Size  Location     Type
  5958 ;;		None
  5959 ;; Return value:  Size  Location     Type
  5960 ;;                  4   48[COMRAM] long 
  5961 ;; Registers used:
  5962 ;;		wreg, status,2, status,0, cstack
  5963 ;; Tracked objects:
  5964 ;;		On entry : 0/0
  5965 ;;		On exit  : 0/0
  5966 ;;		Unchanged: 0/0
  5967 ;; Data sizes:     COMRAM   BANK0   BANK1   BANK2   BANK3   BANK4   BANK5   BANK6   BANK7
  5968 ;;      Params:         8       0       0       0       0       0       0       0       0
  5969 ;;      Locals:         0       0       0       0       0       0       0       0       0
  5970 ;;      Temps:          0       0       0       0       0       0       0       0       0
  5971 ;;      Totals:         8       0       0       0       0       0       0       0       0
  5972 ;;Total ram usage:        8 bytes
  5973 ;; Hardware stack levels used:    1
  5974 ;; Hardware stack levels required when called:    3
  5975 ;; This function calls:
  5976 ;;		___fladd
  5977 ;; This function is called by:
  5978 ;;		_main
  5979 ;;		_efgtoa
  5980 ;; This function uses a non-reentrant model
  5981 ;;
  5982                           
  5983                           	psect	text13
  5984  0043EC                     __ptext13:
  5985                           	callstack 0
  5986  0043EC                     ___flsub:
  5987                           	callstack 23
  5988  0043EC  0E00               	movlw	0
  5989  0043EE  1A35               	xorwf	___flsub@a^0,f,c
  5990  0043F0  0E00               	movlw	0
  5991  0043F2  1A36               	xorwf	(___flsub@a+1)^0,f,c
  5992  0043F4  0E00               	movlw	0
  5993  0043F6  1A37               	xorwf	(___flsub@a+2)^0,f,c
  5994  0043F8  0E80               	movlw	128
  5995  0043FA  1A38               	xorwf	(___flsub@a+3)^0,f,c
  5996  0043FC  C031  F00A         	movff	___flsub@b,___fladd@b
  5997  004400  C032  F00B         	movff	___flsub@b+1,___fladd@b+1
  5998  004404  C033  F00C         	movff	___flsub@b+2,___fladd@b+2
  5999  004408  C034  F00D         	movff	___flsub@b+3,___fladd@b+3
  6000  00440C  C035  F00E         	movff	___flsub@a,___fladd@a
  6001  004410  C036  F00F         	movff	___flsub@a+1,___fladd@a+1
  6002  004414  C037  F010         	movff	___flsub@a+2,___fladd@a+2
  6003  004418  C038  F011         	movff	___flsub@a+3,___fladd@a+3
  6004  00441C  EC9D  F010         	call	___fladd	;wreg free
  6005  004420  C00A  F031         	movff	?___fladd,?___flsub
  6006  004424  C00B  F032         	movff	?___fladd+1,?___flsub+1
  6007  004428  C00C  F033         	movff	?___fladd+2,?___flsub+2
  6008  00442C  C00D  F034         	movff	?___fladd+3,?___flsub+3
  6009  004430  0012               	return		;funcret
  6010  004432                     __end_of___flsub:
  6011                           	callstack 0
  6012                           
  6013 ;; *************** function ___fladd *****************
  6014 ;; Defined at:
  6015 ;;		line 10 in file "E:\MPLAB\xc8\pic\sources\c99\common\sprcadd.c"
  6016 ;; Parameters:    Size  Location     Type
  6017 ;;  b               4    9[COMRAM] long 
  6018 ;;  a               4   13[COMRAM] long 
  6019 ;; Auto vars:     Size  Location     Type
  6020 ;;  grs             1   24[COMRAM] unsigned char 
  6021 ;;  bexp            1   23[COMRAM] unsigned char 
  6022 ;;  aexp            1   22[COMRAM] unsigned char 
  6023 ;;  signs           1   21[COMRAM] unsigned char 
  6024 ;; Return value:  Size  Location     Type
  6025 ;;                  4    9[COMRAM] unsigned char 
  6026 ;; Registers used:
  6027 ;;		wreg, status,2, status,0
  6028 ;; Tracked objects:
  6029 ;;		On entry : 0/0
  6030 ;;		On exit  : 0/0
  6031 ;;		Unchanged: 0/0
  6032 ;; Data sizes:     COMRAM   BANK0   BANK1   BANK2   BANK3   BANK4   BANK5   BANK6   BANK7
  6033 ;;      Params:         8       0       0       0       0       0       0       0       0
  6034 ;;      Locals:         4       0       0       0       0       0       0       0       0
  6035 ;;      Temps:          4       0       0       0       0       0       0       0       0
  6036 ;;      Totals:        16       0       0       0       0       0       0       0       0
  6037 ;;Total ram usage:       16 bytes
  6038 ;; Hardware stack levels used:    1
  6039 ;; Hardware stack levels required when called:    2
  6040 ;; This function calls:
  6041 ;;		Nothing
  6042 ;; This function is called by:
  6043 ;;		_main
  6044 ;;		___flsub
  6045 ;;		_efgtoa
  6046 ;; This function uses a non-reentrant model
  6047 ;;
  6048                           
  6049                           	psect	text14
  6050  00213A                     __ptext14:
  6051                           	callstack 0
  6052  00213A                     ___fladd:
  6053                           	callstack 23
  6054  00213A  500D               	movf	(___fladd@b+3)^0,w,c
  6055  00213C  0B80               	andlw	128
  6056  00213E  6E16               	movwf	___fladd@signs^0,c
  6057  002140  500D               	movf	(___fladd@b+3)^0,w,c
  6058  002142  240D               	addwf	(___fladd@b+3)^0,w,c
  6059  002144  6E18               	movwf	___fladd@bexp^0,c
  6060  002146  AE0C               	btfss	(___fladd@b+2)^0,7,c
  6061  002148  EFA8  F010         	goto	u3021
  6062  00214C  EFAA  F010         	goto	u3020
  6063  002150                     u3021:
  6064  002150  EFAB  F010         	goto	l3290
  6065  002154                     u3020:
  6066  002154  8018               	bsf	___fladd@bexp^0,0,c
  6067  002156                     l3290:
  6068  002156  5018               	movf	___fladd@bexp^0,w,c
  6069  002158  B4D8               	btfsc	status,2,c
  6070  00215A  EFB1  F010         	goto	u3031
  6071  00215E  EFB3  F010         	goto	u3030
  6072  002162                     u3031:
  6073  002162  EFC8  F010         	goto	l3300
  6074  002166                     u3030:
  6075  002166  2818               	incf	___fladd@bexp^0,w,c
  6076  002168  A4D8               	btfss	status,2,c
  6077  00216A  EFB9  F010         	goto	u3041
  6078  00216E  EFBB  F010         	goto	u3040
  6079  002172                     u3041:
  6080  002172  EFC3  F010         	goto	l3296
  6081  002176                     u3040:
  6082  002176  0E00               	movlw	0
  6083  002178  6E0A               	movwf	___fladd@b^0,c
  6084  00217A  0E00               	movlw	0
  6085  00217C  6E0B               	movwf	(___fladd@b+1)^0,c
  6086  00217E  0E00               	movlw	0
  6087  002180  6E0C               	movwf	(___fladd@b+2)^0,c
  6088  002182  0E00               	movlw	0
  6089  002184  6E0D               	movwf	(___fladd@b+3)^0,c
  6090  002186                     l3296:
  6091  002186  8E0C               	bsf	(___fladd@b+2)^0,7,c
  6092  002188  0E00               	movlw	0
  6093  00218A  6E0D               	movwf	(___fladd@b+3)^0,c
  6094  00218C  EFD0  F010         	goto	l3302
  6095  002190                     l3300:
  6096  002190  0E00               	movlw	0
  6097  002192  6E0A               	movwf	___fladd@b^0,c
  6098  002194  0E00               	movlw	0
  6099  002196  6E0B               	movwf	(___fladd@b+1)^0,c
  6100  002198  0E00               	movlw	0
  6101  00219A  6E0C               	movwf	(___fladd@b+2)^0,c
  6102  00219C  0E00               	movlw	0
  6103  00219E  6E0D               	movwf	(___fladd@b+3)^0,c
  6104  0021A0                     l3302:
  6105  0021A0  5011               	movf	(___fladd@a+3)^0,w,c
  6106  0021A2  0B80               	andlw	128
  6107  0021A4  6E17               	movwf	___fladd@aexp^0,c
  6108  0021A6  5016               	movf	___fladd@signs^0,w,c
  6109  0021A8  1817               	xorwf	___fladd@aexp^0,w,c
  6110  0021AA  B4D8               	btfsc	status,2,c
  6111  0021AC  EFDA  F010         	goto	u3051
  6112  0021B0  EFDC  F010         	goto	u3050
  6113  0021B4                     u3051:
  6114  0021B4  EFDD  F010         	goto	l3308
  6115  0021B8                     u3050:
  6116  0021B8  8C16               	bsf	___fladd@signs^0,6,c
  6117  0021BA                     l3308:
  6118  0021BA  5011               	movf	(___fladd@a+3)^0,w,c
  6119  0021BC  2411               	addwf	(___fladd@a+3)^0,w,c
  6120  0021BE  6E17               	movwf	___fladd@aexp^0,c
  6121  0021C0  AE10               	btfss	(___fladd@a+2)^0,7,c
  6122  0021C2  EFE5  F010         	goto	u3061
  6123  0021C6  EFE7  F010         	goto	u3060
  6124  0021CA                     u3061:
  6125  0021CA  EFE8  F010         	goto	l3314
  6126  0021CE                     u3060:
  6127  0021CE  8017               	bsf	___fladd@aexp^0,0,c
  6128  0021D0                     l3314:
  6129  0021D0  5017               	movf	___fladd@aexp^0,w,c
  6130  0021D2  B4D8               	btfsc	status,2,c
  6131  0021D4  EFEE  F010         	goto	u3071
  6132  0021D8  EFF0  F010         	goto	u3070
  6133  0021DC                     u3071:
  6134  0021DC  EF05  F011         	goto	l3324
  6135  0021E0                     u3070:
  6136  0021E0  2817               	incf	___fladd@aexp^0,w,c
  6137  0021E2  A4D8               	btfss	status,2,c
  6138  0021E4  EFF6  F010         	goto	u3081
  6139  0021E8  EFF8  F010         	goto	u3080
  6140  0021EC                     u3081:
  6141  0021EC  EF00  F011         	goto	l3320
  6142  0021F0                     u3080:
  6143  0021F0  0E00               	movlw	0
  6144  0021F2  6E0E               	movwf	___fladd@a^0,c
  6145  0021F4  0E00               	movlw	0
  6146  0021F6  6E0F               	movwf	(___fladd@a+1)^0,c
  6147  0021F8  0E00               	movlw	0
  6148  0021FA  6E10               	movwf	(___fladd@a+2)^0,c
  6149  0021FC  0E00               	movlw	0
  6150  0021FE  6E11               	movwf	(___fladd@a+3)^0,c
  6151  002200                     l3320:
  6152  002200  8E10               	bsf	(___fladd@a+2)^0,7,c
  6153  002202  0E00               	movlw	0
  6154  002204  6E11               	movwf	(___fladd@a+3)^0,c
  6155  002206  EF0D  F011         	goto	l3326
  6156  00220A                     l3324:
  6157  00220A  0E00               	movlw	0
  6158  00220C  6E0E               	movwf	___fladd@a^0,c
  6159  00220E  0E00               	movlw	0
  6160  002210  6E0F               	movwf	(___fladd@a+1)^0,c
  6161  002212  0E00               	movlw	0
  6162  002214  6E10               	movwf	(___fladd@a+2)^0,c
  6163  002216  0E00               	movlw	0
  6164  002218  6E11               	movwf	(___fladd@a+3)^0,c
  6165  00221A                     l3326:
  6166  00221A  5018               	movf	___fladd@bexp^0,w,c
  6167  00221C  5C17               	subwf	___fladd@aexp^0,w,c
  6168  00221E  B0D8               	btfsc	status,0,c
  6169  002220  EF14  F011         	goto	u3091
  6170  002224  EF16  F011         	goto	u3090
  6171  002228                     u3091:
  6172  002228  EF3D  F011         	goto	l3362
  6173  00222C                     u3090:
  6174  00222C  AC16               	btfss	___fladd@signs^0,6,c
  6175  00222E  EF1B  F011         	goto	u3101
  6176  002232  EF1D  F011         	goto	u3100
  6177  002236                     u3101:
  6178  002236  EF1F  F011         	goto	l3332
  6179  00223A                     u3100:
  6180  00223A  0E80               	movlw	128
  6181  00223C  1A16               	xorwf	___fladd@signs^0,f,c
  6182  00223E                     l3332:
  6183  00223E  C018  F019         	movff	___fladd@bexp,___fladd@grs
  6184  002242  C017  F018         	movff	___fladd@aexp,___fladd@bexp
  6185  002246  C019  F017         	movff	___fladd@grs,___fladd@aexp
  6186  00224A  C00A  F019         	movff	___fladd@b,___fladd@grs
  6187  00224E  C00E  F00A         	movff	___fladd@a,___fladd@b
  6188  002252  C019  F00E         	movff	___fladd@grs,___fladd@a
  6189  002256  C00B  F019         	movff	___fladd@b+1,___fladd@grs
  6190  00225A  C00F  F00B         	movff	___fladd@a+1,___fladd@b+1
  6191  00225E  C019  F00F         	movff	___fladd@grs,___fladd@a+1
  6192  002262  C00C  F019         	movff	___fladd@b+2,___fladd@grs
  6193  002266  C010  F00C         	movff	___fladd@a+2,___fladd@b+2
  6194  00226A  C019  F010         	movff	___fladd@grs,___fladd@a+2
  6195  00226E  C00D  F019         	movff	___fladd@b+3,___fladd@grs
  6196  002272  C011  F00D         	movff	___fladd@a+3,___fladd@b+3
  6197  002276  C019  F011         	movff	___fladd@grs,___fladd@a+3
  6198  00227A                     l3362:
  6199  00227A  0E00               	movlw	0
  6200  00227C  6E19               	movwf	___fladd@grs^0,c
  6201  00227E  5018               	movf	___fladd@bexp^0,w,c
  6202  002280  C017  F012         	movff	___fladd@aexp,??___fladd
  6203  002284  6A13               	clrf	(??___fladd+1)^0,c
  6204  002286  5E12               	subwf	??___fladd^0,f,c
  6205  002288  0E00               	movlw	0
  6206  00228A  5A13               	subwfb	(??___fladd+1)^0,f,c
  6207  00228C  BE13               	btfsc	(??___fladd+1)^0,7,c
  6208  00228E  EF52  F011         	goto	u3111
  6209  002292  5013               	movf	(??___fladd+1)^0,w,c
  6210  002294  E109               	bnz	u3110
  6211  002296  0E1A               	movlw	26
  6212  002298  5C12               	subwf	??___fladd^0,w,c
  6213  00229A  A0D8               	btfss	status,0,c
  6214  00229C  EF52  F011         	goto	u3111
  6215  0022A0  EF54  F011         	goto	u3110
  6216  0022A4                     u3111:
  6217  0022A4  EF8B  F011         	goto	l750
  6218  0022A8                     u3110:
  6219  0022A8  500A               	movf	___fladd@b^0,w,c
  6220  0022AA  100B               	iorwf	(___fladd@b+1)^0,w,c
  6221  0022AC  100C               	iorwf	(___fladd@b+2)^0,w,c
  6222  0022AE  100D               	iorwf	(___fladd@b+3)^0,w,c
  6223  0022B0  A4D8               	btfss	status,2,c
  6224  0022B2  EF5D  F011         	goto	u3121
  6225  0022B6  EF60  F011         	goto	u3120
  6226  0022BA                     u3121:
  6227  0022BA  0E01               	movlw	1
  6228  0022BC  EF61  F011         	goto	u3130
  6229  0022C0                     u3120:
  6230  0022C0  0E00               	movlw	0
  6231  0022C2                     u3130:
  6232  0022C2  6E19               	movwf	___fladd@grs^0,c
  6233  0022C4  0E00               	movlw	0
  6234  0022C6  6E0A               	movwf	___fladd@b^0,c
  6235  0022C8  0E00               	movlw	0
  6236  0022CA  6E0B               	movwf	(___fladd@b+1)^0,c
  6237  0022CC  0E00               	movlw	0
  6238  0022CE  6E0C               	movwf	(___fladd@b+2)^0,c
  6239  0022D0  0E00               	movlw	0
  6240  0022D2  6E0D               	movwf	(___fladd@b+3)^0,c
  6241  0022D4  C017  F018         	movff	___fladd@aexp,___fladd@bexp
  6242  0022D8  EF94  F011         	goto	l749
  6243  0022DC                     l751:
  6244  0022DC  A019               	btfss	___fladd@grs^0,0,c
  6245  0022DE  EF73  F011         	goto	u3141
  6246  0022E2  EF75  F011         	goto	u3140
  6247  0022E6                     u3141:
  6248  0022E6  EF7B  F011         	goto	l3374
  6249  0022EA                     u3140:
  6250  0022EA  90D8               	bcf	status,0,c
  6251  0022EC  3019               	rrcf	___fladd@grs^0,w,c
  6252  0022EE  0901               	iorlw	1
  6253  0022F0  6E19               	movwf	___fladd@grs^0,c
  6254  0022F2  EF7D  F011         	goto	l3376
  6255  0022F6                     l3374:
  6256  0022F6  90D8               	bcf	status,0,c
  6257  0022F8  3219               	rrcf	___fladd@grs^0,f,c
  6258  0022FA                     l3376:
  6259  0022FA  A00A               	btfss	___fladd@b^0,0,c
  6260  0022FC  EF82  F011         	goto	u3151
  6261  002300  EF84  F011         	goto	u3150
  6262  002304                     u3151:
  6263  002304  EF85  F011         	goto	l3380
  6264  002308                     u3150:
  6265  002308  8E19               	bsf	___fladd@grs^0,7,c
  6266  00230A                     l3380:
  6267  00230A  340D               	rlcf	(___fladd@b+3)^0,w,c
  6268  00230C  320D               	rrcf	(___fladd@b+3)^0,f,c
  6269  00230E  320C               	rrcf	(___fladd@b+2)^0,f,c
  6270  002310  320B               	rrcf	(___fladd@b+1)^0,f,c
  6271  002312  320A               	rrcf	___fladd@b^0,f,c
  6272  002314  2A18               	incf	___fladd@bexp^0,f,c
  6273  002316                     l750:
  6274  002316  5017               	movf	___fladd@aexp^0,w,c
  6275  002318  5C18               	subwf	___fladd@bexp^0,w,c
  6276  00231A  A0D8               	btfss	status,0,c
  6277  00231C  EF92  F011         	goto	u3161
  6278  002320  EF94  F011         	goto	u3160
  6279  002324                     u3161:
  6280  002324  EF6E  F011         	goto	l751
  6281  002328                     u3160:
  6282  002328                     l749:
  6283  002328  BC16               	btfsc	___fladd@signs^0,6,c
  6284  00232A  EF99  F011         	goto	u3171
  6285  00232E  EF9B  F011         	goto	u3170
  6286  002332                     u3171:
  6287  002332  EFDB  F011         	goto	l3408
  6288  002336                     u3170:
  6289  002336  5018               	movf	___fladd@bexp^0,w,c
  6290  002338  A4D8               	btfss	status,2,c
  6291  00233A  EFA1  F011         	goto	u3181
  6292  00233E  EFA3  F011         	goto	u3180
  6293  002342                     u3181:
  6294  002342  EFAD  F011         	goto	l3390
  6295  002346                     u3180:
  6296  002346  0E00               	movlw	0
  6297  002348  6E0A               	movwf	?___fladd^0,c
  6298  00234A  0E00               	movlw	0
  6299  00234C  6E0B               	movwf	(?___fladd+1)^0,c
  6300  00234E  0E00               	movlw	0
  6301  002350  6E0C               	movwf	(?___fladd+2)^0,c
  6302  002352  0E00               	movlw	0
  6303  002354  6E0D               	movwf	(?___fladd+3)^0,c
  6304  002356  EFFC  F012         	goto	l758
  6305  00235A                     l3390:
  6306  00235A  500E               	movf	___fladd@a^0,w,c
  6307  00235C  260A               	addwf	___fladd@b^0,f,c
  6308  00235E  500F               	movf	(___fladd@a+1)^0,w,c
  6309  002360  220B               	addwfc	(___fladd@b+1)^0,f,c
  6310  002362  5010               	movf	(___fladd@a+2)^0,w,c
  6311  002364  220C               	addwfc	(___fladd@b+2)^0,f,c
  6312  002366  5011               	movf	(___fladd@a+3)^0,w,c
  6313  002368  220D               	addwfc	(___fladd@b+3)^0,f,c
  6314  00236A  A00D               	btfss	(___fladd@b+3)^0,0,c
  6315  00236C  EFBA  F011         	goto	u3191
  6316  002370  EFBC  F011         	goto	u3190
  6317  002374                     u3191:
  6318  002374  EF68  F012         	goto	l3444
  6319  002378                     u3190:
  6320  002378  A019               	btfss	___fladd@grs^0,0,c
  6321  00237A  EFC1  F011         	goto	u3201
  6322  00237E  EFC3  F011         	goto	u3200
  6323  002382                     u3201:
  6324  002382  EFC9  F011         	goto	l3398
  6325  002386                     u3200:
  6326  002386  90D8               	bcf	status,0,c
  6327  002388  3019               	rrcf	___fladd@grs^0,w,c
  6328  00238A  0901               	iorlw	1
  6329  00238C  6E19               	movwf	___fladd@grs^0,c
  6330  00238E  EFCB  F011         	goto	l3400
  6331  002392                     l3398:
  6332  002392  90D8               	bcf	status,0,c
  6333  002394  3219               	rrcf	___fladd@grs^0,f,c
  6334  002396                     l3400:
  6335  002396  A00A               	btfss	___fladd@b^0,0,c
  6336  002398  EFD0  F011         	goto	u3211
  6337  00239C  EFD2  F011         	goto	u3210
  6338  0023A0                     u3211:
  6339  0023A0  EFD3  F011         	goto	l3404
  6340  0023A4                     u3210:
  6341  0023A4  8E19               	bsf	___fladd@grs^0,7,c
  6342  0023A6                     l3404:
  6343  0023A6  340D               	rlcf	(___fladd@b+3)^0,w,c
  6344  0023A8  320D               	rrcf	(___fladd@b+3)^0,f,c
  6345  0023AA  320C               	rrcf	(___fladd@b+2)^0,f,c
  6346  0023AC  320B               	rrcf	(___fladd@b+1)^0,f,c
  6347  0023AE  320A               	rrcf	___fladd@b^0,f,c
  6348  0023B0  2A18               	incf	___fladd@bexp^0,f,c
  6349  0023B2  EF68  F012         	goto	l3444
  6350  0023B6                     l3408:
  6351  0023B6  500E               	movf	___fladd@a^0,w,c
  6352  0023B8  5C0A               	subwf	___fladd@b^0,w,c
  6353  0023BA  500F               	movf	(___fladd@a+1)^0,w,c
  6354  0023BC  580B               	subwfb	(___fladd@b+1)^0,w,c
  6355  0023BE  5010               	movf	(___fladd@a+2)^0,w,c
  6356  0023C0  580C               	subwfb	(___fladd@b+2)^0,w,c
  6357  0023C2  500D               	movf	(___fladd@b+3)^0,w,c
  6358  0023C4  0A80               	xorlw	128
  6359  0023C6  6E12               	movwf	??___fladd^0,c
  6360  0023C8  5011               	movf	(___fladd@a+3)^0,w,c
  6361  0023CA  0A80               	xorlw	128
  6362  0023CC  5812               	subwfb	??___fladd^0,w,c
  6363  0023CE  B0D8               	btfsc	status,0,c
  6364  0023D0  EFEC  F011         	goto	u3221
  6365  0023D4  EFEE  F011         	goto	u3220
  6366  0023D8                     u3221:
  6367  0023D8  EF19  F012         	goto	l3418
  6368  0023DC                     u3220:
  6369  0023DC  500A               	movf	___fladd@b^0,w,c
  6370  0023DE  5C0E               	subwf	___fladd@a^0,w,c
  6371  0023E0  6E12               	movwf	??___fladd^0,c
  6372  0023E2  500B               	movf	(___fladd@b+1)^0,w,c
  6373  0023E4  580F               	subwfb	(___fladd@a+1)^0,w,c
  6374  0023E6  6E13               	movwf	(??___fladd+1)^0,c
  6375  0023E8  500C               	movf	(___fladd@b+2)^0,w,c
  6376  0023EA  5810               	subwfb	(___fladd@a+2)^0,w,c
  6377  0023EC  6E14               	movwf	(??___fladd+2)^0,c
  6378  0023EE  500D               	movf	(___fladd@b+3)^0,w,c
  6379  0023F0  5811               	subwfb	(___fladd@a+3)^0,w,c
  6380  0023F2  6E15               	movwf	(??___fladd+3)^0,c
  6381  0023F4  0EFF               	movlw	255
  6382  0023F6  2412               	addwf	??___fladd^0,w,c
  6383  0023F8  6E0A               	movwf	___fladd@b^0,c
  6384  0023FA  0EFF               	movlw	255
  6385  0023FC  2013               	addwfc	(??___fladd+1)^0,w,c
  6386  0023FE  6E0B               	movwf	(___fladd@b+1)^0,c
  6387  002400  0EFF               	movlw	255
  6388  002402  2014               	addwfc	(??___fladd+2)^0,w,c
  6389  002404  6E0C               	movwf	(___fladd@b+2)^0,c
  6390  002406  0EFF               	movlw	255
  6391  002408  2015               	addwfc	(??___fladd+3)^0,w,c
  6392  00240A  6E0D               	movwf	(___fladd@b+3)^0,c
  6393  00240C  0E80               	movlw	128
  6394  00240E  1A16               	xorwf	___fladd@signs^0,f,c
  6395  002410  6C19               	negf	___fladd@grs^0,c
  6396  002412  5019               	movf	___fladd@grs^0,w,c
  6397  002414  A4D8               	btfss	status,2,c
  6398  002416  EF0F  F012         	goto	u3231
  6399  00241A  EF11  F012         	goto	u3230
  6400  00241E                     u3231:
  6401  00241E  EF21  F012         	goto	l766
  6402  002422                     u3230:
  6403  002422  0E01               	movlw	1
  6404  002424  260A               	addwf	___fladd@b^0,f,c
  6405  002426  0E00               	movlw	0
  6406  002428  220B               	addwfc	(___fladd@b+1)^0,f,c
  6407  00242A  220C               	addwfc	(___fladd@b+2)^0,f,c
  6408  00242C  220D               	addwfc	(___fladd@b+3)^0,f,c
  6409  00242E  EF21  F012         	goto	l766
  6410  002432                     l3418:
  6411  002432  500E               	movf	___fladd@a^0,w,c
  6412  002434  5E0A               	subwf	___fladd@b^0,f,c
  6413  002436  500F               	movf	(___fladd@a+1)^0,w,c
  6414  002438  5A0B               	subwfb	(___fladd@b+1)^0,f,c
  6415  00243A  5010               	movf	(___fladd@a+2)^0,w,c
  6416  00243C  5A0C               	subwfb	(___fladd@b+2)^0,f,c
  6417  00243E  5011               	movf	(___fladd@a+3)^0,w,c
  6418  002440  5A0D               	subwfb	(___fladd@b+3)^0,f,c
  6419  002442                     l766:
  6420  002442  500A               	movf	___fladd@b^0,w,c
  6421  002444  100B               	iorwf	(___fladd@b+1)^0,w,c
  6422  002446  100C               	iorwf	(___fladd@b+2)^0,w,c
  6423  002448  100D               	iorwf	(___fladd@b+3)^0,w,c
  6424  00244A  A4D8               	btfss	status,2,c
  6425  00244C  EF2A  F012         	goto	u3241
  6426  002450  EF2C  F012         	goto	u3240
  6427  002454                     u3241:
  6428  002454  EF61  F012         	goto	l3442
  6429  002458                     u3240:
  6430  002458  5019               	movf	___fladd@grs^0,w,c
  6431  00245A  A4D8               	btfss	status,2,c
  6432  00245C  EF32  F012         	goto	u3251
  6433  002460  EF34  F012         	goto	u3250
  6434  002464                     u3251:
  6435  002464  EF61  F012         	goto	l3442
  6436  002468                     u3250:
  6437  002468  0E00               	movlw	0
  6438  00246A  6E0A               	movwf	?___fladd^0,c
  6439  00246C  0E00               	movlw	0
  6440  00246E  6E0B               	movwf	(?___fladd+1)^0,c
  6441  002470  0E00               	movlw	0
  6442  002472  6E0C               	movwf	(?___fladd+2)^0,c
  6443  002474  0E00               	movlw	0
  6444  002476  6E0D               	movwf	(?___fladd+3)^0,c
  6445  002478  EFFC  F012         	goto	l758
  6446  00247C                     l3426:
  6447  00247C  90D8               	bcf	status,0,c
  6448  00247E  360A               	rlcf	___fladd@b^0,f,c
  6449  002480  360B               	rlcf	(___fladd@b+1)^0,f,c
  6450  002482  360C               	rlcf	(___fladd@b+2)^0,f,c
  6451  002484  360D               	rlcf	(___fladd@b+3)^0,f,c
  6452  002486  AE19               	btfss	___fladd@grs^0,7,c
  6453  002488  EF48  F012         	goto	u3261
  6454  00248C  EF4A  F012         	goto	u3260
  6455  002490                     u3261:
  6456  002490  EF4B  F012         	goto	l3432
  6457  002494                     u3260:
  6458  002494  800A               	bsf	___fladd@b^0,0,c
  6459  002496                     l3432:
  6460  002496  A019               	btfss	___fladd@grs^0,0,c
  6461  002498  EF50  F012         	goto	u3271
  6462  00249C  EF52  F012         	goto	u3270
  6463  0024A0                     u3271:
  6464  0024A0  EF56  F012         	goto	l3436
  6465  0024A4                     u3270:
  6466  0024A4  80D8               	bsf	status,0,c
  6467  0024A6  3619               	rlcf	___fladd@grs^0,f,c
  6468  0024A8  EF58  F012         	goto	l3438
  6469  0024AC                     l3436:
  6470  0024AC  90D8               	bcf	status,0,c
  6471  0024AE  3619               	rlcf	___fladd@grs^0,f,c
  6472  0024B0                     l3438:
  6473  0024B0  5018               	movf	___fladd@bexp^0,w,c
  6474  0024B2  B4D8               	btfsc	status,2,c
  6475  0024B4  EF5E  F012         	goto	u3281
  6476  0024B8  EF60  F012         	goto	u3280
  6477  0024BC                     u3281:
  6478  0024BC  EF61  F012         	goto	l3442
  6479  0024C0                     u3280:
  6480  0024C0  0618               	decf	___fladd@bexp^0,f,c
  6481  0024C2                     l3442:
  6482  0024C2  AE0C               	btfss	(___fladd@b+2)^0,7,c
  6483  0024C4  EF66  F012         	goto	u3291
  6484  0024C8  EF68  F012         	goto	u3290
  6485  0024CC                     u3291:
  6486  0024CC  EF3E  F012         	goto	l3426
  6487  0024D0                     u3290:
  6488  0024D0                     l3444:
  6489  0024D0  0E00               	movlw	0
  6490  0024D2  6E17               	movwf	___fladd@aexp^0,c
  6491  0024D4  AE19               	btfss	___fladd@grs^0,7,c
  6492  0024D6  EF6F  F012         	goto	u3301
  6493  0024DA  EF71  F012         	goto	u3300
  6494  0024DE                     u3301:
  6495  0024DE  EF89  F012         	goto	l775
  6496  0024E2                     u3300:
  6497  0024E2  C019  F012         	movff	___fladd@grs,??___fladd
  6498  0024E6  0E7F               	movlw	127
  6499  0024E8  1612               	andwf	??___fladd^0,f,c
  6500  0024EA  B4D8               	btfsc	status,2,c
  6501  0024EC  EF7A  F012         	goto	u3311
  6502  0024F0  EF7C  F012         	goto	u3310
  6503  0024F4                     u3311:
  6504  0024F4  EF80  F012         	goto	l776
  6505  0024F8                     u3310:
  6506  0024F8                     l3450:
  6507  0024F8  0E01               	movlw	1
  6508  0024FA  6E17               	movwf	___fladd@aexp^0,c
  6509  0024FC  EF89  F012         	goto	l775
  6510  002500                     l776:
  6511  002500  A00A               	btfss	___fladd@b^0,0,c
  6512  002502  EF85  F012         	goto	u3321
  6513  002506  EF87  F012         	goto	u3320
  6514  00250A                     u3321:
  6515  00250A  EF89  F012         	goto	l775
  6516  00250E                     u3320:
  6517  00250E  EF7C  F012         	goto	l3450
  6518  002512                     l775:
  6519  002512  5017               	movf	___fladd@aexp^0,w,c
  6520  002514  B4D8               	btfsc	status,2,c
  6521  002516  EF8F  F012         	goto	u3331
  6522  00251A  EF91  F012         	goto	u3330
  6523  00251E                     u3331:
  6524  00251E  EFBC  F012         	goto	l3462
  6525  002522                     u3330:
  6526  002522  0E01               	movlw	1
  6527  002524  260A               	addwf	___fladd@b^0,f,c
  6528  002526  0E00               	movlw	0
  6529  002528  220B               	addwfc	(___fladd@b+1)^0,f,c
  6530  00252A  220C               	addwfc	(___fladd@b+2)^0,f,c
  6531  00252C  220D               	addwfc	(___fladd@b+3)^0,f,c
  6532  00252E  A00D               	btfss	(___fladd@b+3)^0,0,c
  6533  002530  EF9C  F012         	goto	u3341
  6534  002534  EF9E  F012         	goto	u3340
  6535  002538                     u3341:
  6536  002538  EFBC  F012         	goto	l3462
  6537  00253C                     u3340:
  6538  00253C  C00A  F012         	movff	___fladd@b,??___fladd
  6539  002540  C00B  F013         	movff	___fladd@b+1,??___fladd+1
  6540  002544  C00C  F014         	movff	___fladd@b+2,??___fladd+2
  6541  002548  C00D  F015         	movff	___fladd@b+3,??___fladd+3
  6542  00254C  3415               	rlcf	(??___fladd+3)^0,w,c
  6543  00254E  3215               	rrcf	(??___fladd+3)^0,f,c
  6544  002550  3214               	rrcf	(??___fladd+2)^0,f,c
  6545  002552  3213               	rrcf	(??___fladd+1)^0,f,c
  6546  002554  3212               	rrcf	??___fladd^0,f,c
  6547  002556  C012  F00A         	movff	??___fladd,___fladd@b
  6548  00255A  C013  F00B         	movff	??___fladd+1,___fladd@b+1
  6549  00255E  C014  F00C         	movff	??___fladd+2,___fladd@b+2
  6550  002562  C015  F00D         	movff	??___fladd+3,___fladd@b+3
  6551  002566  2818               	incf	___fladd@bexp^0,w,c
  6552  002568  B4D8               	btfsc	status,2,c
  6553  00256A  EFB9  F012         	goto	u3351
  6554  00256E  EFBB  F012         	goto	u3350
  6555  002572                     u3351:
  6556  002572  EFBC  F012         	goto	l3462
  6557  002576                     u3350:
  6558  002576  2A18               	incf	___fladd@bexp^0,f,c
  6559  002578                     l3462:
  6560  002578  2818               	incf	___fladd@bexp^0,w,c
  6561  00257A  B4D8               	btfsc	status,2,c
  6562  00257C  EFC2  F012         	goto	u3361
  6563  002580  EFC4  F012         	goto	u3360
  6564  002584                     u3361:
  6565  002584  EFCC  F012         	goto	l3466
  6566  002588                     u3360:
  6567  002588  5018               	movf	___fladd@bexp^0,w,c
  6568  00258A  A4D8               	btfss	status,2,c
  6569  00258C  EFCA  F012         	goto	u3371
  6570  002590  EFCC  F012         	goto	u3370
  6571  002594                     u3371:
  6572  002594  EFDE  F012         	goto	l3470
  6573  002598                     u3370:
  6574  002598                     l3466:
  6575  002598  0E00               	movlw	0
  6576  00259A  6E0A               	movwf	___fladd@b^0,c
  6577  00259C  0E00               	movlw	0
  6578  00259E  6E0B               	movwf	(___fladd@b+1)^0,c
  6579  0025A0  0E00               	movlw	0
  6580  0025A2  6E0C               	movwf	(___fladd@b+2)^0,c
  6581  0025A4  0E00               	movlw	0
  6582  0025A6  6E0D               	movwf	(___fladd@b+3)^0,c
  6583  0025A8  5018               	movf	___fladd@bexp^0,w,c
  6584  0025AA  A4D8               	btfss	status,2,c
  6585  0025AC  EFDA  F012         	goto	u3381
  6586  0025B0  EFDC  F012         	goto	u3380
  6587  0025B4                     u3381:
  6588  0025B4  EFDE  F012         	goto	l3470
  6589  0025B8                     u3380:
  6590  0025B8  0E00               	movlw	0
  6591  0025BA  6E16               	movwf	___fladd@signs^0,c
  6592  0025BC                     l3470:
  6593  0025BC  A018               	btfss	___fladd@bexp^0,0,c
  6594  0025BE  EFE3  F012         	goto	u3391
  6595  0025C2  EFE5  F012         	goto	u3390
  6596  0025C6                     u3391:
  6597  0025C6  EFE8  F012         	goto	l3474
  6598  0025CA                     u3390:
  6599  0025CA  8E0C               	bsf	(___fladd@b+2)^0,7,c
  6600  0025CC  EFE9  F012         	goto	l3476
  6601  0025D0                     l3474:
  6602  0025D0  9E0C               	bcf	(___fladd@b+2)^0,7,c
  6603  0025D2                     l3476:
  6604  0025D2  90D8               	bcf	status,0,c
  6605  0025D4  3018               	rrcf	___fladd@bexp^0,w,c
  6606  0025D6  6E0D               	movwf	(___fladd@b+3)^0,c
  6607  0025D8  AE16               	btfss	___fladd@signs^0,7,c
  6608  0025DA  EFF1  F012         	goto	u3401
  6609  0025DE  EFF3  F012         	goto	u3400
  6610  0025E2                     u3401:
  6611  0025E2  EFF4  F012         	goto	l3482
  6612  0025E6                     u3400:
  6613  0025E6  8E0D               	bsf	(___fladd@b+3)^0,7,c
  6614  0025E8                     l3482:
  6615  0025E8  C00A  F00A         	movff	___fladd@b,?___fladd
  6616  0025EC  C00B  F00B         	movff	___fladd@b+1,?___fladd+1
  6617  0025F0  C00C  F00C         	movff	___fladd@b+2,?___fladd+2
  6618  0025F4  C00D  F00D         	movff	___fladd@b+3,?___fladd+3
  6619  0025F8                     l758:
  6620  0025F8  0012               	return		;funcret
  6621  0025FA                     __end_of___fladd:
  6622                           	callstack 0
  6623                           
  6624 ;; *************** function ___flneg *****************
  6625 ;; Defined at:
  6626 ;;		line 15 in file "E:\MPLAB\xc8\pic\sources\c99\common\flneg.c"
  6627 ;; Parameters:    Size  Location     Type
  6628 ;;  f1              4    9[COMRAM] unsigned char 
  6629 ;; Auto vars:     Size  Location     Type
  6630 ;;		None
  6631 ;; Return value:  Size  Location     Type
  6632 ;;                  4    9[COMRAM] unsigned char 
  6633 ;; Registers used:
  6634 ;;		wreg, status,2, status,0
  6635 ;; Tracked objects:
  6636 ;;		On entry : 0/0
  6637 ;;		On exit  : 0/0
  6638 ;;		Unchanged: 0/0
  6639 ;; Data sizes:     COMRAM   BANK0   BANK1   BANK2   BANK3   BANK4   BANK5   BANK6   BANK7
  6640 ;;      Params:         4       0       0       0       0       0       0       0       0
  6641 ;;      Locals:         0       0       0       0       0       0       0       0       0
  6642 ;;      Temps:          0       0       0       0       0       0       0       0       0
  6643 ;;      Totals:         4       0       0       0       0       0       0       0       0
  6644 ;;Total ram usage:        4 bytes
  6645 ;; Hardware stack levels used:    1
  6646 ;; Hardware stack levels required when called:    2
  6647 ;; This function calls:
  6648 ;;		Nothing
  6649 ;; This function is called by:
  6650 ;;		_efgtoa
  6651 ;; This function uses a non-reentrant model
  6652 ;;
  6653                           
  6654                           	psect	text15
  6655  0045F0                     __ptext15:
  6656                           	callstack 0
  6657  0045F0                     ___flneg:
  6658                           	callstack 24
  6659  0045F0  500A               	movf	___flneg@f1^0,w,c
  6660  0045F2  100B               	iorwf	(___flneg@f1+1)^0,w,c
  6661  0045F4  100C               	iorwf	(___flneg@f1+2)^0,w,c
  6662  0045F6  100D               	iorwf	(___flneg@f1+3)^0,w,c
  6663  0045F8  B4D8               	btfsc	status,2,c
  6664  0045FA  EF01  F023         	goto	u4201
  6665  0045FE  EF03  F023         	goto	u4200
  6666  004602                     u4201:
  6667  004602  EF0B  F023         	goto	l3990
  6668  004606                     u4200:
  6669  004606  0E00               	movlw	0
  6670  004608  1A0A               	xorwf	___flneg@f1^0,f,c
  6671  00460A  0E00               	movlw	0
  6672  00460C  1A0B               	xorwf	(___flneg@f1+1)^0,f,c
  6673  00460E  0E00               	movlw	0
  6674  004610  1A0C               	xorwf	(___flneg@f1+2)^0,f,c
  6675  004612  0E80               	movlw	128
  6676  004614  1A0D               	xorwf	(___flneg@f1+3)^0,f,c
  6677  004616                     l3990:
  6678  004616  C00A  F00A         	movff	___flneg@f1,?___flneg
  6679  00461A  C00B  F00B         	movff	___flneg@f1+1,?___flneg+1
  6680  00461E  C00C  F00C         	movff	___flneg@f1+2,?___flneg+2
  6681  004622  C00D  F00D         	movff	___flneg@f1+3,?___flneg+3
  6682  004626  0012               	return		;funcret
  6683  004628                     __end_of___flneg:
  6684                           	callstack 0
  6685                           
  6686 ;; *************** function ___flmul *****************
  6687 ;; Defined at:
  6688 ;;		line 8 in file "E:\MPLAB\xc8\pic\sources\c99\common\sprcmul.c"
  6689 ;; Parameters:    Size  Location     Type
  6690 ;;  b               4   23[COMRAM] unsigned char 
  6691 ;;  a               4   27[COMRAM] unsigned char 
  6692 ;; Auto vars:     Size  Location     Type
  6693 ;;  prod            4   42[COMRAM] struct .
  6694 ;;  grs             4   36[COMRAM] unsigned long 
  6695 ;;  temp            2   46[COMRAM] struct .
  6696 ;;  bexp            1   41[COMRAM] unsigned char 
  6697 ;;  aexp            1   40[COMRAM] unsigned char 
  6698 ;;  sign            1   35[COMRAM] unsigned char 
  6699 ;; Return value:  Size  Location     Type
  6700 ;;                  4   23[COMRAM] unsigned char 
  6701 ;; Registers used:
  6702 ;;		wreg, status,2, status,0, prodl, prodh
  6703 ;; Tracked objects:
  6704 ;;		On entry : 0/0
  6705 ;;		On exit  : 0/0
  6706 ;;		Unchanged: 0/0
  6707 ;; Data sizes:     COMRAM   BANK0   BANK1   BANK2   BANK3   BANK4   BANK5   BANK6   BANK7
  6708 ;;      Params:         8       0       0       0       0       0       0       0       0
  6709 ;;      Locals:        13       0       0       0       0       0       0       0       0
  6710 ;;      Temps:          4       0       0       0       0       0       0       0       0
  6711 ;;      Totals:        25       0       0       0       0       0       0       0       0
  6712 ;;Total ram usage:       25 bytes
  6713 ;; Hardware stack levels used:    1
  6714 ;; Hardware stack levels required when called:    2
  6715 ;; This function calls:
  6716 ;;		Nothing
  6717 ;; This function is called by:
  6718 ;;		_main
  6719 ;;		_efgtoa
  6720 ;; This function uses a non-reentrant model
  6721 ;;
  6722                           
  6723                           	psect	text16
  6724  0025FA                     __ptext16:
  6725                           	callstack 0
  6726  0025FA                     ___flmul:
  6727                           	callstack 24
  6728  0025FA  501B               	movf	(___flmul@b+3)^0,w,c
  6729  0025FC  0B80               	andlw	128
  6730  0025FE  6E24               	movwf	___flmul@sign^0,c
  6731  002600  501B               	movf	(___flmul@b+3)^0,w,c
  6732  002602  241B               	addwf	(___flmul@b+3)^0,w,c
  6733  002604  6E2A               	movwf	___flmul@bexp^0,c
  6734  002606  AE1A               	btfss	(___flmul@b+2)^0,7,c
  6735  002608  EF08  F013         	goto	u3811
  6736  00260C  EF0A  F013         	goto	u3810
  6737  002610                     u3811:
  6738  002610  EF0B  F013         	goto	l3738
  6739  002614                     u3810:
  6740  002614  802A               	bsf	___flmul@bexp^0,0,c
  6741  002616                     l3738:
  6742  002616  502A               	movf	___flmul@bexp^0,w,c
  6743  002618  B4D8               	btfsc	status,2,c
  6744  00261A  EF11  F013         	goto	u3821
  6745  00261E  EF13  F013         	goto	u3820
  6746  002622                     u3821:
  6747  002622  EF26  F013         	goto	l3746
  6748  002626                     u3820:
  6749  002626  282A               	incf	___flmul@bexp^0,w,c
  6750  002628  A4D8               	btfss	status,2,c
  6751  00262A  EF19  F013         	goto	u3831
  6752  00262E  EF1B  F013         	goto	u3830
  6753  002632                     u3831:
  6754  002632  EF23  F013         	goto	l3744
  6755  002636                     u3830:
  6756  002636  0E00               	movlw	0
  6757  002638  6E18               	movwf	___flmul@b^0,c
  6758  00263A  0E00               	movlw	0
  6759  00263C  6E19               	movwf	(___flmul@b+1)^0,c
  6760  00263E  0E00               	movlw	0
  6761  002640  6E1A               	movwf	(___flmul@b+2)^0,c
  6762  002642  0E00               	movlw	0
  6763  002644  6E1B               	movwf	(___flmul@b+3)^0,c
  6764  002646                     l3744:
  6765  002646  8E1A               	bsf	(___flmul@b+2)^0,7,c
  6766  002648  EF2E  F013         	goto	l3748
  6767  00264C                     l3746:
  6768  00264C  0E00               	movlw	0
  6769  00264E  6E18               	movwf	___flmul@b^0,c
  6770  002650  0E00               	movlw	0
  6771  002652  6E19               	movwf	(___flmul@b+1)^0,c
  6772  002654  0E00               	movlw	0
  6773  002656  6E1A               	movwf	(___flmul@b+2)^0,c
  6774  002658  0E00               	movlw	0
  6775  00265A  6E1B               	movwf	(___flmul@b+3)^0,c
  6776  00265C                     l3748:
  6777  00265C  501F               	movf	(___flmul@a+3)^0,w,c
  6778  00265E  0B80               	andlw	128
  6779  002660  1A24               	xorwf	___flmul@sign^0,f,c
  6780  002662  501F               	movf	(___flmul@a+3)^0,w,c
  6781  002664  241F               	addwf	(___flmul@a+3)^0,w,c
  6782  002666  6E29               	movwf	___flmul@aexp^0,c
  6783  002668  AE1E               	btfss	(___flmul@a+2)^0,7,c
  6784  00266A  EF39  F013         	goto	u3841
  6785  00266E  EF3B  F013         	goto	u3840
  6786  002672                     u3841:
  6787  002672  EF3C  F013         	goto	l3756
  6788  002676                     u3840:
  6789  002676  8029               	bsf	___flmul@aexp^0,0,c
  6790  002678                     l3756:
  6791  002678  5029               	movf	___flmul@aexp^0,w,c
  6792  00267A  B4D8               	btfsc	status,2,c
  6793  00267C  EF42  F013         	goto	u3851
  6794  002680  EF44  F013         	goto	u3850
  6795  002684                     u3851:
  6796  002684  EF57  F013         	goto	l3764
  6797  002688                     u3850:
  6798  002688  2829               	incf	___flmul@aexp^0,w,c
  6799  00268A  A4D8               	btfss	status,2,c
  6800  00268C  EF4A  F013         	goto	u3861
  6801  002690  EF4C  F013         	goto	u3860
  6802  002694                     u3861:
  6803  002694  EF54  F013         	goto	l3762
  6804  002698                     u3860:
  6805  002698  0E00               	movlw	0
  6806  00269A  6E1C               	movwf	___flmul@a^0,c
  6807  00269C  0E00               	movlw	0
  6808  00269E  6E1D               	movwf	(___flmul@a+1)^0,c
  6809  0026A0  0E00               	movlw	0
  6810  0026A2  6E1E               	movwf	(___flmul@a+2)^0,c
  6811  0026A4  0E00               	movlw	0
  6812  0026A6  6E1F               	movwf	(___flmul@a+3)^0,c
  6813  0026A8                     l3762:
  6814  0026A8  8E1E               	bsf	(___flmul@a+2)^0,7,c
  6815  0026AA  EF5F  F013         	goto	l835
  6816  0026AE                     l3764:
  6817  0026AE  0E00               	movlw	0
  6818  0026B0  6E1C               	movwf	___flmul@a^0,c
  6819  0026B2  0E00               	movlw	0
  6820  0026B4  6E1D               	movwf	(___flmul@a+1)^0,c
  6821  0026B6  0E00               	movlw	0
  6822  0026B8  6E1E               	movwf	(___flmul@a+2)^0,c
  6823  0026BA  0E00               	movlw	0
  6824  0026BC  6E1F               	movwf	(___flmul@a+3)^0,c
  6825  0026BE                     l835:
  6826  0026BE  5029               	movf	___flmul@aexp^0,w,c
  6827  0026C0  B4D8               	btfsc	status,2,c
  6828  0026C2  EF65  F013         	goto	u3871
  6829  0026C6  EF67  F013         	goto	u3870
  6830  0026CA                     u3871:
  6831  0026CA  EF6F  F013         	goto	l3768
  6832  0026CE                     u3870:
  6833  0026CE  502A               	movf	___flmul@bexp^0,w,c
  6834  0026D0  A4D8               	btfss	status,2,c
  6835  0026D2  EF6D  F013         	goto	u3881
  6836  0026D6  EF6F  F013         	goto	u3880
  6837  0026DA                     u3881:
  6838  0026DA  EF79  F013         	goto	l3772
  6839  0026DE                     u3880:
  6840  0026DE                     l3768:
  6841  0026DE  0E00               	movlw	0
  6842  0026E0  6E18               	movwf	?___flmul^0,c
  6843  0026E2  0E00               	movlw	0
  6844  0026E4  6E19               	movwf	(?___flmul+1)^0,c
  6845  0026E6  0E00               	movlw	0
  6846  0026E8  6E1A               	movwf	(?___flmul+2)^0,c
  6847  0026EA  0E00               	movlw	0
  6848  0026EC  6E1B               	movwf	(?___flmul+3)^0,c
  6849  0026EE  EF11  F015         	goto	l839
  6850  0026F2                     l3772:
  6851  0026F2  501E               	movf	(___flmul@a+2)^0,w,c
  6852  0026F4  0218               	mulwf	___flmul@b^0,c
  6853  0026F6  CFF3 F02F          	movff	prodl,___flmul@temp
  6854  0026FA  CFF4 F030          	movff	prodh,___flmul@temp+1
  6855  0026FE  502F               	movf	___flmul@temp^0,w,c
  6856  002700  6E25               	movwf	___flmul@grs^0,c
  6857  002702  6A26               	clrf	(___flmul@grs+1)^0,c
  6858  002704  6A27               	clrf	(___flmul@grs+2)^0,c
  6859  002706  6A28               	clrf	(___flmul@grs+3)^0,c
  6860  002708  5030               	movf	(___flmul@temp+1)^0,w,c
  6861  00270A  6E2B               	movwf	___flmul@prod^0,c
  6862  00270C  6A2C               	clrf	(___flmul@prod+1)^0,c
  6863  00270E  6A2D               	clrf	(___flmul@prod+2)^0,c
  6864  002710  6A2E               	clrf	(___flmul@prod+3)^0,c
  6865  002712  501D               	movf	(___flmul@a+1)^0,w,c
  6866  002714  0219               	mulwf	(___flmul@b+1)^0,c
  6867  002716  CFF3 F02F          	movff	prodl,___flmul@temp
  6868  00271A  CFF4 F030          	movff	prodh,___flmul@temp+1
  6869  00271E  502F               	movf	___flmul@temp^0,w,c
  6870  002720  2625               	addwf	___flmul@grs^0,f,c
  6871  002722  0E00               	movlw	0
  6872  002724  2226               	addwfc	(___flmul@grs+1)^0,f,c
  6873  002726  2227               	addwfc	(___flmul@grs+2)^0,f,c
  6874  002728  2228               	addwfc	(___flmul@grs+3)^0,f,c
  6875  00272A  5030               	movf	(___flmul@temp+1)^0,w,c
  6876  00272C  262B               	addwf	___flmul@prod^0,f,c
  6877  00272E  0E00               	movlw	0
  6878  002730  222C               	addwfc	(___flmul@prod+1)^0,f,c
  6879  002732  222D               	addwfc	(___flmul@prod+2)^0,f,c
  6880  002734  222E               	addwfc	(___flmul@prod+3)^0,f,c
  6881  002736  501C               	movf	___flmul@a^0,w,c
  6882  002738  021A               	mulwf	(___flmul@b+2)^0,c
  6883  00273A  CFF3 F02F          	movff	prodl,___flmul@temp
  6884  00273E  CFF4 F030          	movff	prodh,___flmul@temp+1
  6885  002742  502F               	movf	___flmul@temp^0,w,c
  6886  002744  2625               	addwf	___flmul@grs^0,f,c
  6887  002746  0E00               	movlw	0
  6888  002748  2226               	addwfc	(___flmul@grs+1)^0,f,c
  6889  00274A  2227               	addwfc	(___flmul@grs+2)^0,f,c
  6890  00274C  2228               	addwfc	(___flmul@grs+3)^0,f,c
  6891  00274E  5030               	movf	(___flmul@temp+1)^0,w,c
  6892  002750  262B               	addwf	___flmul@prod^0,f,c
  6893  002752  0E00               	movlw	0
  6894  002754  222C               	addwfc	(___flmul@prod+1)^0,f,c
  6895  002756  222D               	addwfc	(___flmul@prod+2)^0,f,c
  6896  002758  222E               	addwfc	(___flmul@prod+3)^0,f,c
  6897  00275A  C027  F028         	movff	___flmul@grs+2,___flmul@grs+3
  6898  00275E  C026  F027         	movff	___flmul@grs+1,___flmul@grs+2
  6899  002762  C025  F026         	movff	___flmul@grs,___flmul@grs+1
  6900  002766  6A25               	clrf	___flmul@grs^0,c
  6901  002768  501C               	movf	___flmul@a^0,w,c
  6902  00276A  0219               	mulwf	(___flmul@b+1)^0,c
  6903  00276C  CFF3 F02F          	movff	prodl,___flmul@temp
  6904  002770  CFF4 F030          	movff	prodh,___flmul@temp+1
  6905  002774  502F               	movf	___flmul@temp^0,w,c
  6906  002776  2625               	addwf	___flmul@grs^0,f,c
  6907  002778  5030               	movf	(___flmul@temp+1)^0,w,c
  6908  00277A  2226               	addwfc	(___flmul@grs+1)^0,f,c
  6909  00277C  0E00               	movlw	0
  6910  00277E  2227               	addwfc	(___flmul@grs+2)^0,f,c
  6911  002780  0E00               	movlw	0
  6912  002782  2228               	addwfc	(___flmul@grs+3)^0,f,c
  6913  002784  501D               	movf	(___flmul@a+1)^0,w,c
  6914  002786  0218               	mulwf	___flmul@b^0,c
  6915  002788  CFF3 F02F          	movff	prodl,___flmul@temp
  6916  00278C  CFF4 F030          	movff	prodh,___flmul@temp+1
  6917  002790  502F               	movf	___flmul@temp^0,w,c
  6918  002792  2625               	addwf	___flmul@grs^0,f,c
  6919  002794  5030               	movf	(___flmul@temp+1)^0,w,c
  6920  002796  2226               	addwfc	(___flmul@grs+1)^0,f,c
  6921  002798  0E00               	movlw	0
  6922  00279A  2227               	addwfc	(___flmul@grs+2)^0,f,c
  6923  00279C  0E00               	movlw	0
  6924  00279E  2228               	addwfc	(___flmul@grs+3)^0,f,c
  6925  0027A0  C027  F028         	movff	___flmul@grs+2,___flmul@grs+3
  6926  0027A4  C026  F027         	movff	___flmul@grs+1,___flmul@grs+2
  6927  0027A8  C025  F026         	movff	___flmul@grs,___flmul@grs+1
  6928  0027AC  6A25               	clrf	___flmul@grs^0,c
  6929  0027AE  501C               	movf	___flmul@a^0,w,c
  6930  0027B0  0218               	mulwf	___flmul@b^0,c
  6931  0027B2  CFF3 F02F          	movff	prodl,___flmul@temp
  6932  0027B6  CFF4 F030          	movff	prodh,___flmul@temp+1
  6933  0027BA  502F               	movf	___flmul@temp^0,w,c
  6934  0027BC  2625               	addwf	___flmul@grs^0,f,c
  6935  0027BE  5030               	movf	(___flmul@temp+1)^0,w,c
  6936  0027C0  2226               	addwfc	(___flmul@grs+1)^0,f,c
  6937  0027C2  0E00               	movlw	0
  6938  0027C4  2227               	addwfc	(___flmul@grs+2)^0,f,c
  6939  0027C6  0E00               	movlw	0
  6940  0027C8  2228               	addwfc	(___flmul@grs+3)^0,f,c
  6941  0027CA  501E               	movf	(___flmul@a+2)^0,w,c
  6942  0027CC  0219               	mulwf	(___flmul@b+1)^0,c
  6943  0027CE  CFF3 F02F          	movff	prodl,___flmul@temp
  6944  0027D2  CFF4 F030          	movff	prodh,___flmul@temp+1
  6945  0027D6  502F               	movf	___flmul@temp^0,w,c
  6946  0027D8  262B               	addwf	___flmul@prod^0,f,c
  6947  0027DA  5030               	movf	(___flmul@temp+1)^0,w,c
  6948  0027DC  222C               	addwfc	(___flmul@prod+1)^0,f,c
  6949  0027DE  0E00               	movlw	0
  6950  0027E0  222D               	addwfc	(___flmul@prod+2)^0,f,c
  6951  0027E2  0E00               	movlw	0
  6952  0027E4  222E               	addwfc	(___flmul@prod+3)^0,f,c
  6953  0027E6  501D               	movf	(___flmul@a+1)^0,w,c
  6954  0027E8  021A               	mulwf	(___flmul@b+2)^0,c
  6955  0027EA  CFF3 F02F          	movff	prodl,___flmul@temp
  6956  0027EE  CFF4 F030          	movff	prodh,___flmul@temp+1
  6957  0027F2  502F               	movf	___flmul@temp^0,w,c
  6958  0027F4  262B               	addwf	___flmul@prod^0,f,c
  6959  0027F6  5030               	movf	(___flmul@temp+1)^0,w,c
  6960  0027F8  222C               	addwfc	(___flmul@prod+1)^0,f,c
  6961  0027FA  0E00               	movlw	0
  6962  0027FC  222D               	addwfc	(___flmul@prod+2)^0,f,c
  6963  0027FE  0E00               	movlw	0
  6964  002800  222E               	addwfc	(___flmul@prod+3)^0,f,c
  6965  002802  501E               	movf	(___flmul@a+2)^0,w,c
  6966  002804  021A               	mulwf	(___flmul@b+2)^0,c
  6967  002806  CFF3 F02F          	movff	prodl,___flmul@temp
  6968  00280A  CFF4 F030          	movff	prodh,___flmul@temp+1
  6969  00280E  502F               	movf	___flmul@temp^0,w,c
  6970  002810  6E20               	movwf	??___flmul^0,c
  6971  002812  5030               	movf	(___flmul@temp+1)^0,w,c
  6972  002814  6E21               	movwf	(??___flmul+1)^0,c
  6973  002816  6A22               	clrf	(??___flmul+2)^0,c
  6974  002818  6A23               	clrf	(??___flmul+3)^0,c
  6975  00281A  C022  F023         	movff	??___flmul+2,??___flmul+3
  6976  00281E  C021  F022         	movff	??___flmul+1,??___flmul+2
  6977  002822  C020  F021         	movff	??___flmul,??___flmul+1
  6978  002826  6A20               	clrf	??___flmul^0,c
  6979  002828  5020               	movf	??___flmul^0,w,c
  6980  00282A  262B               	addwf	___flmul@prod^0,f,c
  6981  00282C  5021               	movf	(??___flmul+1)^0,w,c
  6982  00282E  222C               	addwfc	(___flmul@prod+1)^0,f,c
  6983  002830  5022               	movf	(??___flmul+2)^0,w,c
  6984  002832  222D               	addwfc	(___flmul@prod+2)^0,f,c
  6985  002834  5023               	movf	(??___flmul+3)^0,w,c
  6986  002836  222E               	addwfc	(___flmul@prod+3)^0,f,c
  6987  002838  C025  F020         	movff	___flmul@grs,??___flmul
  6988  00283C  C026  F021         	movff	___flmul@grs+1,??___flmul+1
  6989  002840  C027  F022         	movff	___flmul@grs+2,??___flmul+2
  6990  002844  C028  F023         	movff	___flmul@grs+3,??___flmul+3
  6991  002848  0E19               	movlw	25
  6992  00284A  EF2C  F014         	goto	u3890
  6993  00284E                     u3895:
  6994  00284E  90D8               	bcf	status,0,c
  6995  002850  3223               	rrcf	(??___flmul+3)^0,f,c
  6996  002852  3222               	rrcf	(??___flmul+2)^0,f,c
  6997  002854  3221               	rrcf	(??___flmul+1)^0,f,c
  6998  002856  3220               	rrcf	??___flmul^0,f,c
  6999  002858                     u3890:
  7000  002858  2EE8               	decfsz	wreg,f,c
  7001  00285A  EF27  F014         	goto	u3895
  7002  00285E  5020               	movf	??___flmul^0,w,c
  7003  002860  262B               	addwf	___flmul@prod^0,f,c
  7004  002862  5021               	movf	(??___flmul+1)^0,w,c
  7005  002864  222C               	addwfc	(___flmul@prod+1)^0,f,c
  7006  002866  5022               	movf	(??___flmul+2)^0,w,c
  7007  002868  222D               	addwfc	(___flmul@prod+2)^0,f,c
  7008  00286A  5023               	movf	(??___flmul+3)^0,w,c
  7009  00286C  222E               	addwfc	(___flmul@prod+3)^0,f,c
  7010  00286E  C027  F028         	movff	___flmul@grs+2,___flmul@grs+3
  7011  002872  C026  F027         	movff	___flmul@grs+1,___flmul@grs+2
  7012  002876  C025  F026         	movff	___flmul@grs,___flmul@grs+1
  7013  00287A  6A25               	clrf	___flmul@grs^0,c
  7014  00287C  5029               	movf	___flmul@aexp^0,w,c
  7015  00287E  C02A  F020         	movff	___flmul@bexp,??___flmul
  7016  002882  6A21               	clrf	(??___flmul+1)^0,c
  7017  002884  2620               	addwf	??___flmul^0,f,c
  7018  002886  0E00               	movlw	0
  7019  002888  2221               	addwfc	(??___flmul+1)^0,f,c
  7020  00288A  0E82               	movlw	130
  7021  00288C  2420               	addwf	??___flmul^0,w,c
  7022  00288E  6E2F               	movwf	___flmul@temp^0,c
  7023  002890  0EFF               	movlw	255
  7024  002892  2021               	addwfc	(??___flmul+1)^0,w,c
  7025  002894  6E30               	movwf	(___flmul@temp+1)^0,c
  7026  002896  EF62  F014         	goto	l3820
  7027  00289A                     l3814:
  7028  00289A  90D8               	bcf	status,0,c
  7029  00289C  362B               	rlcf	___flmul@prod^0,f,c
  7030  00289E  362C               	rlcf	(___flmul@prod+1)^0,f,c
  7031  0028A0  362D               	rlcf	(___flmul@prod+2)^0,f,c
  7032  0028A2  362E               	rlcf	(___flmul@prod+3)^0,f,c
  7033  0028A4  AE28               	btfss	(___flmul@grs+3)^0,7,c
  7034  0028A6  EF57  F014         	goto	u3901
  7035  0028AA  EF59  F014         	goto	u3900
  7036  0028AE                     u3901:
  7037  0028AE  EF5A  F014         	goto	l842
  7038  0028B2                     u3900:
  7039  0028B2  802B               	bsf	___flmul@prod^0,0,c
  7040  0028B4                     l842:
  7041  0028B4  90D8               	bcf	status,0,c
  7042  0028B6  3625               	rlcf	___flmul@grs^0,f,c
  7043  0028B8  3626               	rlcf	(___flmul@grs+1)^0,f,c
  7044  0028BA  3627               	rlcf	(___flmul@grs+2)^0,f,c
  7045  0028BC  3628               	rlcf	(___flmul@grs+3)^0,f,c
  7046  0028BE  062F               	decf	___flmul@temp^0,f,c
  7047  0028C0  A0D8               	btfss	status,0,c
  7048  0028C2  0630               	decf	(___flmul@temp+1)^0,f,c
  7049  0028C4                     l3820:
  7050  0028C4  AE2D               	btfss	(___flmul@prod+2)^0,7,c
  7051  0028C6  EF67  F014         	goto	u3911
  7052  0028CA  EF69  F014         	goto	u3910
  7053  0028CE                     u3911:
  7054  0028CE  EF4D  F014         	goto	l3814
  7055  0028D2                     u3910:
  7056  0028D2  0E00               	movlw	0
  7057  0028D4  6E29               	movwf	___flmul@aexp^0,c
  7058  0028D6  AE28               	btfss	(___flmul@grs+3)^0,7,c
  7059  0028D8  EF70  F014         	goto	u3921
  7060  0028DC  EF72  F014         	goto	u3920
  7061  0028E0                     u3921:
  7062  0028E0  EF96  F014         	goto	l844
  7063  0028E4                     u3920:
  7064  0028E4  0EFF               	movlw	255
  7065  0028E6  1425               	andwf	___flmul@grs^0,w,c
  7066  0028E8  6E20               	movwf	??___flmul^0,c
  7067  0028EA  0EFF               	movlw	255
  7068  0028EC  1426               	andwf	(___flmul@grs+1)^0,w,c
  7069  0028EE  6E21               	movwf	(??___flmul+1)^0,c
  7070  0028F0  0EFF               	movlw	255
  7071  0028F2  1427               	andwf	(___flmul@grs+2)^0,w,c
  7072  0028F4  6E22               	movwf	(??___flmul+2)^0,c
  7073  0028F6  0E7F               	movlw	127
  7074  0028F8  1428               	andwf	(___flmul@grs+3)^0,w,c
  7075  0028FA  6E23               	movwf	(??___flmul+3)^0,c
  7076  0028FC  5020               	movf	??___flmul^0,w,c
  7077  0028FE  1021               	iorwf	(??___flmul+1)^0,w,c
  7078  002900  1022               	iorwf	(??___flmul+2)^0,w,c
  7079  002902  1023               	iorwf	(??___flmul+3)^0,w,c
  7080  002904  B4D8               	btfsc	status,2,c
  7081  002906  EF87  F014         	goto	u3931
  7082  00290A  EF89  F014         	goto	u3930
  7083  00290E                     u3931:
  7084  00290E  EF8D  F014         	goto	l845
  7085  002912                     u3930:
  7086  002912                     l3828:
  7087  002912  0E01               	movlw	1
  7088  002914  6E29               	movwf	___flmul@aexp^0,c
  7089  002916  EF96  F014         	goto	l844
  7090  00291A                     l845:
  7091  00291A  A02B               	btfss	___flmul@prod^0,0,c
  7092  00291C  EF92  F014         	goto	u3941
  7093  002920  EF94  F014         	goto	u3940
  7094  002924                     u3941:
  7095  002924  EF96  F014         	goto	l844
  7096  002928                     u3940:
  7097  002928  EF89  F014         	goto	l3828
  7098  00292C                     l844:
  7099  00292C  5029               	movf	___flmul@aexp^0,w,c
  7100  00292E  B4D8               	btfsc	status,2,c
  7101  002930  EF9C  F014         	goto	u3951
  7102  002934  EF9E  F014         	goto	u3950
  7103  002938                     u3951:
  7104  002938  EFC2  F014         	goto	l3840
  7105  00293C                     u3950:
  7106  00293C  0E01               	movlw	1
  7107  00293E  262B               	addwf	___flmul@prod^0,f,c
  7108  002940  0E00               	movlw	0
  7109  002942  222C               	addwfc	(___flmul@prod+1)^0,f,c
  7110  002944  222D               	addwfc	(___flmul@prod+2)^0,f,c
  7111  002946  222E               	addwfc	(___flmul@prod+3)^0,f,c
  7112  002948  A02E               	btfss	(___flmul@prod+3)^0,0,c
  7113  00294A  EFA9  F014         	goto	u3961
  7114  00294E  EFAB  F014         	goto	u3960
  7115  002952                     u3961:
  7116  002952  EFC2  F014         	goto	l3840
  7117  002956                     u3960:
  7118  002956  C02B  F020         	movff	___flmul@prod,??___flmul
  7119  00295A  C02C  F021         	movff	___flmul@prod+1,??___flmul+1
  7120  00295E  C02D  F022         	movff	___flmul@prod+2,??___flmul+2
  7121  002962  C02E  F023         	movff	___flmul@prod+3,??___flmul+3
  7122  002966  3423               	rlcf	(??___flmul+3)^0,w,c
  7123  002968  3223               	rrcf	(??___flmul+3)^0,f,c
  7124  00296A  3222               	rrcf	(??___flmul+2)^0,f,c
  7125  00296C  3221               	rrcf	(??___flmul+1)^0,f,c
  7126  00296E  3220               	rrcf	??___flmul^0,f,c
  7127  002970  C020  F02B         	movff	??___flmul,___flmul@prod
  7128  002974  C021  F02C         	movff	??___flmul+1,___flmul@prod+1
  7129  002978  C022  F02D         	movff	??___flmul+2,___flmul@prod+2
  7130  00297C  C023  F02E         	movff	??___flmul+3,___flmul@prod+3
  7131  002980  4A2F               	infsnz	___flmul@temp^0,f,c
  7132  002982  2A30               	incf	(___flmul@temp+1)^0,f,c
  7133  002984                     l3840:
  7134  002984  BE30               	btfsc	(___flmul@temp+1)^0,7,c
  7135  002986  EFCD  F014         	goto	u3971
  7136  00298A  5030               	movf	(___flmul@temp+1)^0,w,c
  7137  00298C  E108               	bnz	u3970
  7138  00298E  282F               	incf	___flmul@temp^0,w,c
  7139  002990  A0D8               	btfss	status,0,c
  7140  002992  EFCD  F014         	goto	u3971
  7141  002996  EFCF  F014         	goto	u3970
  7142  00299A                     u3971:
  7143  00299A  EFD9  F014         	goto	l3844
  7144  00299E                     u3970:
  7145  00299E  0E00               	movlw	0
  7146  0029A0  6E2B               	movwf	___flmul@prod^0,c
  7147  0029A2  0E00               	movlw	0
  7148  0029A4  6E2C               	movwf	(___flmul@prod+1)^0,c
  7149  0029A6  0E80               	movlw	128
  7150  0029A8  6E2D               	movwf	(___flmul@prod+2)^0,c
  7151  0029AA  0E7F               	movlw	127
  7152  0029AC  6E2E               	movwf	(___flmul@prod+3)^0,c
  7153  0029AE  EF07  F015         	goto	l3856
  7154  0029B2                     l3844:
  7155  0029B2  BE30               	btfsc	(___flmul@temp+1)^0,7,c
  7156  0029B4  EFE6  F014         	goto	u3980
  7157  0029B8  5030               	movf	(___flmul@temp+1)^0,w,c
  7158  0029BA  E106               	bnz	u3981
  7159  0029BC  042F               	decf	___flmul@temp^0,w,c
  7160  0029BE  B0D8               	btfsc	status,0,c
  7161  0029C0  EFE4  F014         	goto	u3981
  7162  0029C4  EFE6  F014         	goto	u3980
  7163  0029C8                     u3981:
  7164  0029C8  EFF2  F014         	goto	l852
  7165  0029CC                     u3980:
  7166  0029CC  0E00               	movlw	0
  7167  0029CE  6E2B               	movwf	___flmul@prod^0,c
  7168  0029D0  0E00               	movlw	0
  7169  0029D2  6E2C               	movwf	(___flmul@prod+1)^0,c
  7170  0029D4  0E00               	movlw	0
  7171  0029D6  6E2D               	movwf	(___flmul@prod+2)^0,c
  7172  0029D8  0E00               	movlw	0
  7173  0029DA  6E2E               	movwf	(___flmul@prod+3)^0,c
  7174  0029DC  0E00               	movlw	0
  7175  0029DE  6E24               	movwf	___flmul@sign^0,c
  7176  0029E0  EF07  F015         	goto	l3856
  7177  0029E4                     l852:
  7178  0029E4  C02F  F02A         	movff	___flmul@temp,___flmul@bexp
  7179  0029E8  0EFF               	movlw	255
  7180  0029EA  162B               	andwf	___flmul@prod^0,f,c
  7181  0029EC  0EFF               	movlw	255
  7182  0029EE  162C               	andwf	(___flmul@prod+1)^0,f,c
  7183  0029F0  0E7F               	movlw	127
  7184  0029F2  162D               	andwf	(___flmul@prod+2)^0,f,c
  7185  0029F4  0E00               	movlw	0
  7186  0029F6  162E               	andwf	(___flmul@prod+3)^0,f,c
  7187  0029F8  A02A               	btfss	___flmul@bexp^0,0,c
  7188  0029FA  EF01  F015         	goto	u3991
  7189  0029FE  EF03  F015         	goto	u3990
  7190  002A02                     u3991:
  7191  002A02  EF04  F015         	goto	l3854
  7192  002A06                     u3990:
  7193  002A06  8E2D               	bsf	(___flmul@prod+2)^0,7,c
  7194  002A08                     l3854:
  7195  002A08  90D8               	bcf	status,0,c
  7196  002A0A  302A               	rrcf	___flmul@bexp^0,w,c
  7197  002A0C  6E2E               	movwf	(___flmul@prod+3)^0,c
  7198  002A0E                     l3856:
  7199  002A0E  5024               	movf	___flmul@sign^0,w,c
  7200  002A10  122E               	iorwf	(___flmul@prod+3)^0,f,c
  7201  002A12  C02B  F018         	movff	___flmul@prod,?___flmul
  7202  002A16  C02C  F019         	movff	___flmul@prod+1,?___flmul+1
  7203  002A1A  C02D  F01A         	movff	___flmul@prod+2,?___flmul+2
  7204  002A1E  C02E  F01B         	movff	___flmul@prod+3,?___flmul+3
  7205  002A22                     l839:
  7206  002A22  0012               	return		;funcret
  7207  002A24                     __end_of___flmul:
  7208                           	callstack 0
  7209                           
  7210 ;; *************** function ___flge *****************
  7211 ;; Defined at:
  7212 ;;		line 4 in file "E:\MPLAB\xc8\pic\sources\c99\common\flge.c"
  7213 ;; Parameters:    Size  Location     Type
  7214 ;;  ff1             4   48[COMRAM] unsigned char 
  7215 ;;  ff2             4   52[COMRAM] unsigned char 
  7216 ;; Auto vars:     Size  Location     Type
  7217 ;;		None
  7218 ;; Return value:  Size  Location     Type
  7219 ;;		None               void
  7220 ;; Registers used:
  7221 ;;		wreg, status,2, status,0
  7222 ;; Tracked objects:
  7223 ;;		On entry : 0/0
  7224 ;;		On exit  : 0/0
  7225 ;;		Unchanged: 0/0
  7226 ;; Data sizes:     COMRAM   BANK0   BANK1   BANK2   BANK3   BANK4   BANK5   BANK6   BANK7
  7227 ;;      Params:         8       0       0       0       0       0       0       0       0
  7228 ;;      Locals:         0       0       0       0       0       0       0       0       0
  7229 ;;      Temps:          4       0       0       0       0       0       0       0       0
  7230 ;;      Totals:        12       0       0       0       0       0       0       0       0
  7231 ;;Total ram usage:       12 bytes
  7232 ;; Hardware stack levels used:    1
  7233 ;; Hardware stack levels required when called:    2
  7234 ;; This function calls:
  7235 ;;		Nothing
  7236 ;; This function is called by:
  7237 ;;		_efgtoa
  7238 ;; This function uses a non-reentrant model
  7239 ;;
  7240                           
  7241                           	psect	text17
  7242  0039EA                     __ptext17:
  7243                           	callstack 0
  7244  0039EA                     ___flge:
  7245                           	callstack 24
  7246  0039EA  0E00               	movlw	0
  7247  0039EC  1431               	andwf	___flge@ff1^0,w,c
  7248  0039EE  6E39               	movwf	??___flge^0,c
  7249  0039F0  0E00               	movlw	0
  7250  0039F2  1432               	andwf	(___flge@ff1+1)^0,w,c
  7251  0039F4  6E3A               	movwf	(??___flge+1)^0,c
  7252  0039F6  0E80               	movlw	128
  7253  0039F8  1433               	andwf	(___flge@ff1+2)^0,w,c
  7254  0039FA  6E3B               	movwf	(??___flge+2)^0,c
  7255  0039FC  0E7F               	movlw	127
  7256  0039FE  1434               	andwf	(___flge@ff1+3)^0,w,c
  7257  003A00  6E3C               	movwf	(??___flge+3)^0,c
  7258  003A02  5039               	movf	??___flge^0,w,c
  7259  003A04  103A               	iorwf	(??___flge+1)^0,w,c
  7260  003A06  103B               	iorwf	(??___flge+2)^0,w,c
  7261  003A08  103C               	iorwf	(??___flge+3)^0,w,c
  7262  003A0A  A4D8               	btfss	status,2,c
  7263  003A0C  EF0A  F01D         	goto	u4151
  7264  003A10  EF0C  F01D         	goto	u4150
  7265  003A14                     u4151:
  7266  003A14  EF14  F01D         	goto	l3968
  7267  003A18                     u4150:
  7268  003A18  0E00               	movlw	0
  7269  003A1A  6E31               	movwf	___flge@ff1^0,c
  7270  003A1C  0E00               	movlw	0
  7271  003A1E  6E32               	movwf	(___flge@ff1+1)^0,c
  7272  003A20  0E00               	movlw	0
  7273  003A22  6E33               	movwf	(___flge@ff1+2)^0,c
  7274  003A24  0E00               	movlw	0
  7275  003A26  6E34               	movwf	(___flge@ff1+3)^0,c
  7276  003A28                     l3968:
  7277  003A28  0E00               	movlw	0
  7278  003A2A  1435               	andwf	___flge@ff2^0,w,c
  7279  003A2C  6E39               	movwf	??___flge^0,c
  7280  003A2E  0E00               	movlw	0
  7281  003A30  1436               	andwf	(___flge@ff2+1)^0,w,c
  7282  003A32  6E3A               	movwf	(??___flge+1)^0,c
  7283  003A34  0E80               	movlw	128
  7284  003A36  1437               	andwf	(___flge@ff2+2)^0,w,c
  7285  003A38  6E3B               	movwf	(??___flge+2)^0,c
  7286  003A3A  0E7F               	movlw	127
  7287  003A3C  1438               	andwf	(___flge@ff2+3)^0,w,c
  7288  003A3E  6E3C               	movwf	(??___flge+3)^0,c
  7289  003A40  5039               	movf	??___flge^0,w,c
  7290  003A42  103A               	iorwf	(??___flge+1)^0,w,c
  7291  003A44  103B               	iorwf	(??___flge+2)^0,w,c
  7292  003A46  103C               	iorwf	(??___flge+3)^0,w,c
  7293  003A48  A4D8               	btfss	status,2,c
  7294  003A4A  EF29  F01D         	goto	u4161
  7295  003A4E  EF2B  F01D         	goto	u4160
  7296  003A52                     u4161:
  7297  003A52  EF33  F01D         	goto	l3972
  7298  003A56                     u4160:
  7299  003A56  0E00               	movlw	0
  7300  003A58  6E35               	movwf	___flge@ff2^0,c
  7301  003A5A  0E00               	movlw	0
  7302  003A5C  6E36               	movwf	(___flge@ff2+1)^0,c
  7303  003A5E  0E00               	movlw	0
  7304  003A60  6E37               	movwf	(___flge@ff2+2)^0,c
  7305  003A62  0E00               	movlw	0
  7306  003A64  6E38               	movwf	(___flge@ff2+3)^0,c
  7307  003A66                     l3972:
  7308  003A66  AE34               	btfss	(___flge@ff1+3)^0,7,c
  7309  003A68  EF38  F01D         	goto	u4171
  7310  003A6C  EF3A  F01D         	goto	u4170
  7311  003A70                     u4171:
  7312  003A70  EF43  F01D         	goto	l3976
  7313  003A74                     u4170:
  7314  003A74  6C31               	negf	___flge@ff1^0,c
  7315  003A76  1E32               	comf	(___flge@ff1+1)^0,f,c
  7316  003A78  B0D8               	btfsc	status,0,c
  7317  003A7A  2A32               	incf	(___flge@ff1+1)^0,f,c
  7318  003A7C  1E33               	comf	(___flge@ff1+2)^0,f,c
  7319  003A7E  B0D8               	btfsc	status,0,c
  7320  003A80  2A33               	incf	(___flge@ff1+2)^0,f,c
  7321  003A82  0E80               	movlw	128
  7322  003A84  5634               	subfwb	(___flge@ff1+3)^0,f,c
  7323  003A86                     l3976:
  7324  003A86  AE38               	btfss	(___flge@ff2+3)^0,7,c
  7325  003A88  EF48  F01D         	goto	u4181
  7326  003A8C  EF4A  F01D         	goto	u4180
  7327  003A90                     u4181:
  7328  003A90  EF53  F01D         	goto	l486
  7329  003A94                     u4180:
  7330  003A94  6C35               	negf	___flge@ff2^0,c
  7331  003A96  1E36               	comf	(___flge@ff2+1)^0,f,c
  7332  003A98  B0D8               	btfsc	status,0,c
  7333  003A9A  2A36               	incf	(___flge@ff2+1)^0,f,c
  7334  003A9C  1E37               	comf	(___flge@ff2+2)^0,f,c
  7335  003A9E  B0D8               	btfsc	status,0,c
  7336  003AA0  2A37               	incf	(___flge@ff2+2)^0,f,c
  7337  003AA2  0E80               	movlw	128
  7338  003AA4  5638               	subfwb	(___flge@ff2+3)^0,f,c
  7339  003AA6                     l486:
  7340  003AA6  0E00               	movlw	0
  7341  003AA8  1A31               	xorwf	___flge@ff1^0,f,c
  7342  003AAA  0E00               	movlw	0
  7343  003AAC  1A32               	xorwf	(___flge@ff1+1)^0,f,c
  7344  003AAE  0E00               	movlw	0
  7345  003AB0  1A33               	xorwf	(___flge@ff1+2)^0,f,c
  7346  003AB2  0E80               	movlw	128
  7347  003AB4  1A34               	xorwf	(___flge@ff1+3)^0,f,c
  7348  003AB6  0E00               	movlw	0
  7349  003AB8  1A35               	xorwf	___flge@ff2^0,f,c
  7350  003ABA  0E00               	movlw	0
  7351  003ABC  1A36               	xorwf	(___flge@ff2+1)^0,f,c
  7352  003ABE  0E00               	movlw	0
  7353  003AC0  1A37               	xorwf	(___flge@ff2+2)^0,f,c
  7354  003AC2  0E80               	movlw	128
  7355  003AC4  1A38               	xorwf	(___flge@ff2+3)^0,f,c
  7356  003AC6  5035               	movf	___flge@ff2^0,w,c
  7357  003AC8  5C31               	subwf	___flge@ff1^0,w,c
  7358  003ACA  5036               	movf	(___flge@ff2+1)^0,w,c
  7359  003ACC  5832               	subwfb	(___flge@ff1+1)^0,w,c
  7360  003ACE  5037               	movf	(___flge@ff2+2)^0,w,c
  7361  003AD0  5833               	subwfb	(___flge@ff1+2)^0,w,c
  7362  003AD2  5038               	movf	(___flge@ff2+3)^0,w,c
  7363  003AD4  5834               	subwfb	(___flge@ff1+3)^0,w,c
  7364  003AD6  B0D8               	btfsc	status,0,c
  7365  003AD8  EF70  F01D         	goto	u4191
  7366  003ADC  EF72  F01D         	goto	u4190
  7367  003AE0                     u4191:
  7368  003AE0  EF75  F01D         	goto	l3982
  7369  003AE4                     u4190:
  7370  003AE4  90D8               	bcf	status,0,c
  7371  003AE6  EF76  F01D         	goto	l491
  7372  003AEA                     l3982:
  7373  003AEA  80D8               	bsf	status,0,c
  7374  003AEC                     l491:
  7375  003AEC  0012               	return		;funcret
  7376  003AEE                     __end_of___flge:
  7377                           	callstack 0
  7378                           
  7379 ;; *************** function ___fleq *****************
  7380 ;; Defined at:
  7381 ;;		line 4 in file "E:\MPLAB\xc8\pic\sources\c99\common\fleq.c"
  7382 ;; Parameters:    Size  Location     Type
  7383 ;;  ff1             4    9[COMRAM] unsigned char 
  7384 ;;  ff2             4   13[COMRAM] unsigned char 
  7385 ;; Auto vars:     Size  Location     Type
  7386 ;;		None
  7387 ;; Return value:  Size  Location     Type
  7388 ;;		None               void
  7389 ;; Registers used:
  7390 ;;		wreg, status,2, status,0
  7391 ;; Tracked objects:
  7392 ;;		On entry : 0/0
  7393 ;;		On exit  : 0/0
  7394 ;;		Unchanged: 0/0
  7395 ;; Data sizes:     COMRAM   BANK0   BANK1   BANK2   BANK3   BANK4   BANK5   BANK6   BANK7
  7396 ;;      Params:         8       0       0       0       0       0       0       0       0
  7397 ;;      Locals:         0       0       0       0       0       0       0       0       0
  7398 ;;      Temps:          4       0       0       0       0       0       0       0       0
  7399 ;;      Totals:        12       0       0       0       0       0       0       0       0
  7400 ;;Total ram usage:       12 bytes
  7401 ;; Hardware stack levels used:    1
  7402 ;; Hardware stack levels required when called:    2
  7403 ;; This function calls:
  7404 ;;		Nothing
  7405 ;; This function is called by:
  7406 ;;		_efgtoa
  7407 ;; This function uses a non-reentrant model
  7408 ;;
  7409                           
  7410                           	psect	text18
  7411  0040B0                     __ptext18:
  7412                           	callstack 0
  7413  0040B0                     ___fleq:
  7414                           	callstack 24
  7415  0040B0  0E00               	movlw	0
  7416  0040B2  140A               	andwf	___fleq@ff1^0,w,c
  7417  0040B4  6E12               	movwf	??___fleq^0,c
  7418  0040B6  0E00               	movlw	0
  7419  0040B8  140B               	andwf	(___fleq@ff1+1)^0,w,c
  7420  0040BA  6E13               	movwf	(??___fleq+1)^0,c
  7421  0040BC  0E80               	movlw	128
  7422  0040BE  140C               	andwf	(___fleq@ff1+2)^0,w,c
  7423  0040C0  6E14               	movwf	(??___fleq+2)^0,c
  7424  0040C2  0E7F               	movlw	127
  7425  0040C4  140D               	andwf	(___fleq@ff1+3)^0,w,c
  7426  0040C6  6E15               	movwf	(??___fleq+3)^0,c
  7427  0040C8  5012               	movf	??___fleq^0,w,c
  7428  0040CA  1013               	iorwf	(??___fleq+1)^0,w,c
  7429  0040CC  1014               	iorwf	(??___fleq+2)^0,w,c
  7430  0040CE  1015               	iorwf	(??___fleq+3)^0,w,c
  7431  0040D0  A4D8               	btfss	status,2,c
  7432  0040D2  EF6D  F020         	goto	u4121
  7433  0040D6  EF6F  F020         	goto	u4120
  7434  0040DA                     u4121:
  7435  0040DA  EF77  F020         	goto	l3952
  7436  0040DE                     u4120:
  7437  0040DE  0E00               	movlw	0
  7438  0040E0  6E0A               	movwf	___fleq@ff1^0,c
  7439  0040E2  0E00               	movlw	0
  7440  0040E4  6E0B               	movwf	(___fleq@ff1+1)^0,c
  7441  0040E6  0E00               	movlw	0
  7442  0040E8  6E0C               	movwf	(___fleq@ff1+2)^0,c
  7443  0040EA  0E00               	movlw	0
  7444  0040EC  6E0D               	movwf	(___fleq@ff1+3)^0,c
  7445  0040EE                     l3952:
  7446  0040EE  0E00               	movlw	0
  7447  0040F0  140E               	andwf	___fleq@ff2^0,w,c
  7448  0040F2  6E12               	movwf	??___fleq^0,c
  7449  0040F4  0E00               	movlw	0
  7450  0040F6  140F               	andwf	(___fleq@ff2+1)^0,w,c
  7451  0040F8  6E13               	movwf	(??___fleq+1)^0,c
  7452  0040FA  0E80               	movlw	128
  7453  0040FC  1410               	andwf	(___fleq@ff2+2)^0,w,c
  7454  0040FE  6E14               	movwf	(??___fleq+2)^0,c
  7455  004100  0E7F               	movlw	127
  7456  004102  1411               	andwf	(___fleq@ff2+3)^0,w,c
  7457  004104  6E15               	movwf	(??___fleq+3)^0,c
  7458  004106  5012               	movf	??___fleq^0,w,c
  7459  004108  1013               	iorwf	(??___fleq+1)^0,w,c
  7460  00410A  1014               	iorwf	(??___fleq+2)^0,w,c
  7461  00410C  1015               	iorwf	(??___fleq+3)^0,w,c
  7462  00410E  A4D8               	btfss	status,2,c
  7463  004110  EF8C  F020         	goto	u4131
  7464  004114  EF8E  F020         	goto	u4130
  7465  004118                     u4131:
  7466  004118  EF96  F020         	goto	l3956
  7467  00411C                     u4130:
  7468  00411C  0E00               	movlw	0
  7469  00411E  6E0E               	movwf	___fleq@ff2^0,c
  7470  004120  0E00               	movlw	0
  7471  004122  6E0F               	movwf	(___fleq@ff2+1)^0,c
  7472  004124  0E00               	movlw	0
  7473  004126  6E10               	movwf	(___fleq@ff2+2)^0,c
  7474  004128  0E00               	movlw	0
  7475  00412A  6E11               	movwf	(___fleq@ff2+3)^0,c
  7476  00412C                     l3956:
  7477  00412C  500E               	movf	___fleq@ff2^0,w,c
  7478  00412E  180A               	xorwf	___fleq@ff1^0,w,c
  7479  004130  E10F               	bnz	u4140
  7480  004132  500F               	movf	(___fleq@ff2+1)^0,w,c
  7481  004134  180B               	xorwf	(___fleq@ff1+1)^0,w,c
  7482  004136  E10C               	bnz	u4140
  7483  004138  5010               	movf	(___fleq@ff2+2)^0,w,c
  7484  00413A  180C               	xorwf	(___fleq@ff1+2)^0,w,c
  7485  00413C  E109               	bnz	u4140
  7486  00413E  5011               	movf	(___fleq@ff2+3)^0,w,c
  7487  004140  180D               	xorwf	(___fleq@ff1+3)^0,w,c
  7488  004142  B4D8               	btfsc	status,2,c
  7489  004144  EFA6  F020         	goto	u4141
  7490  004148  EFA8  F020         	goto	u4140
  7491  00414C                     u4141:
  7492  00414C  EFAB  F020         	goto	l3960
  7493  004150                     u4140:
  7494  004150  90D8               	bcf	status,0,c
  7495  004152  EFAC  F020         	goto	l480
  7496  004156                     l3960:
  7497  004156  80D8               	bsf	status,0,c
  7498  004158                     l480:
  7499  004158  0012               	return		;funcret
  7500  00415A                     __end_of___fleq:
  7501                           	callstack 0
  7502                           
  7503 ;; *************** function ___fldiv *****************
  7504 ;; Defined at:
  7505 ;;		line 11 in file "E:\MPLAB\xc8\pic\sources\c99\common\sprcdiv.c"
  7506 ;; Parameters:    Size  Location     Type
  7507 ;;  b               4   56[COMRAM] unsigned char 
  7508 ;;  a               4   60[COMRAM] unsigned char 
  7509 ;; Auto vars:     Size  Location     Type
  7510 ;;  grs             4    7[BANK0 ] unsigned long 
  7511 ;;  rem             4    0[BANK0 ] unsigned long 
  7512 ;;  new_exp         2    5[BANK0 ] short 
  7513 ;;  aexp            1   12[BANK0 ] unsigned char 
  7514 ;;  bexp            1   11[BANK0 ] unsigned char 
  7515 ;;  sign            1    4[BANK0 ] unsigned char 
  7516 ;; Return value:  Size  Location     Type
  7517 ;;                  4   56[COMRAM] unsigned char 
  7518 ;; Registers used:
  7519 ;;		wreg, status,2, status,0
  7520 ;; Tracked objects:
  7521 ;;		On entry : 0/0
  7522 ;;		On exit  : 0/0
  7523 ;;		Unchanged: 0/0
  7524 ;; Data sizes:     COMRAM   BANK0   BANK1   BANK2   BANK3   BANK4   BANK5   BANK6   BANK7
  7525 ;;      Params:         8       0       0       0       0       0       0       0       0
  7526 ;;      Locals:         0      13       0       0       0       0       0       0       0
  7527 ;;      Temps:          4       0       0       0       0       0       0       0       0
  7528 ;;      Totals:        12      13       0       0       0       0       0       0       0
  7529 ;;Total ram usage:       25 bytes
  7530 ;; Hardware stack levels used:    1
  7531 ;; Hardware stack levels required when called:    2
  7532 ;; This function calls:
  7533 ;;		Nothing
  7534 ;; This function is called by:
  7535 ;;		_main
  7536 ;;		_efgtoa
  7537 ;; This function uses a non-reentrant model
  7538 ;;
  7539                           
  7540                           	psect	text19
  7541  002A24                     __ptext19:
  7542                           	callstack 0
  7543  002A24                     ___fldiv:
  7544                           	callstack 24
  7545  002A24  503C               	movf	(___fldiv@b+3)^0,w,c
  7546  002A26  0B80               	andlw	128
  7547  002A28  0100               	movlb	0	; () banked
  7548  002A2A  6F64               	movwf	___fldiv@sign& (0+255),b
  7549  002A2C  503C               	movf	(___fldiv@b+3)^0,w,c
  7550  002A2E  243C               	addwf	(___fldiv@b+3)^0,w,c
  7551  002A30  6F6B               	movwf	___fldiv@bexp& (0+255),b
  7552  002A32                     
  7553                           ; BSR set to: 0
  7554  002A32  AE3B               	btfss	(___fldiv@b+2)^0,7,c
  7555  002A34  EF1E  F015         	goto	u5931
  7556  002A38  EF20  F015         	goto	u5930
  7557  002A3C                     u5931:
  7558  002A3C  EF21  F015         	goto	l5280
  7559  002A40                     u5930:
  7560  002A40                     
  7561                           ; BSR set to: 0
  7562  002A40  816B               	bsf	___fldiv@bexp& (0+255),0,b
  7563  002A42                     l5280:
  7564                           
  7565                           ; BSR set to: 0
  7566  002A42  516B               	movf	___fldiv@bexp& (0+255),w,b
  7567  002A44  B4D8               	btfsc	status,2,c
  7568  002A46  EF27  F015         	goto	u5941
  7569  002A4A  EF29  F015         	goto	u5940
  7570  002A4E                     u5941:
  7571  002A4E  EF3E  F015         	goto	l5290
  7572  002A52                     u5940:
  7573  002A52                     
  7574                           ; BSR set to: 0
  7575  002A52  296B               	incf	___fldiv@bexp& (0+255),w,b
  7576  002A54  A4D8               	btfss	status,2,c
  7577  002A56  EF2F  F015         	goto	u5951
  7578  002A5A  EF31  F015         	goto	u5950
  7579  002A5E                     u5951:
  7580  002A5E  EF39  F015         	goto	l5286
  7581  002A62                     u5950:
  7582  002A62                     
  7583                           ; BSR set to: 0
  7584  002A62  0E00               	movlw	0
  7585  002A64  6E39               	movwf	___fldiv@b^0,c
  7586  002A66  0E00               	movlw	0
  7587  002A68  6E3A               	movwf	(___fldiv@b+1)^0,c
  7588  002A6A  0E00               	movlw	0
  7589  002A6C  6E3B               	movwf	(___fldiv@b+2)^0,c
  7590  002A6E  0E00               	movlw	0
  7591  002A70  6E3C               	movwf	(___fldiv@b+3)^0,c
  7592  002A72                     l5286:
  7593                           
  7594                           ; BSR set to: 0
  7595  002A72  8E3B               	bsf	(___fldiv@b+2)^0,7,c
  7596  002A74                     
  7597                           ; BSR set to: 0
  7598  002A74  0E00               	movlw	0
  7599  002A76  6E3C               	movwf	(___fldiv@b+3)^0,c
  7600  002A78  EF46  F015         	goto	l5292
  7601  002A7C                     l5290:
  7602                           
  7603                           ; BSR set to: 0
  7604  002A7C  0E00               	movlw	0
  7605  002A7E  6E39               	movwf	___fldiv@b^0,c
  7606  002A80  0E00               	movlw	0
  7607  002A82  6E3A               	movwf	(___fldiv@b+1)^0,c
  7608  002A84  0E00               	movlw	0
  7609  002A86  6E3B               	movwf	(___fldiv@b+2)^0,c
  7610  002A88  0E00               	movlw	0
  7611  002A8A  6E3C               	movwf	(___fldiv@b+3)^0,c
  7612  002A8C                     l5292:
  7613                           
  7614                           ; BSR set to: 0
  7615  002A8C  5040               	movf	(___fldiv@a+3)^0,w,c
  7616  002A8E  0B80               	andlw	128
  7617  002A90  1B64               	xorwf	___fldiv@sign& (0+255),f,b
  7618  002A92                     
  7619                           ; BSR set to: 0
  7620  002A92  5040               	movf	(___fldiv@a+3)^0,w,c
  7621  002A94  2440               	addwf	(___fldiv@a+3)^0,w,c
  7622  002A96  6F6C               	movwf	___fldiv@aexp& (0+255),b
  7623  002A98                     
  7624                           ; BSR set to: 0
  7625  002A98  AE3F               	btfss	(___fldiv@a+2)^0,7,c
  7626  002A9A  EF51  F015         	goto	u5961
  7627  002A9E  EF53  F015         	goto	u5960
  7628  002AA2                     u5961:
  7629  002AA2  EF54  F015         	goto	l5300
  7630  002AA6                     u5960:
  7631  002AA6                     
  7632                           ; BSR set to: 0
  7633  002AA6  816C               	bsf	___fldiv@aexp& (0+255),0,b
  7634  002AA8                     l5300:
  7635                           
  7636                           ; BSR set to: 0
  7637  002AA8  516C               	movf	___fldiv@aexp& (0+255),w,b
  7638  002AAA  B4D8               	btfsc	status,2,c
  7639  002AAC  EF5A  F015         	goto	u5971
  7640  002AB0  EF5C  F015         	goto	u5970
  7641  002AB4                     u5971:
  7642  002AB4  EF71  F015         	goto	l5310
  7643  002AB8                     u5970:
  7644  002AB8                     
  7645                           ; BSR set to: 0
  7646  002AB8  296C               	incf	___fldiv@aexp& (0+255),w,b
  7647  002ABA  A4D8               	btfss	status,2,c
  7648  002ABC  EF62  F015         	goto	u5981
  7649  002AC0  EF64  F015         	goto	u5980
  7650  002AC4                     u5981:
  7651  002AC4  EF6C  F015         	goto	l5306
  7652  002AC8                     u5980:
  7653  002AC8                     
  7654                           ; BSR set to: 0
  7655  002AC8  0E00               	movlw	0
  7656  002ACA  6E3D               	movwf	___fldiv@a^0,c
  7657  002ACC  0E00               	movlw	0
  7658  002ACE  6E3E               	movwf	(___fldiv@a+1)^0,c
  7659  002AD0  0E00               	movlw	0
  7660  002AD2  6E3F               	movwf	(___fldiv@a+2)^0,c
  7661  002AD4  0E00               	movlw	0
  7662  002AD6  6E40               	movwf	(___fldiv@a+3)^0,c
  7663  002AD8                     l5306:
  7664                           
  7665                           ; BSR set to: 0
  7666  002AD8  8E3F               	bsf	(___fldiv@a+2)^0,7,c
  7667  002ADA                     
  7668                           ; BSR set to: 0
  7669  002ADA  0E00               	movlw	0
  7670  002ADC  6E40               	movwf	(___fldiv@a+3)^0,c
  7671  002ADE  EF79  F015         	goto	l5312
  7672  002AE2                     l5310:
  7673                           
  7674                           ; BSR set to: 0
  7675  002AE2  0E00               	movlw	0
  7676  002AE4  6E3D               	movwf	___fldiv@a^0,c
  7677  002AE6  0E00               	movlw	0
  7678  002AE8  6E3E               	movwf	(___fldiv@a+1)^0,c
  7679  002AEA  0E00               	movlw	0
  7680  002AEC  6E3F               	movwf	(___fldiv@a+2)^0,c
  7681  002AEE  0E00               	movlw	0
  7682  002AF0  6E40               	movwf	(___fldiv@a+3)^0,c
  7683  002AF2                     l5312:
  7684                           
  7685                           ; BSR set to: 0
  7686  002AF2  503D               	movf	___fldiv@a^0,w,c
  7687  002AF4  103E               	iorwf	(___fldiv@a+1)^0,w,c
  7688  002AF6  103F               	iorwf	(___fldiv@a+2)^0,w,c
  7689  002AF8  1040               	iorwf	(___fldiv@a+3)^0,w,c
  7690  002AFA  A4D8               	btfss	status,2,c
  7691  002AFC  EF82  F015         	goto	u5991
  7692  002B00  EF84  F015         	goto	u5990
  7693  002B04                     u5991:
  7694  002B04  EF9C  F015         	goto	l5324
  7695  002B08                     u5990:
  7696  002B08                     
  7697                           ; BSR set to: 0
  7698  002B08  0E00               	movlw	0
  7699  002B0A  6E39               	movwf	___fldiv@b^0,c
  7700  002B0C  0E00               	movlw	0
  7701  002B0E  6E3A               	movwf	(___fldiv@b+1)^0,c
  7702  002B10  0E00               	movlw	0
  7703  002B12  6E3B               	movwf	(___fldiv@b+2)^0,c
  7704  002B14  0E00               	movlw	0
  7705  002B16  6E3C               	movwf	(___fldiv@b+3)^0,c
  7706  002B18                     
  7707                           ; BSR set to: 0
  7708  002B18  0E80               	movlw	128
  7709  002B1A  123B               	iorwf	(___fldiv@b+2)^0,f,c
  7710  002B1C  0E7F               	movlw	127
  7711  002B1E  123C               	iorwf	(___fldiv@b+3)^0,f,c
  7712  002B20                     l5318:
  7713                           
  7714                           ; BSR set to: 0
  7715  002B20  5164               	movf	___fldiv@sign& (0+255),w,b
  7716  002B22  123C               	iorwf	(___fldiv@b+3)^0,f,c
  7717  002B24                     
  7718                           ; BSR set to: 0
  7719  002B24  C039  F039         	movff	___fldiv@b,?___fldiv
  7720  002B28  C03A  F03A         	movff	___fldiv@b+1,?___fldiv+1
  7721  002B2C  C03B  F03B         	movff	___fldiv@b+2,?___fldiv+2
  7722  002B30  C03C  F03C         	movff	___fldiv@b+3,?___fldiv+3
  7723  002B34  EFDF  F016         	goto	l803
  7724  002B38                     l5324:
  7725                           
  7726                           ; BSR set to: 0
  7727  002B38  516B               	movf	___fldiv@bexp& (0+255),w,b
  7728  002B3A  A4D8               	btfss	status,2,c
  7729  002B3C  EFA2  F015         	goto	u6001
  7730  002B40  EFA4  F015         	goto	u6000
  7731  002B44                     u6001:
  7732  002B44  EFAE  F015         	goto	l5332
  7733  002B48                     u6000:
  7734  002B48                     
  7735                           ; BSR set to: 0
  7736  002B48  0E00               	movlw	0
  7737  002B4A  6E39               	movwf	?___fldiv^0,c
  7738  002B4C  0E00               	movlw	0
  7739  002B4E  6E3A               	movwf	(?___fldiv+1)^0,c
  7740  002B50  0E00               	movlw	0
  7741  002B52  6E3B               	movwf	(?___fldiv+2)^0,c
  7742  002B54  0E00               	movlw	0
  7743  002B56  6E3C               	movwf	(?___fldiv+3)^0,c
  7744  002B58  EFDF  F016         	goto	l803
  7745  002B5C                     l5332:
  7746                           
  7747                           ; BSR set to: 0
  7748  002B5C  516C               	movf	___fldiv@aexp& (0+255),w,b
  7749  002B5E  C06B  F041         	movff	___fldiv@bexp,??___fldiv
  7750  002B62  6A42               	clrf	(??___fldiv+1)^0,c
  7751  002B64  5E41               	subwf	??___fldiv^0,f,c
  7752  002B66  0E00               	movlw	0
  7753  002B68  5A42               	subwfb	(??___fldiv+1)^0,f,c
  7754  002B6A  0E7F               	movlw	127
  7755  002B6C  2441               	addwf	??___fldiv^0,w,c
  7756  002B6E  6F65               	movwf	___fldiv@new_exp& (0+255),b
  7757  002B70  0E00               	movlw	0
  7758  002B72  2042               	addwfc	(??___fldiv+1)^0,w,c
  7759  002B74  6F66               	movwf	(___fldiv@new_exp+1)& (0+255),b
  7760  002B76                     
  7761                           ; BSR set to: 0
  7762  002B76  C039  F060         	movff	___fldiv@b,___fldiv@rem
  7763  002B7A  C03A  F061         	movff	___fldiv@b+1,___fldiv@rem+1
  7764  002B7E  C03B  F062         	movff	___fldiv@b+2,___fldiv@rem+2
  7765  002B82  C03C  F063         	movff	___fldiv@b+3,___fldiv@rem+3
  7766  002B86                     
  7767                           ; BSR set to: 0
  7768  002B86  0E00               	movlw	0
  7769  002B88  6E39               	movwf	___fldiv@b^0,c
  7770  002B8A  0E00               	movlw	0
  7771  002B8C  6E3A               	movwf	(___fldiv@b+1)^0,c
  7772  002B8E  0E00               	movlw	0
  7773  002B90  6E3B               	movwf	(___fldiv@b+2)^0,c
  7774  002B92  0E00               	movlw	0
  7775  002B94  6E3C               	movwf	(___fldiv@b+3)^0,c
  7776  002B96                     
  7777                           ; BSR set to: 0
  7778  002B96  0E00               	movlw	0
  7779  002B98  6F67               	movwf	___fldiv@grs& (0+255),b
  7780  002B9A  0E00               	movlw	0
  7781  002B9C  6F68               	movwf	(___fldiv@grs+1)& (0+255),b
  7782  002B9E  0E00               	movlw	0
  7783  002BA0  6F69               	movwf	(___fldiv@grs+2)& (0+255),b
  7784  002BA2  0E00               	movlw	0
  7785  002BA4  6F6A               	movwf	(___fldiv@grs+3)& (0+255),b
  7786  002BA6                     
  7787                           ; BSR set to: 0
  7788  002BA6  0E00               	movlw	0
  7789  002BA8  6F6C               	movwf	___fldiv@aexp& (0+255),b
  7790  002BAA  EF0F  F016         	goto	l805
  7791  002BAE                     l5342:
  7792                           
  7793                           ; BSR set to: 0
  7794  002BAE  516C               	movf	___fldiv@aexp& (0+255),w,b
  7795  002BB0  B4D8               	btfsc	status,2,c
  7796  002BB2  EFDD  F015         	goto	u6011
  7797  002BB6  EFDF  F015         	goto	u6010
  7798  002BBA                     u6011:
  7799  002BBA  EFF6  F015         	goto	l5350
  7800  002BBE                     u6010:
  7801  002BBE                     
  7802                           ; BSR set to: 0
  7803  002BBE  90D8               	bcf	status,0,c
  7804  002BC0  3760               	rlcf	___fldiv@rem& (0+255),f,b
  7805  002BC2  3761               	rlcf	(___fldiv@rem+1)& (0+255),f,b
  7806  002BC4  3762               	rlcf	(___fldiv@rem+2)& (0+255),f,b
  7807  002BC6  3763               	rlcf	(___fldiv@rem+3)& (0+255),f,b
  7808  002BC8  90D8               	bcf	status,0,c
  7809  002BCA  3639               	rlcf	___fldiv@b^0,f,c
  7810  002BCC  363A               	rlcf	(___fldiv@b+1)^0,f,c
  7811  002BCE  363B               	rlcf	(___fldiv@b+2)^0,f,c
  7812  002BD0  363C               	rlcf	(___fldiv@b+3)^0,f,c
  7813  002BD2                     
  7814                           ; BSR set to: 0
  7815  002BD2  AF6A               	btfss	(___fldiv@grs+3)& (0+255),7,b
  7816  002BD4  EFEE  F015         	goto	u6021
  7817  002BD8  EFF0  F015         	goto	u6020
  7818  002BDC                     u6021:
  7819  002BDC  EFF1  F015         	goto	l808
  7820  002BE0                     u6020:
  7821  002BE0                     
  7822                           ; BSR set to: 0
  7823  002BE0  8039               	bsf	___fldiv@b^0,0,c
  7824  002BE2                     l808:
  7825                           
  7826                           ; BSR set to: 0
  7827  002BE2  90D8               	bcf	status,0,c
  7828  002BE4  3767               	rlcf	___fldiv@grs& (0+255),f,b
  7829  002BE6  3768               	rlcf	(___fldiv@grs+1)& (0+255),f,b
  7830  002BE8  3769               	rlcf	(___fldiv@grs+2)& (0+255),f,b
  7831  002BEA  376A               	rlcf	(___fldiv@grs+3)& (0+255),f,b
  7832  002BEC                     l5350:
  7833                           
  7834                           ; BSR set to: 0
  7835  002BEC  503D               	movf	___fldiv@a^0,w,c
  7836  002BEE  5D60               	subwf	___fldiv@rem& (0+255),w,b
  7837  002BF0  503E               	movf	(___fldiv@a+1)^0,w,c
  7838  002BF2  5961               	subwfb	(___fldiv@rem+1)& (0+255),w,b
  7839  002BF4  503F               	movf	(___fldiv@a+2)^0,w,c
  7840  002BF6  5962               	subwfb	(___fldiv@rem+2)& (0+255),w,b
  7841  002BF8  5040               	movf	(___fldiv@a+3)^0,w,c
  7842  002BFA  5963               	subwfb	(___fldiv@rem+3)& (0+255),w,b
  7843  002BFC  A0D8               	btfss	status,0,c
  7844  002BFE  EF03  F016         	goto	u6031
  7845  002C02  EF05  F016         	goto	u6030
  7846  002C06                     u6031:
  7847  002C06  EF0E  F016         	goto	l5356
  7848  002C0A                     u6030:
  7849  002C0A                     
  7850                           ; BSR set to: 0
  7851  002C0A  8D6A               	bsf	(___fldiv@grs+3)& (0+255),6,b
  7852  002C0C                     
  7853                           ; BSR set to: 0
  7854  002C0C  503D               	movf	___fldiv@a^0,w,c
  7855  002C0E  5F60               	subwf	___fldiv@rem& (0+255),f,b
  7856  002C10  503E               	movf	(___fldiv@a+1)^0,w,c
  7857  002C12  5B61               	subwfb	(___fldiv@rem+1)& (0+255),f,b
  7858  002C14  503F               	movf	(___fldiv@a+2)^0,w,c
  7859  002C16  5B62               	subwfb	(___fldiv@rem+2)& (0+255),f,b
  7860  002C18  5040               	movf	(___fldiv@a+3)^0,w,c
  7861  002C1A  5B63               	subwfb	(___fldiv@rem+3)& (0+255),f,b
  7862  002C1C                     l5356:
  7863                           
  7864                           ; BSR set to: 0
  7865  002C1C  2B6C               	incf	___fldiv@aexp& (0+255),f,b
  7866  002C1E                     l805:
  7867                           
  7868                           ; BSR set to: 0
  7869  002C1E  0E19               	movlw	25
  7870  002C20  656C               	cpfsgt	___fldiv@aexp& (0+255),b
  7871  002C22  EF15  F016         	goto	u6041
  7872  002C26  EF17  F016         	goto	u6040
  7873  002C2A                     u6041:
  7874  002C2A  EFD7  F015         	goto	l5342
  7875  002C2E                     u6040:
  7876  002C2E                     
  7877                           ; BSR set to: 0
  7878  002C2E  5160               	movf	___fldiv@rem& (0+255),w,b
  7879  002C30  1161               	iorwf	(___fldiv@rem+1)& (0+255),w,b
  7880  002C32  1162               	iorwf	(___fldiv@rem+2)& (0+255),w,b
  7881  002C34  1163               	iorwf	(___fldiv@rem+3)& (0+255),w,b
  7882  002C36  B4D8               	btfsc	status,2,c
  7883  002C38  EF20  F016         	goto	u6051
  7884  002C3C  EF22  F016         	goto	u6050
  7885  002C40                     u6051:
  7886  002C40  EF3A  F016         	goto	l5368
  7887  002C44                     u6050:
  7888  002C44                     
  7889                           ; BSR set to: 0
  7890  002C44  8167               	bsf	___fldiv@grs& (0+255),0,b
  7891  002C46  EF3A  F016         	goto	l5368
  7892  002C4A                     l5362:
  7893                           
  7894                           ; BSR set to: 0
  7895  002C4A  90D8               	bcf	status,0,c
  7896  002C4C  3639               	rlcf	___fldiv@b^0,f,c
  7897  002C4E  363A               	rlcf	(___fldiv@b+1)^0,f,c
  7898  002C50  363B               	rlcf	(___fldiv@b+2)^0,f,c
  7899  002C52  363C               	rlcf	(___fldiv@b+3)^0,f,c
  7900  002C54                     
  7901                           ; BSR set to: 0
  7902  002C54  AF6A               	btfss	(___fldiv@grs+3)& (0+255),7,b
  7903  002C56  EF2F  F016         	goto	u6061
  7904  002C5A  EF31  F016         	goto	u6060
  7905  002C5E                     u6061:
  7906  002C5E  EF32  F016         	goto	l814
  7907  002C62                     u6060:
  7908  002C62                     
  7909                           ; BSR set to: 0
  7910  002C62  8039               	bsf	___fldiv@b^0,0,c
  7911  002C64                     l814:
  7912                           
  7913                           ; BSR set to: 0
  7914  002C64  90D8               	bcf	status,0,c
  7915  002C66  3767               	rlcf	___fldiv@grs& (0+255),f,b
  7916  002C68  3768               	rlcf	(___fldiv@grs+1)& (0+255),f,b
  7917  002C6A  3769               	rlcf	(___fldiv@grs+2)& (0+255),f,b
  7918  002C6C  376A               	rlcf	(___fldiv@grs+3)& (0+255),f,b
  7919  002C6E  0765               	decf	___fldiv@new_exp& (0+255),f,b
  7920  002C70  A0D8               	btfss	status,0,c
  7921  002C72  0766               	decf	(___fldiv@new_exp+1)& (0+255),f,b
  7922  002C74                     l5368:
  7923                           
  7924                           ; BSR set to: 0
  7925  002C74  AE3B               	btfss	(___fldiv@b+2)^0,7,c
  7926  002C76  EF3F  F016         	goto	u6071
  7927  002C7A  EF41  F016         	goto	u6070
  7928  002C7E                     u6071:
  7929  002C7E  EF25  F016         	goto	l5362
  7930  002C82                     u6070:
  7931  002C82                     
  7932                           ; BSR set to: 0
  7933  002C82  0E00               	movlw	0
  7934  002C84  6F6C               	movwf	___fldiv@aexp& (0+255),b
  7935  002C86                     
  7936                           ; BSR set to: 0
  7937  002C86  AF6A               	btfss	(___fldiv@grs+3)& (0+255),7,b
  7938  002C88  EF48  F016         	goto	u6081
  7939  002C8C  EF4A  F016         	goto	u6080
  7940  002C90                     u6081:
  7941  002C90  EF6E  F016         	goto	l816
  7942  002C94                     u6080:
  7943  002C94                     
  7944                           ; BSR set to: 0
  7945  002C94  0EFF               	movlw	255
  7946  002C96  1567               	andwf	___fldiv@grs& (0+255),w,b
  7947  002C98  6E41               	movwf	??___fldiv^0,c
  7948  002C9A  0EFF               	movlw	255
  7949  002C9C  1568               	andwf	(___fldiv@grs+1)& (0+255),w,b
  7950  002C9E  6E42               	movwf	(??___fldiv+1)^0,c
  7951  002CA0  0EFF               	movlw	255
  7952  002CA2  1569               	andwf	(___fldiv@grs+2)& (0+255),w,b
  7953  002CA4  6E43               	movwf	(??___fldiv+2)^0,c
  7954  002CA6  0E7F               	movlw	127
  7955  002CA8  156A               	andwf	(___fldiv@grs+3)& (0+255),w,b
  7956  002CAA  6E44               	movwf	(??___fldiv+3)^0,c
  7957  002CAC  5041               	movf	??___fldiv^0,w,c
  7958  002CAE  1042               	iorwf	(??___fldiv+1)^0,w,c
  7959  002CB0  1043               	iorwf	(??___fldiv+2)^0,w,c
  7960  002CB2  1044               	iorwf	(??___fldiv+3)^0,w,c
  7961  002CB4  B4D8               	btfsc	status,2,c
  7962  002CB6  EF5F  F016         	goto	u6091
  7963  002CBA  EF61  F016         	goto	u6090
  7964  002CBE                     u6091:
  7965  002CBE  EF65  F016         	goto	l817
  7966  002CC2                     u6090:
  7967  002CC2                     l5376:
  7968                           
  7969                           ; BSR set to: 0
  7970  002CC2  0E01               	movlw	1
  7971  002CC4  6F6C               	movwf	___fldiv@aexp& (0+255),b
  7972  002CC6  EF6E  F016         	goto	l816
  7973  002CCA                     l817:
  7974                           
  7975                           ; BSR set to: 0
  7976  002CCA  A039               	btfss	___fldiv@b^0,0,c
  7977  002CCC  EF6A  F016         	goto	u6101
  7978  002CD0  EF6C  F016         	goto	u6100
  7979  002CD4                     u6101:
  7980  002CD4  EF6E  F016         	goto	l816
  7981  002CD8                     u6100:
  7982  002CD8  EF61  F016         	goto	l5376
  7983  002CDC                     l816:
  7984                           
  7985                           ; BSR set to: 0
  7986  002CDC  516C               	movf	___fldiv@aexp& (0+255),w,b
  7987  002CDE  B4D8               	btfsc	status,2,c
  7988  002CE0  EF74  F016         	goto	u6111
  7989  002CE4  EF76  F016         	goto	u6110
  7990  002CE8                     u6111:
  7991  002CE8  EF9A  F016         	goto	l5388
  7992  002CEC                     u6110:
  7993  002CEC                     
  7994                           ; BSR set to: 0
  7995  002CEC  0E01               	movlw	1
  7996  002CEE  2639               	addwf	___fldiv@b^0,f,c
  7997  002CF0  0E00               	movlw	0
  7998  002CF2  223A               	addwfc	(___fldiv@b+1)^0,f,c
  7999  002CF4  223B               	addwfc	(___fldiv@b+2)^0,f,c
  8000  002CF6  223C               	addwfc	(___fldiv@b+3)^0,f,c
  8001  002CF8                     
  8002                           ; BSR set to: 0
  8003  002CF8  A03C               	btfss	(___fldiv@b+3)^0,0,c
  8004  002CFA  EF81  F016         	goto	u6121
  8005  002CFE  EF83  F016         	goto	u6120
  8006  002D02                     u6121:
  8007  002D02  EF9A  F016         	goto	l5388
  8008  002D06                     u6120:
  8009  002D06                     
  8010                           ; BSR set to: 0
  8011  002D06  C039  F041         	movff	___fldiv@b,??___fldiv
  8012  002D0A  C03A  F042         	movff	___fldiv@b+1,??___fldiv+1
  8013  002D0E  C03B  F043         	movff	___fldiv@b+2,??___fldiv+2
  8014  002D12  C03C  F044         	movff	___fldiv@b+3,??___fldiv+3
  8015  002D16  3444               	rlcf	(??___fldiv+3)^0,w,c
  8016  002D18  3244               	rrcf	(??___fldiv+3)^0,f,c
  8017  002D1A  3243               	rrcf	(??___fldiv+2)^0,f,c
  8018  002D1C  3242               	rrcf	(??___fldiv+1)^0,f,c
  8019  002D1E  3241               	rrcf	??___fldiv^0,f,c
  8020  002D20  C041  F039         	movff	??___fldiv,___fldiv@b
  8021  002D24  C042  F03A         	movff	??___fldiv+1,___fldiv@b+1
  8022  002D28  C043  F03B         	movff	??___fldiv+2,___fldiv@b+2
  8023  002D2C  C044  F03C         	movff	??___fldiv+3,___fldiv@b+3
  8024  002D30                     
  8025                           ; BSR set to: 0
  8026  002D30  4B65               	infsnz	___fldiv@new_exp& (0+255),f,b
  8027  002D32  2B66               	incf	(___fldiv@new_exp+1)& (0+255),f,b
  8028  002D34                     l5388:
  8029                           
  8030                           ; BSR set to: 0
  8031  002D34  BF66               	btfsc	(___fldiv@new_exp+1)& (0+255),7,b
  8032  002D36  EFA5  F016         	goto	u6131
  8033  002D3A  5166               	movf	(___fldiv@new_exp+1)& (0+255),w,b
  8034  002D3C  E108               	bnz	u6130
  8035  002D3E  2965               	incf	___fldiv@new_exp& (0+255),w,b
  8036  002D40  A0D8               	btfss	status,0,c
  8037  002D42  EFA5  F016         	goto	u6131
  8038  002D46  EFA7  F016         	goto	u6130
  8039  002D4A                     u6131:
  8040  002D4A  EFB2  F016         	goto	l5392
  8041  002D4E                     u6130:
  8042  002D4E                     
  8043                           ; BSR set to: 0
  8044  002D4E  0E00               	movlw	0
  8045  002D50  6F66               	movwf	(___fldiv@new_exp+1)& (0+255),b
  8046  002D52  6965               	setf	___fldiv@new_exp& (0+255),b
  8047  002D54  0E00               	movlw	0
  8048  002D56  6E39               	movwf	___fldiv@b^0,c
  8049  002D58  0E00               	movlw	0
  8050  002D5A  6E3A               	movwf	(___fldiv@b+1)^0,c
  8051  002D5C  0E00               	movlw	0
  8052  002D5E  6E3B               	movwf	(___fldiv@b+2)^0,c
  8053  002D60  0E00               	movlw	0
  8054  002D62  6E3C               	movwf	(___fldiv@b+3)^0,c
  8055  002D64                     l5392:
  8056                           
  8057                           ; BSR set to: 0
  8058  002D64  BF66               	btfsc	(___fldiv@new_exp+1)& (0+255),7,b
  8059  002D66  EFBF  F016         	goto	u6140
  8060  002D6A  5166               	movf	(___fldiv@new_exp+1)& (0+255),w,b
  8061  002D6C  E106               	bnz	u6141
  8062  002D6E  0565               	decf	___fldiv@new_exp& (0+255),w,b
  8063  002D70  B0D8               	btfsc	status,0,c
  8064  002D72  EFBD  F016         	goto	u6141
  8065  002D76  EFBF  F016         	goto	u6140
  8066  002D7A                     u6141:
  8067  002D7A  EFCD  F016         	goto	l5396
  8068  002D7E                     u6140:
  8069  002D7E                     
  8070                           ; BSR set to: 0
  8071  002D7E  0E00               	movlw	0
  8072  002D80  6F66               	movwf	(___fldiv@new_exp+1)& (0+255),b
  8073  002D82  0E00               	movlw	0
  8074  002D84  6F65               	movwf	___fldiv@new_exp& (0+255),b
  8075  002D86  0E00               	movlw	0
  8076  002D88  6E39               	movwf	___fldiv@b^0,c
  8077  002D8A  0E00               	movlw	0
  8078  002D8C  6E3A               	movwf	(___fldiv@b+1)^0,c
  8079  002D8E  0E00               	movlw	0
  8080  002D90  6E3B               	movwf	(___fldiv@b+2)^0,c
  8081  002D92  0E00               	movlw	0
  8082  002D94  6E3C               	movwf	(___fldiv@b+3)^0,c
  8083  002D96  0E00               	movlw	0
  8084  002D98  6F64               	movwf	___fldiv@sign& (0+255),b
  8085  002D9A                     l5396:
  8086                           
  8087                           ; BSR set to: 0
  8088  002D9A  C065  F06B         	movff	___fldiv@new_exp,___fldiv@bexp
  8089  002D9E                     
  8090                           ; BSR set to: 0
  8091  002D9E  A16B               	btfss	___fldiv@bexp& (0+255),0,b
  8092  002DA0  EFD4  F016         	goto	u6151
  8093  002DA4  EFD6  F016         	goto	u6150
  8094  002DA8                     u6151:
  8095  002DA8  EFD9  F016         	goto	l5402
  8096  002DAC                     u6150:
  8097  002DAC                     
  8098                           ; BSR set to: 0
  8099  002DAC  8E3B               	bsf	(___fldiv@b+2)^0,7,c
  8100  002DAE  EFDA  F016         	goto	l5404
  8101  002DB2                     l5402:
  8102                           
  8103                           ; BSR set to: 0
  8104  002DB2  9E3B               	bcf	(___fldiv@b+2)^0,7,c
  8105  002DB4                     l5404:
  8106                           
  8107                           ; BSR set to: 0
  8108  002DB4  90D8               	bcf	status,0,c
  8109  002DB6  316B               	rrcf	___fldiv@bexp& (0+255),w,b
  8110  002DB8  6E3C               	movwf	(___fldiv@b+3)^0,c
  8111  002DBA  EF90  F015         	goto	l5318
  8112  002DBE                     l803:
  8113                           
  8114                           ; BSR set to: 0
  8115  002DBE  0012               	return		;funcret
  8116  002DC0                     __end_of___fldiv:
  8117                           	callstack 0
  8118                           
  8119 ;; *************** function ___awmod *****************
  8120 ;; Defined at:
  8121 ;;		line 7 in file "E:\MPLAB\xc8\pic\sources\c99\common\awmod.c"
  8122 ;; Parameters:    Size  Location     Type
  8123 ;;  dividend        2    9[COMRAM] int 
  8124 ;;  divisor         2   11[COMRAM] int 
  8125 ;; Auto vars:     Size  Location     Type
  8126 ;;  sign            1   14[COMRAM] unsigned char 
  8127 ;;  counter         1   13[COMRAM] unsigned char 
  8128 ;; Return value:  Size  Location     Type
  8129 ;;                  2    9[COMRAM] int 
  8130 ;; Registers used:
  8131 ;;		wreg, status,2, status,0
  8132 ;; Tracked objects:
  8133 ;;		On entry : 0/0
  8134 ;;		On exit  : 0/0
  8135 ;;		Unchanged: 0/0
  8136 ;; Data sizes:     COMRAM   BANK0   BANK1   BANK2   BANK3   BANK4   BANK5   BANK6   BANK7
  8137 ;;      Params:         4       0       0       0       0       0       0       0       0
  8138 ;;      Locals:         2       0       0       0       0       0       0       0       0
  8139 ;;      Temps:          0       0       0       0       0       0       0       0       0
  8140 ;;      Totals:         6       0       0       0       0       0       0       0       0
  8141 ;;Total ram usage:        6 bytes
  8142 ;; Hardware stack levels used:    1
  8143 ;; Hardware stack levels required when called:    2
  8144 ;; This function calls:
  8145 ;;		Nothing
  8146 ;; This function is called by:
  8147 ;;		_efgtoa
  8148 ;; This function uses a non-reentrant model
  8149 ;;
  8150                           
  8151                           	psect	text20
  8152  004000                     __ptext20:
  8153                           	callstack 0
  8154  004000                     ___awmod:
  8155                           	callstack 24
  8156  004000  0E00               	movlw	0
  8157  004002  6E0F               	movwf	___awmod@sign^0,c
  8158  004004  BE0B               	btfsc	(___awmod@dividend+1)^0,7,c
  8159  004006  EF09  F020         	goto	u4060
  8160  00400A  EF07  F020         	goto	u4061
  8161  00400E                     u4061:
  8162  00400E  EF0F  F020         	goto	l3920
  8163  004012                     u4060:
  8164  004012  6C0A               	negf	___awmod@dividend^0,c
  8165  004014  1E0B               	comf	(___awmod@dividend+1)^0,f,c
  8166  004016  B0D8               	btfsc	status,0,c
  8167  004018  2A0B               	incf	(___awmod@dividend+1)^0,f,c
  8168  00401A  0E01               	movlw	1
  8169  00401C  6E0F               	movwf	___awmod@sign^0,c
  8170  00401E                     l3920:
  8171  00401E  BE0D               	btfsc	(___awmod@divisor+1)^0,7,c
  8172  004020  EF16  F020         	goto	u4070
  8173  004024  EF14  F020         	goto	u4071
  8174  004028                     u4071:
  8175  004028  EF1A  F020         	goto	l3924
  8176  00402C                     u4070:
  8177  00402C  6C0C               	negf	___awmod@divisor^0,c
  8178  00402E  1E0D               	comf	(___awmod@divisor+1)^0,f,c
  8179  004030  B0D8               	btfsc	status,0,c
  8180  004032  2A0D               	incf	(___awmod@divisor+1)^0,f,c
  8181  004034                     l3924:
  8182  004034  500C               	movf	___awmod@divisor^0,w,c
  8183  004036  100D               	iorwf	(___awmod@divisor+1)^0,w,c
  8184  004038  B4D8               	btfsc	status,2,c
  8185  00403A  EF21  F020         	goto	u4081
  8186  00403E  EF23  F020         	goto	u4080
  8187  004042                     u4081:
  8188  004042  EF47  F020         	goto	l3940
  8189  004046                     u4080:
  8190  004046  0E01               	movlw	1
  8191  004048  6E0E               	movwf	___awmod@counter^0,c
  8192  00404A  EF2B  F020         	goto	l3930
  8193  00404E                     l3928:
  8194  00404E  90D8               	bcf	status,0,c
  8195  004050  360C               	rlcf	___awmod@divisor^0,f,c
  8196  004052  360D               	rlcf	(___awmod@divisor+1)^0,f,c
  8197  004054  2A0E               	incf	___awmod@counter^0,f,c
  8198  004056                     l3930:
  8199  004056  AE0D               	btfss	(___awmod@divisor+1)^0,7,c
  8200  004058  EF30  F020         	goto	u4091
  8201  00405C  EF32  F020         	goto	u4090
  8202  004060                     u4091:
  8203  004060  EF27  F020         	goto	l3928
  8204  004064                     u4090:
  8205  004064                     l3932:
  8206  004064  500C               	movf	___awmod@divisor^0,w,c
  8207  004066  5C0A               	subwf	___awmod@dividend^0,w,c
  8208  004068  500D               	movf	(___awmod@divisor+1)^0,w,c
  8209  00406A  580B               	subwfb	(___awmod@dividend+1)^0,w,c
  8210  00406C  A0D8               	btfss	status,0,c
  8211  00406E  EF3B  F020         	goto	u4101
  8212  004072  EF3D  F020         	goto	u4100
  8213  004076                     u4101:
  8214  004076  EF41  F020         	goto	l3936
  8215  00407A                     u4100:
  8216  00407A  500C               	movf	___awmod@divisor^0,w,c
  8217  00407C  5E0A               	subwf	___awmod@dividend^0,f,c
  8218  00407E  500D               	movf	(___awmod@divisor+1)^0,w,c
  8219  004080  5A0B               	subwfb	(___awmod@dividend+1)^0,f,c
  8220  004082                     l3936:
  8221  004082  90D8               	bcf	status,0,c
  8222  004084  320D               	rrcf	(___awmod@divisor+1)^0,f,c
  8223  004086  320C               	rrcf	___awmod@divisor^0,f,c
  8224  004088  2E0E               	decfsz	___awmod@counter^0,f,c
  8225  00408A  EF32  F020         	goto	l3932
  8226  00408E                     l3940:
  8227  00408E  500F               	movf	___awmod@sign^0,w,c
  8228  004090  B4D8               	btfsc	status,2,c
  8229  004092  EF4D  F020         	goto	u4111
  8230  004096  EF4F  F020         	goto	u4110
  8231  00409A                     u4111:
  8232  00409A  EF53  F020         	goto	l3944
  8233  00409E                     u4110:
  8234  00409E  6C0A               	negf	___awmod@dividend^0,c
  8235  0040A0  1E0B               	comf	(___awmod@dividend+1)^0,f,c
  8236  0040A2  B0D8               	btfsc	status,0,c
  8237  0040A4  2A0B               	incf	(___awmod@dividend+1)^0,f,c
  8238  0040A6                     l3944:
  8239  0040A6  C00A  F00A         	movff	___awmod@dividend,?___awmod
  8240  0040AA  C00B  F00B         	movff	___awmod@dividend+1,?___awmod+1
  8241  0040AE  0012               	return		;funcret
  8242  0040B0                     __end_of___awmod:
  8243                           	callstack 0
  8244                           
  8245 ;; *************** function ___awdiv *****************
  8246 ;; Defined at:
  8247 ;;		line 7 in file "E:\MPLAB\xc8\pic\sources\c99\common\awdiv.c"
  8248 ;; Parameters:    Size  Location     Type
  8249 ;;  dividend        2    9[COMRAM] int 
  8250 ;;  divisor         2   11[COMRAM] int 
  8251 ;; Auto vars:     Size  Location     Type
  8252 ;;  quotient        2   15[COMRAM] int 
  8253 ;;  sign            1   14[COMRAM] unsigned char 
  8254 ;;  counter         1   13[COMRAM] unsigned char 
  8255 ;; Return value:  Size  Location     Type
  8256 ;;                  2    9[COMRAM] int 
  8257 ;; Registers used:
  8258 ;;		wreg, status,2, status,0
  8259 ;; Tracked objects:
  8260 ;;		On entry : 0/0
  8261 ;;		On exit  : 0/0
  8262 ;;		Unchanged: 0/0
  8263 ;; Data sizes:     COMRAM   BANK0   BANK1   BANK2   BANK3   BANK4   BANK5   BANK6   BANK7
  8264 ;;      Params:         4       0       0       0       0       0       0       0       0
  8265 ;;      Locals:         4       0       0       0       0       0       0       0       0
  8266 ;;      Temps:          0       0       0       0       0       0       0       0       0
  8267 ;;      Totals:         8       0       0       0       0       0       0       0       0
  8268 ;;Total ram usage:        8 bytes
  8269 ;; Hardware stack levels used:    1
  8270 ;; Hardware stack levels required when called:    2
  8271 ;; This function calls:
  8272 ;;		Nothing
  8273 ;; This function is called by:
  8274 ;;		_efgtoa
  8275 ;; This function uses a non-reentrant model
  8276 ;;
  8277                           
  8278                           	psect	text21
  8279  003E7A                     __ptext21:
  8280                           	callstack 0
  8281  003E7A                     ___awdiv:
  8282                           	callstack 24
  8283  003E7A  0E00               	movlw	0
  8284  003E7C  6E0F               	movwf	___awdiv@sign^0,c
  8285  003E7E  BE0D               	btfsc	(___awdiv@divisor+1)^0,7,c
  8286  003E80  EF46  F01F         	goto	u4000
  8287  003E84  EF44  F01F         	goto	u4001
  8288  003E88                     u4001:
  8289  003E88  EF4C  F01F         	goto	l3876
  8290  003E8C                     u4000:
  8291  003E8C  6C0C               	negf	___awdiv@divisor^0,c
  8292  003E8E  1E0D               	comf	(___awdiv@divisor+1)^0,f,c
  8293  003E90  B0D8               	btfsc	status,0,c
  8294  003E92  2A0D               	incf	(___awdiv@divisor+1)^0,f,c
  8295  003E94  0E01               	movlw	1
  8296  003E96  6E0F               	movwf	___awdiv@sign^0,c
  8297  003E98                     l3876:
  8298  003E98  BE0B               	btfsc	(___awdiv@dividend+1)^0,7,c
  8299  003E9A  EF53  F01F         	goto	u4010
  8300  003E9E  EF51  F01F         	goto	u4011
  8301  003EA2                     u4011:
  8302  003EA2  EF59  F01F         	goto	l3882
  8303  003EA6                     u4010:
  8304  003EA6  6C0A               	negf	___awdiv@dividend^0,c
  8305  003EA8  1E0B               	comf	(___awdiv@dividend+1)^0,f,c
  8306  003EAA  B0D8               	btfsc	status,0,c
  8307  003EAC  2A0B               	incf	(___awdiv@dividend+1)^0,f,c
  8308  003EAE  0E01               	movlw	1
  8309  003EB0  1A0F               	xorwf	___awdiv@sign^0,f,c
  8310  003EB2                     l3882:
  8311  003EB2  0E00               	movlw	0
  8312  003EB4  6E11               	movwf	(___awdiv@quotient+1)^0,c
  8313  003EB6  0E00               	movlw	0
  8314  003EB8  6E10               	movwf	___awdiv@quotient^0,c
  8315  003EBA  500C               	movf	___awdiv@divisor^0,w,c
  8316  003EBC  100D               	iorwf	(___awdiv@divisor+1)^0,w,c
  8317  003EBE  B4D8               	btfsc	status,2,c
  8318  003EC0  EF64  F01F         	goto	u4021
  8319  003EC4  EF66  F01F         	goto	u4020
  8320  003EC8                     u4021:
  8321  003EC8  EF8E  F01F         	goto	l3904
  8322  003ECC                     u4020:
  8323  003ECC  0E01               	movlw	1
  8324  003ECE  6E0E               	movwf	___awdiv@counter^0,c
  8325  003ED0  EF6E  F01F         	goto	l3890
  8326  003ED4                     l3888:
  8327  003ED4  90D8               	bcf	status,0,c
  8328  003ED6  360C               	rlcf	___awdiv@divisor^0,f,c
  8329  003ED8  360D               	rlcf	(___awdiv@divisor+1)^0,f,c
  8330  003EDA  2A0E               	incf	___awdiv@counter^0,f,c
  8331  003EDC                     l3890:
  8332  003EDC  AE0D               	btfss	(___awdiv@divisor+1)^0,7,c
  8333  003EDE  EF73  F01F         	goto	u4031
  8334  003EE2  EF75  F01F         	goto	u4030
  8335  003EE6                     u4031:
  8336  003EE6  EF6A  F01F         	goto	l3888
  8337  003EEA                     u4030:
  8338  003EEA                     l3892:
  8339  003EEA  90D8               	bcf	status,0,c
  8340  003EEC  3610               	rlcf	___awdiv@quotient^0,f,c
  8341  003EEE  3611               	rlcf	(___awdiv@quotient+1)^0,f,c
  8342  003EF0  500C               	movf	___awdiv@divisor^0,w,c
  8343  003EF2  5C0A               	subwf	___awdiv@dividend^0,w,c
  8344  003EF4  500D               	movf	(___awdiv@divisor+1)^0,w,c
  8345  003EF6  580B               	subwfb	(___awdiv@dividend+1)^0,w,c
  8346  003EF8  A0D8               	btfss	status,0,c
  8347  003EFA  EF81  F01F         	goto	u4041
  8348  003EFE  EF83  F01F         	goto	u4040
  8349  003F02                     u4041:
  8350  003F02  EF88  F01F         	goto	l3900
  8351  003F06                     u4040:
  8352  003F06  500C               	movf	___awdiv@divisor^0,w,c
  8353  003F08  5E0A               	subwf	___awdiv@dividend^0,f,c
  8354  003F0A  500D               	movf	(___awdiv@divisor+1)^0,w,c
  8355  003F0C  5A0B               	subwfb	(___awdiv@dividend+1)^0,f,c
  8356  003F0E  8010               	bsf	___awdiv@quotient^0,0,c
  8357  003F10                     l3900:
  8358  003F10  90D8               	bcf	status,0,c
  8359  003F12  320D               	rrcf	(___awdiv@divisor+1)^0,f,c
  8360  003F14  320C               	rrcf	___awdiv@divisor^0,f,c
  8361  003F16  2E0E               	decfsz	___awdiv@counter^0,f,c
  8362  003F18  EF75  F01F         	goto	l3892
  8363  003F1C                     l3904:
  8364  003F1C  500F               	movf	___awdiv@sign^0,w,c
  8365  003F1E  B4D8               	btfsc	status,2,c
  8366  003F20  EF94  F01F         	goto	u4051
  8367  003F24  EF96  F01F         	goto	u4050
  8368  003F28                     u4051:
  8369  003F28  EF9A  F01F         	goto	l3908
  8370  003F2C                     u4050:
  8371  003F2C  6C10               	negf	___awdiv@quotient^0,c
  8372  003F2E  1E11               	comf	(___awdiv@quotient+1)^0,f,c
  8373  003F30  B0D8               	btfsc	status,0,c
  8374  003F32  2A11               	incf	(___awdiv@quotient+1)^0,f,c
  8375  003F34                     l3908:
  8376  003F34  C010  F00A         	movff	___awdiv@quotient,?___awdiv
  8377  003F38  C011  F00B         	movff	___awdiv@quotient+1,?___awdiv+1
  8378  003F3C  0012               	return		;funcret
  8379  003F3E                     __end_of___awdiv:
  8380                           	callstack 0
  8381                           
  8382 ;; *************** function _dtoa *****************
  8383 ;; Defined at:
  8384 ;;		line 274 in file "E:\MPLAB\xc8\pic\sources\c99\common\doprnt.c"
  8385 ;; Parameters:    Size  Location     Type
  8386 ;;  fp              2   36[COMRAM] PTR struct _IO_FILE
  8387 ;;		 -> sprintf@f(6), 
  8388 ;;  d               8   38[COMRAM] long long 
  8389 ;; Auto vars:     Size  Location     Type
  8390 ;;  n               8   62[COMRAM] long long 
  8391 ;;  i               2   70[COMRAM] int 
  8392 ;;  s               2   60[COMRAM] int 
  8393 ;;  w               2   58[COMRAM] int 
  8394 ;;  p               2   56[COMRAM] int 
  8395 ;; Return value:  Size  Location     Type
  8396 ;;                  2   36[COMRAM] int 
  8397 ;; Registers used:
  8398 ;;		wreg, fsr1l, fsr1h, fsr2l, fsr2h, status,2, status,0, cstack
  8399 ;; Tracked objects:
  8400 ;;		On entry : 0/0
  8401 ;;		On exit  : 0/0
  8402 ;;		Unchanged: 0/0
  8403 ;; Data sizes:     COMRAM   BANK0   BANK1   BANK2   BANK3   BANK4   BANK5   BANK6   BANK7
  8404 ;;      Params:        10       0       0       0       0       0       0       0       0
  8405 ;;      Locals:        18       0       0       0       0       0       0       0       0
  8406 ;;      Temps:          8       0       0       0       0       0       0       0       0
  8407 ;;      Totals:        36       0       0       0       0       0       0       0       0
  8408 ;;Total ram usage:       36 bytes
  8409 ;; Hardware stack levels used:    1
  8410 ;; Hardware stack levels required when called:    6
  8411 ;; This function calls:
  8412 ;;		___aodiv
  8413 ;;		___aomod
  8414 ;;		_abs
  8415 ;;		_pad
  8416 ;; This function is called by:
  8417 ;;		_vfpfcnvrt
  8418 ;; This function uses a non-reentrant model
  8419 ;;
  8420                           
  8421                           	psect	text22
  8422  002DC0                     __ptext22:
  8423                           	callstack 0
  8424  002DC0                     _dtoa:
  8425                           	callstack 21
  8426  002DC0                     
  8427                           ;E:\MPLAB\xc8\pic\sources\c99\common\doprnt.c: 274: static int dtoa(FILE *fp, long long 
      +                          d);E:\MPLAB\xc8\pic\sources\c99\common\doprnt.c: 275: {;E:\MPLAB\xc8\pic\sources\c99\com
      +                          mon\doprnt.c: 276:     int i, p, s, w;;E:\MPLAB\xc8\pic\sources\c99\common\doprnt.c: 277
      +                          :     long long n;;E:\MPLAB\xc8\pic\sources\c99\common\doprnt.c: 280:     n = d;
  8428  002DC0  C027  F03F         	movff	dtoa@d,dtoa@n
  8429  002DC4  C028  F040         	movff	dtoa@d+1,dtoa@n+1
  8430  002DC8  C029  F041         	movff	dtoa@d+2,dtoa@n+2
  8431  002DCC  C02A  F042         	movff	dtoa@d+3,dtoa@n+3
  8432  002DD0  C02B  F043         	movff	dtoa@d+4,dtoa@n+4
  8433  002DD4  C02C  F044         	movff	dtoa@d+5,dtoa@n+5
  8434  002DD8  C02D  F045         	movff	dtoa@d+6,dtoa@n+6
  8435  002DDC  C02E  F046         	movff	dtoa@d+7,dtoa@n+7
  8436  002DE0                     
  8437                           ;E:\MPLAB\xc8\pic\sources\c99\common\doprnt.c: 281:     s = n < 0 ? 1 : 0;
  8438  002DE0  BE46               	btfsc	(dtoa@n+7)^0,7,c
  8439  002DE2  EFF5  F016         	goto	u4591
  8440  002DE6  EFF8  F016         	goto	u4590
  8441  002DEA                     u4591:
  8442  002DEA  0E01               	movlw	1
  8443  002DEC  EFF9  F016         	goto	u4600
  8444  002DF0                     u4590:
  8445  002DF0  0E00               	movlw	0
  8446  002DF2                     u4600:
  8447  002DF2  6E3D               	movwf	dtoa@s^0,c
  8448  002DF4  6A3E               	clrf	(dtoa@s+1)^0,c
  8449                           
  8450                           ;E:\MPLAB\xc8\pic\sources\c99\common\doprnt.c: 282:     if (s) {
  8451  002DF6  503D               	movf	dtoa@s^0,w,c
  8452  002DF8  103E               	iorwf	(dtoa@s+1)^0,w,c
  8453  002DFA  B4D8               	btfsc	status,2,c
  8454  002DFC  EF02  F017         	goto	u4611
  8455  002E00  EF04  F017         	goto	u4610
  8456  002E04                     u4611:
  8457  002E04  EF14  F017         	goto	l4150
  8458  002E08                     u4610:
  8459  002E08                     
  8460                           ;E:\MPLAB\xc8\pic\sources\c99\common\doprnt.c: 283:         n = -n;
  8461  002E08  1E46               	comf	(dtoa@n+7)^0,f,c
  8462  002E0A  1E45               	comf	(dtoa@n+6)^0,f,c
  8463  002E0C  1E44               	comf	(dtoa@n+5)^0,f,c
  8464  002E0E  1E43               	comf	(dtoa@n+4)^0,f,c
  8465  002E10  1E42               	comf	(dtoa@n+3)^0,f,c
  8466  002E12  1E41               	comf	(dtoa@n+2)^0,f,c
  8467  002E14  1E40               	comf	(dtoa@n+1)^0,f,c
  8468  002E16  6C3F               	negf	dtoa@n^0,c
  8469  002E18  0E00               	movlw	0
  8470  002E1A  2240               	addwfc	(dtoa@n+1)^0,f,c
  8471  002E1C  2241               	addwfc	(dtoa@n+2)^0,f,c
  8472  002E1E  2242               	addwfc	(dtoa@n+3)^0,f,c
  8473  002E20  2243               	addwfc	(dtoa@n+4)^0,f,c
  8474  002E22  2244               	addwfc	(dtoa@n+5)^0,f,c
  8475  002E24  2245               	addwfc	(dtoa@n+6)^0,f,c
  8476  002E26  2246               	addwfc	(dtoa@n+7)^0,f,c
  8477  002E28                     l4150:
  8478                           
  8479                           ;E:\MPLAB\xc8\pic\sources\c99\common\doprnt.c: 287:     if (!(prec < 0)) {
  8480  002E28  BE51               	btfsc	(_prec+1)^0,7,c
  8481  002E2A  EF19  F017         	goto	u4621
  8482  002E2E  EF1B  F017         	goto	u4620
  8483  002E32                     u4621:
  8484  002E32  EF1C  F017         	goto	l4154
  8485  002E36                     u4620:
  8486  002E36                     
  8487                           ;E:\MPLAB\xc8\pic\sources\c99\common\doprnt.c: 288:         flags &= ~(1 << 1);
  8488  002E36  9252               	bcf	_flags^0,1,c
  8489  002E38                     l4154:
  8490                           
  8491                           ;E:\MPLAB\xc8\pic\sources\c99\common\doprnt.c: 290:     p = (0 < prec) ? prec : 1;
  8492  002E38  BE51               	btfsc	(_prec+1)^0,7,c
  8493  002E3A  EF29  F017         	goto	u4630
  8494  002E3E  5051               	movf	(_prec+1)^0,w,c
  8495  002E40  E106               	bnz	u4631
  8496  002E42  0450               	decf	_prec^0,w,c
  8497  002E44  B0D8               	btfsc	status,0,c
  8498  002E46  EF27  F017         	goto	u4631
  8499  002E4A  EF29  F017         	goto	u4630
  8500  002E4E                     u4631:
  8501  002E4E  EF2F  F017         	goto	l953
  8502  002E52                     u4630:
  8503  002E52  0E00               	movlw	0
  8504  002E54  6E3A               	movwf	(dtoa@p+1)^0,c
  8505  002E56  0E01               	movlw	1
  8506  002E58  6E39               	movwf	dtoa@p^0,c
  8507  002E5A  EF33  F017         	goto	l955
  8508  002E5E                     l953:
  8509  002E5E  C050  F039         	movff	_prec,dtoa@p
  8510  002E62  C051  F03A         	movff	_prec+1,dtoa@p+1
  8511  002E66                     l955:
  8512                           
  8513                           ;E:\MPLAB\xc8\pic\sources\c99\common\doprnt.c: 291:     w = width;
  8514  002E66  C04E  F03B         	movff	_width,dtoa@w
  8515  002E6A  C04F  F03C         	movff	_width+1,dtoa@w+1
  8516  002E6E                     
  8517                           ;E:\MPLAB\xc8\pic\sources\c99\common\doprnt.c: 292:     if (s || (flags & (1 << 2))) {
  8518  002E6E  503D               	movf	dtoa@s^0,w,c
  8519  002E70  103E               	iorwf	(dtoa@s+1)^0,w,c
  8520  002E72  A4D8               	btfss	status,2,c
  8521  002E74  EF3E  F017         	goto	u4641
  8522  002E78  EF40  F017         	goto	u4640
  8523  002E7C                     u4641:
  8524  002E7C  EF47  F017         	goto	l4162
  8525  002E80                     u4640:
  8526  002E80  A452               	btfss	_flags^0,2,c
  8527  002E82  EF45  F017         	goto	u4651
  8528  002E86  EF47  F017         	goto	u4650
  8529  002E8A                     u4651:
  8530  002E8A  EF4A  F017         	goto	l4164
  8531  002E8E                     u4650:
  8532  002E8E                     l4162:
  8533                           
  8534                           ;E:\MPLAB\xc8\pic\sources\c99\common\doprnt.c: 293:         --w;
  8535  002E8E  063B               	decf	dtoa@w^0,f,c
  8536  002E90  A0D8               	btfss	status,0,c
  8537  002E92  063C               	decf	(dtoa@w+1)^0,f,c
  8538  002E94                     l4164:
  8539                           
  8540                           ;E:\MPLAB\xc8\pic\sources\c99\common\doprnt.c: 297:     i = sizeof(dbuf) - 1;
  8541  002E94  0E00               	movlw	0
  8542  002E96  6E48               	movwf	(dtoa@i+1)^0,c
  8543  002E98  0E4F               	movlw	79
  8544  002E9A  6E47               	movwf	dtoa@i^0,c
  8545  002E9C                     
  8546                           ;E:\MPLAB\xc8\pic\sources\c99\common\doprnt.c: 298:     dbuf[i] = '\0';
  8547  002E9C  0E00               	movlw	0
  8548  002E9E  0101               	movlb	1	; () banked
  8549  002EA0  6FC1               	movwf	(_dbuf+79)& (0+255),b
  8550                           
  8551                           ;E:\MPLAB\xc8\pic\sources\c99\common\doprnt.c: 299:     while (!(i < 1) && (n || (0 < p)
      +                           || ((0 < w) && (flags & (1 << 1))))) {
  8552  002EA2  EFCF  F017         	goto	l4178
  8553  002EA6                     l4168:
  8554                           
  8555                           ;E:\MPLAB\xc8\pic\sources\c99\common\doprnt.c: 300:         --i;
  8556  002EA6  0647               	decf	dtoa@i^0,f,c
  8557  002EA8  A0D8               	btfss	status,0,c
  8558  002EAA  0648               	decf	(dtoa@i+1)^0,f,c
  8559  002EAC                     
  8560                           ;E:\MPLAB\xc8\pic\sources\c99\common\doprnt.c: 301:         dbuf[i] = '0' + abs(n % 10);
  8561  002EAC  0E72               	movlw	low _dbuf
  8562  002EAE  2447               	addwf	dtoa@i^0,w,c
  8563  002EB0  6ED9               	movwf	fsr2l,c
  8564  002EB2  0E01               	movlw	high _dbuf
  8565  002EB4  2048               	addwfc	(dtoa@i+1)^0,w,c
  8566  002EB6  6EDA               	movwf	fsr2h,c
  8567  002EB8  C03F  F00A         	movff	dtoa@n,___aomod@dividend
  8568  002EBC  C040  F00B         	movff	dtoa@n+1,___aomod@dividend+1
  8569  002EC0  C041  F00C         	movff	dtoa@n+2,___aomod@dividend+2
  8570  002EC4  C042  F00D         	movff	dtoa@n+3,___aomod@dividend+3
  8571  002EC8  C043  F00E         	movff	dtoa@n+4,___aomod@dividend+4
  8572  002ECC  C044  F00F         	movff	dtoa@n+5,___aomod@dividend+5
  8573  002ED0  C045  F010         	movff	dtoa@n+6,___aomod@dividend+6
  8574  002ED4  C046  F011         	movff	dtoa@n+7,___aomod@dividend+7
  8575  002ED8  0E0A               	movlw	10
  8576  002EDA  6E12               	movwf	___aomod@divisor^0,c
  8577  002EDC  0E00               	movlw	0
  8578  002EDE  6E13               	movwf	(___aomod@divisor+1)^0,c
  8579  002EE0  0E00               	movlw	0
  8580  002EE2  6E14               	movwf	(___aomod@divisor+2)^0,c
  8581  002EE4  0E00               	movlw	0
  8582  002EE6  6E15               	movwf	(___aomod@divisor+3)^0,c
  8583  002EE8  0E00               	movlw	0
  8584  002EEA  6E16               	movwf	(___aomod@divisor+4)^0,c
  8585  002EEC  0E00               	movlw	0
  8586  002EEE  6E17               	movwf	(___aomod@divisor+5)^0,c
  8587  002EF0  0E00               	movlw	0
  8588  002EF2  6E18               	movwf	(___aomod@divisor+6)^0,c
  8589  002EF4  0E00               	movlw	0
  8590  002EF6  6E19               	movwf	(___aomod@divisor+7)^0,c
  8591  002EF8  ECC0  F01B         	call	___aomod	;wreg free
  8592  002EFC  C00A  F02F         	movff	?___aomod,??_dtoa
  8593  002F00  C00B  F030         	movff	?___aomod+1,??_dtoa+1
  8594  002F04  C00C  F031         	movff	?___aomod+2,??_dtoa+2
  8595  002F08  C00D  F032         	movff	?___aomod+3,??_dtoa+3
  8596  002F0C  C00E  F033         	movff	?___aomod+4,??_dtoa+4
  8597  002F10  C00F  F034         	movff	?___aomod+5,??_dtoa+5
  8598  002F14  C010  F035         	movff	?___aomod+6,??_dtoa+6
  8599  002F18  C011  F036         	movff	?___aomod+7,??_dtoa+7
  8600  002F1C  C02F  F01C         	movff	??_dtoa,abs@a
  8601  002F20  C031  F01D         	movff	??_dtoa+2,abs@a+1
  8602  002F24  EC5E  F022         	call	_abs	;wreg free
  8603  002F28  501C               	movf	?_abs^0,w,c
  8604  002F2A  0F30               	addlw	48
  8605  002F2C  6EDF               	movwf	indf2,c
  8606  002F2E                     
  8607                           ;E:\MPLAB\xc8\pic\sources\c99\common\doprnt.c: 302:         --p;
  8608  002F2E  0639               	decf	dtoa@p^0,f,c
  8609  002F30  A0D8               	btfss	status,0,c
  8610  002F32  063A               	decf	(dtoa@p+1)^0,f,c
  8611  002F34                     
  8612                           ;E:\MPLAB\xc8\pic\sources\c99\common\doprnt.c: 303:         --w;
  8613  002F34  063B               	decf	dtoa@w^0,f,c
  8614  002F36  A0D8               	btfss	status,0,c
  8615  002F38  063C               	decf	(dtoa@w+1)^0,f,c
  8616  002F3A                     
  8617                           ;E:\MPLAB\xc8\pic\sources\c99\common\doprnt.c: 304:         n = n / 10;
  8618  002F3A  C03F  F00A         	movff	dtoa@n,___aodiv@dividend
  8619  002F3E  C040  F00B         	movff	dtoa@n+1,___aodiv@dividend+1
  8620  002F42  C041  F00C         	movff	dtoa@n+2,___aodiv@dividend+2
  8621  002F46  C042  F00D         	movff	dtoa@n+3,___aodiv@dividend+3
  8622  002F4A  C043  F00E         	movff	dtoa@n+4,___aodiv@dividend+4
  8623  002F4E  C044  F00F         	movff	dtoa@n+5,___aodiv@dividend+5
  8624  002F52  C045  F010         	movff	dtoa@n+6,___aodiv@dividend+6
  8625  002F56  C046  F011         	movff	dtoa@n+7,___aodiv@dividend+7
  8626  002F5A  0E0A               	movlw	10
  8627  002F5C  6E12               	movwf	___aodiv@divisor^0,c
  8628  002F5E  0E00               	movlw	0
  8629  002F60  6E13               	movwf	(___aodiv@divisor+1)^0,c
  8630  002F62  0E00               	movlw	0
  8631  002F64  6E14               	movwf	(___aodiv@divisor+2)^0,c
  8632  002F66  0E00               	movlw	0
  8633  002F68  6E15               	movwf	(___aodiv@divisor+3)^0,c
  8634  002F6A  0E00               	movlw	0
  8635  002F6C  6E16               	movwf	(___aodiv@divisor+4)^0,c
  8636  002F6E  0E00               	movlw	0
  8637  002F70  6E17               	movwf	(___aodiv@divisor+5)^0,c
  8638  002F72  0E00               	movlw	0
  8639  002F74  6E18               	movwf	(___aodiv@divisor+6)^0,c
  8640  002F76  0E00               	movlw	0
  8641  002F78  6E19               	movwf	(___aodiv@divisor+7)^0,c
  8642  002F7A  ECFC  F01A         	call	___aodiv	;wreg free
  8643  002F7E  C00A  F03F         	movff	?___aodiv,dtoa@n
  8644  002F82  C00B  F040         	movff	?___aodiv+1,dtoa@n+1
  8645  002F86  C00C  F041         	movff	?___aodiv+2,dtoa@n+2
  8646  002F8A  C00D  F042         	movff	?___aodiv+3,dtoa@n+3
  8647  002F8E  C00E  F043         	movff	?___aodiv+4,dtoa@n+4
  8648  002F92  C00F  F044         	movff	?___aodiv+5,dtoa@n+5
  8649  002F96  C010  F045         	movff	?___aodiv+6,dtoa@n+6
  8650  002F9A  C011  F046         	movff	?___aodiv+7,dtoa@n+7
  8651  002F9E                     l4178:
  8652                           
  8653                           ;E:\MPLAB\xc8\pic\sources\c99\common\doprnt.c: 299:     while (!(i < 1) && (n || (0 < p)
      +                           || ((0 < w) && (flags & (1 << 1))))) {
  8654  002F9E  BE48               	btfsc	(dtoa@i+1)^0,7,c
  8655  002FA0  EFDA  F017         	goto	u4661
  8656  002FA4  5048               	movf	(dtoa@i+1)^0,w,c
  8657  002FA6  E108               	bnz	u4660
  8658  002FA8  0447               	decf	dtoa@i^0,w,c
  8659  002FAA  A0D8               	btfss	status,0,c
  8660  002FAC  EFDA  F017         	goto	u4661
  8661  002FB0  EFDC  F017         	goto	u4660
  8662  002FB4                     u4661:
  8663  002FB4  EF0C  F018         	goto	l4188
  8664  002FB8                     u4660:
  8665  002FB8  503F               	movf	dtoa@n^0,w,c
  8666  002FBA  1040               	iorwf	(dtoa@n+1)^0,w,c
  8667  002FBC  1041               	iorwf	(dtoa@n+2)^0,w,c
  8668  002FBE  1042               	iorwf	(dtoa@n+3)^0,w,c
  8669  002FC0  1043               	iorwf	(dtoa@n+4)^0,w,c
  8670  002FC2  1044               	iorwf	(dtoa@n+5)^0,w,c
  8671  002FC4  1045               	iorwf	(dtoa@n+6)^0,w,c
  8672  002FC6  1046               	iorwf	(dtoa@n+7)^0,w,c
  8673  002FC8  A4D8               	btfss	status,2,c
  8674  002FCA  EFE9  F017         	goto	u4671
  8675  002FCE  EFEB  F017         	goto	u4670
  8676  002FD2                     u4671:
  8677  002FD2  EF53  F017         	goto	l4168
  8678  002FD6                     u4670:
  8679  002FD6  BE3A               	btfsc	(dtoa@p+1)^0,7,c
  8680  002FD8  EFF8  F017         	goto	u4680
  8681  002FDC  503A               	movf	(dtoa@p+1)^0,w,c
  8682  002FDE  E106               	bnz	u4681
  8683  002FE0  0439               	decf	dtoa@p^0,w,c
  8684  002FE2  B0D8               	btfsc	status,0,c
  8685  002FE4  EFF6  F017         	goto	u4681
  8686  002FE8  EFF8  F017         	goto	u4680
  8687  002FEC                     u4681:
  8688  002FEC  EF53  F017         	goto	l4168
  8689  002FF0                     u4680:
  8690  002FF0  BE3C               	btfsc	(dtoa@w+1)^0,7,c
  8691  002FF2  EF03  F018         	goto	u4691
  8692  002FF6  503C               	movf	(dtoa@w+1)^0,w,c
  8693  002FF8  E108               	bnz	u4690
  8694  002FFA  043B               	decf	dtoa@w^0,w,c
  8695  002FFC  A0D8               	btfss	status,0,c
  8696  002FFE  EF03  F018         	goto	u4691
  8697  003002  EF05  F018         	goto	u4690
  8698  003006                     u4691:
  8699  003006  EF0C  F018         	goto	l4188
  8700  00300A                     u4690:
  8701  00300A  B252               	btfsc	_flags^0,1,c
  8702  00300C  EF0A  F018         	goto	u4701
  8703  003010  EF0C  F018         	goto	u4700
  8704  003014                     u4701:
  8705  003014  EF53  F017         	goto	l4168
  8706  003018                     u4700:
  8707  003018                     l4188:
  8708                           
  8709                           ;E:\MPLAB\xc8\pic\sources\c99\common\doprnt.c: 308:     if (s || (flags & (1 << 2))) {
  8710  003018  503D               	movf	dtoa@s^0,w,c
  8711  00301A  103E               	iorwf	(dtoa@s+1)^0,w,c
  8712  00301C  A4D8               	btfss	status,2,c
  8713  00301E  EF13  F018         	goto	u4711
  8714  003022  EF15  F018         	goto	u4710
  8715  003026                     u4711:
  8716  003026  EF1C  F018         	goto	l4192
  8717  00302A                     u4710:
  8718  00302A  A452               	btfss	_flags^0,2,c
  8719  00302C  EF1A  F018         	goto	u4721
  8720  003030  EF1C  F018         	goto	u4720
  8721  003034                     u4721:
  8722  003034  EF3A  F018         	goto	l4202
  8723  003038                     u4720:
  8724  003038                     l4192:
  8725                           
  8726                           ;E:\MPLAB\xc8\pic\sources\c99\common\doprnt.c: 309:         --i;
  8727  003038  0647               	decf	dtoa@i^0,f,c
  8728  00303A  A0D8               	btfss	status,0,c
  8729  00303C  0648               	decf	(dtoa@i+1)^0,f,c
  8730  00303E                     
  8731                           ;E:\MPLAB\xc8\pic\sources\c99\common\doprnt.c: 310:         dbuf[i] = s ? '-' : '+';
  8732  00303E  503D               	movf	dtoa@s^0,w,c
  8733  003040  103E               	iorwf	(dtoa@s+1)^0,w,c
  8734  003042  A4D8               	btfss	status,2,c
  8735  003044  EF26  F018         	goto	u4731
  8736  003048  EF28  F018         	goto	u4730
  8737  00304C                     u4731:
  8738  00304C  EF2E  F018         	goto	l4198
  8739  003050                     u4730:
  8740  003050  0E00               	movlw	0
  8741  003052  6E38               	movwf	(_dtoa$1325+1)^0,c
  8742  003054  0E2B               	movlw	43
  8743  003056  6E37               	movwf	_dtoa$1325^0,c
  8744  003058  EF32  F018         	goto	l4200
  8745  00305C                     l4198:
  8746  00305C  0E00               	movlw	0
  8747  00305E  6E38               	movwf	(_dtoa$1325+1)^0,c
  8748  003060  0E2D               	movlw	45
  8749  003062  6E37               	movwf	_dtoa$1325^0,c
  8750  003064                     l4200:
  8751  003064  0E72               	movlw	low _dbuf
  8752  003066  2447               	addwf	dtoa@i^0,w,c
  8753  003068  6ED9               	movwf	fsr2l,c
  8754  00306A  0E01               	movlw	high _dbuf
  8755  00306C  2048               	addwfc	(dtoa@i+1)^0,w,c
  8756  00306E  6EDA               	movwf	fsr2h,c
  8757  003070  C037  FFDF         	movff	_dtoa$1325,indf2
  8758  003074                     l4202:
  8759                           
  8760                           ;E:\MPLAB\xc8\pic\sources\c99\common\doprnt.c: 314:     return pad(fp, &dbuf[i], w);
  8761  003074  C025  F01A         	movff	dtoa@fp,pad@fp
  8762  003078  C026  F01B         	movff	dtoa@fp+1,pad@fp+1
  8763  00307C  0E72               	movlw	low _dbuf
  8764  00307E  2447               	addwf	dtoa@i^0,w,c
  8765  003080  6E1C               	movwf	pad@buf^0,c
  8766  003082  0E01               	movlw	high _dbuf
  8767  003084  2048               	addwfc	(dtoa@i+1)^0,w,c
  8768  003086  6E1D               	movwf	(pad@buf+1)^0,c
  8769  003088  C03B  F01E         	movff	dtoa@w,pad@p
  8770  00308C  C03C  F01F         	movff	dtoa@w+1,pad@p+1
  8771  003090  EC9F  F01F         	call	_pad	;wreg free
  8772  003094  C01A  F025         	movff	?_pad,?_dtoa
  8773  003098  C01B  F026         	movff	?_pad+1,?_dtoa+1
  8774  00309C  0012               	return		;funcret
  8775  00309E                     __end_of_dtoa:
  8776                           	callstack 0
  8777                           
  8778 ;; *************** function _pad *****************
  8779 ;; Defined at:
  8780 ;;		line 72 in file "E:\MPLAB\xc8\pic\sources\c99\common\doprnt.c"
  8781 ;; Parameters:    Size  Location     Type
  8782 ;;  fp              2   25[COMRAM] PTR struct _IO_FILE
  8783 ;;		 -> sprintf@f(6), 
  8784 ;;  buf             2   27[COMRAM] PTR unsigned char 
  8785 ;;		 -> dbuf(80), 
  8786 ;;  p               2   29[COMRAM] int 
  8787 ;; Auto vars:     Size  Location     Type
  8788 ;;  w               2   34[COMRAM] int 
  8789 ;;  i               2   32[COMRAM] int 
  8790 ;; Return value:  Size  Location     Type
  8791 ;;                  2   25[COMRAM] int 
  8792 ;; Registers used:
  8793 ;;		wreg, fsr1l, fsr1h, fsr2l, fsr2h, status,2, status,0, cstack
  8794 ;; Tracked objects:
  8795 ;;		On entry : 0/0
  8796 ;;		On exit  : 0/0
  8797 ;;		Unchanged: 0/0
  8798 ;; Data sizes:     COMRAM   BANK0   BANK1   BANK2   BANK3   BANK4   BANK5   BANK6   BANK7
  8799 ;;      Params:         6       0       0       0       0       0       0       0       0
  8800 ;;      Locals:         4       0       0       0       0       0       0       0       0
  8801 ;;      Temps:          1       0       0       0       0       0       0       0       0
  8802 ;;      Totals:        11       0       0       0       0       0       0       0       0
  8803 ;;Total ram usage:       11 bytes
  8804 ;; Hardware stack levels used:    1
  8805 ;; Hardware stack levels required when called:    5
  8806 ;; This function calls:
  8807 ;;		_fputc
  8808 ;;		_fputs
  8809 ;;		_strlen
  8810 ;; This function is called by:
  8811 ;;		_dtoa
  8812 ;;		_efgtoa
  8813 ;; This function uses a non-reentrant model
  8814 ;;
  8815                           
  8816                           	psect	text23
  8817  003F3E                     __ptext23:
  8818                           	callstack 0
  8819  003F3E                     _pad:
  8820                           	callstack 21
  8821  003F3E                     
  8822                           ;E:\MPLAB\xc8\pic\sources\c99\common\doprnt.c: 72: static int pad(FILE *fp, char *buf, i
      +                          nt p);E:\MPLAB\xc8\pic\sources\c99\common\doprnt.c: 73: {;E:\MPLAB\xc8\pic\sources\c99\c
      +                          ommon\doprnt.c: 74:     int i, w;;E:\MPLAB\xc8\pic\sources\c99\common\doprnt.c: 77:     
      +                          if (flags & (1 << 0)) {
  8823  003F3E  A052               	btfss	_flags^0,0,c
  8824  003F40  EFA4  F01F         	goto	u4281
  8825  003F44  EFA6  F01F         	goto	u4280
  8826  003F48                     u4281:
  8827  003F48  EFB0  F01F         	goto	l4042
  8828  003F4C                     u4280:
  8829  003F4C                     
  8830                           ;E:\MPLAB\xc8\pic\sources\c99\common\doprnt.c: 78:         fputs((const char *)buf, fp);
  8831  003F4C  C01C  F013         	movff	pad@buf,fputs@s
  8832  003F50  C01D  F014         	movff	pad@buf+1,fputs@s+1
  8833  003F54  C01A  F015         	movff	pad@fp,fputs@fp
  8834  003F58  C01B  F016         	movff	pad@fp+1,fputs@fp+1
  8835  003F5C  EC3C  F022         	call	_fputs	;wreg free
  8836  003F60                     l4042:
  8837                           
  8838                           ;E:\MPLAB\xc8\pic\sources\c99\common\doprnt.c: 82:     w = (p < 0) ? 0 : p;
  8839  003F60  BE1F               	btfsc	(pad@p+1)^0,7,c
  8840  003F62  EFB5  F01F         	goto	u4291
  8841  003F66  EFB7  F01F         	goto	u4290
  8842  003F6A                     u4291:
  8843  003F6A  EFBD  F01F         	goto	l4046
  8844  003F6E                     u4290:
  8845  003F6E  C01E  F023         	movff	pad@p,pad@w
  8846  003F72  C01F  F024         	movff	pad@p+1,pad@w+1
  8847  003F76  EFC1  F01F         	goto	l942
  8848  003F7A                     l4046:
  8849  003F7A  0E00               	movlw	0
  8850  003F7C  6E24               	movwf	(pad@w+1)^0,c
  8851  003F7E  0E00               	movlw	0
  8852  003F80  6E23               	movwf	pad@w^0,c
  8853  003F82                     l942:
  8854                           
  8855                           ;E:\MPLAB\xc8\pic\sources\c99\common\doprnt.c: 83:     i = 0;
  8856  003F82  0E00               	movlw	0
  8857  003F84  6E22               	movwf	(pad@i+1)^0,c
  8858  003F86  0E00               	movlw	0
  8859  003F88  6E21               	movwf	pad@i^0,c
  8860                           
  8861                           ;E:\MPLAB\xc8\pic\sources\c99\common\doprnt.c: 84:     while (i < w) {
  8862  003F8A  EFD3  F01F         	goto	l4052
  8863  003F8E                     l4048:
  8864                           
  8865                           ;E:\MPLAB\xc8\pic\sources\c99\common\doprnt.c: 85:         fputc(' ', fp);
  8866  003F8E  0E00               	movlw	0
  8867  003F90  6E0B               	movwf	(fputc@c+1)^0,c
  8868  003F92  0E20               	movlw	32
  8869  003F94  6E0A               	movwf	fputc@c^0,c
  8870  003F96  C01A  F00C         	movff	pad@fp,fputc@fp
  8871  003F9A  C01B  F00D         	movff	pad@fp+1,fputc@fp+1
  8872  003F9E  ECD8  F01E         	call	_fputc	;wreg free
  8873  003FA2                     
  8874                           ;E:\MPLAB\xc8\pic\sources\c99\common\doprnt.c: 86:         ++i;
  8875  003FA2  4A21               	infsnz	pad@i^0,f,c
  8876  003FA4  2A22               	incf	(pad@i+1)^0,f,c
  8877  003FA6                     l4052:
  8878                           
  8879                           ;E:\MPLAB\xc8\pic\sources\c99\common\doprnt.c: 84:     while (i < w) {
  8880  003FA6  5023               	movf	pad@w^0,w,c
  8881  003FA8  5C21               	subwf	pad@i^0,w,c
  8882  003FAA  5022               	movf	(pad@i+1)^0,w,c
  8883  003FAC  0A80               	xorlw	128
  8884  003FAE  6E20               	movwf	??_pad^0,c
  8885  003FB0  5024               	movf	(pad@w+1)^0,w,c
  8886  003FB2  0A80               	xorlw	128
  8887  003FB4  5820               	subwfb	??_pad^0,w,c
  8888  003FB6  A0D8               	btfss	status,0,c
  8889  003FB8  EFE0  F01F         	goto	u4301
  8890  003FBC  EFE2  F01F         	goto	u4300
  8891  003FC0                     u4301:
  8892  003FC0  EFC7  F01F         	goto	l4048
  8893  003FC4                     u4300:
  8894  003FC4                     
  8895                           ;E:\MPLAB\xc8\pic\sources\c99\common\doprnt.c: 90:     if (!(flags & (1 << 0))) {
  8896  003FC4  B052               	btfsc	_flags^0,0,c
  8897  003FC6  EFE7  F01F         	goto	u4311
  8898  003FCA  EFE9  F01F         	goto	u4310
  8899  003FCE                     u4311:
  8900  003FCE  EFF3  F01F         	goto	l4056
  8901  003FD2                     u4310:
  8902  003FD2                     
  8903                           ;E:\MPLAB\xc8\pic\sources\c99\common\doprnt.c: 91:         fputs((const char *)buf, fp);
  8904  003FD2  C01C  F013         	movff	pad@buf,fputs@s
  8905  003FD6  C01D  F014         	movff	pad@buf+1,fputs@s+1
  8906  003FDA  C01A  F015         	movff	pad@fp,fputs@fp
  8907  003FDE  C01B  F016         	movff	pad@fp+1,fputs@fp+1
  8908  003FE2  EC3C  F022         	call	_fputs	;wreg free
  8909  003FE6                     l4056:
  8910                           
  8911                           ;E:\MPLAB\xc8\pic\sources\c99\common\doprnt.c: 94:     return strlen(buf) + w;
  8912  003FE6  C01C  F00A         	movff	pad@buf,strlen@s
  8913  003FEA  C01D  F00B         	movff	pad@buf+1,strlen@s+1
  8914  003FEE  EC30  F023         	call	_strlen	;wreg free
  8915  003FF2  5023               	movf	pad@w^0,w,c
  8916  003FF4  240A               	addwf	?_strlen^0,w,c
  8917  003FF6  6E1A               	movwf	?_pad^0,c
  8918  003FF8  5024               	movf	(pad@w+1)^0,w,c
  8919  003FFA  200B               	addwfc	(?_strlen+1)^0,w,c
  8920  003FFC  6E1B               	movwf	(?_pad+1)^0,c
  8921  003FFE  0012               	return		;funcret
  8922  004000                     __end_of_pad:
  8923                           	callstack 0
  8924                           
  8925 ;; *************** function _strlen *****************
  8926 ;; Defined at:
  8927 ;;		line 5 in file "E:\MPLAB\xc8\pic\sources\c99\common\strlen.c"
  8928 ;; Parameters:    Size  Location     Type
  8929 ;;  s               2    9[COMRAM] PTR const unsigned char 
  8930 ;;		 -> dbuf(80), main@minuteWatts(10), main@currentWatts(10), 
  8931 ;; Auto vars:     Size  Location     Type
  8932 ;;  a               2   11[COMRAM] PTR const unsigned char 
  8933 ;;		 -> dbuf(80), main@minuteWatts(10), main@currentWatts(10), 
  8934 ;; Return value:  Size  Location     Type
  8935 ;;                  2    9[COMRAM] unsigned int 
  8936 ;; Registers used:
  8937 ;;		wreg, fsr2l, fsr2h, status,2, status,0
  8938 ;; Tracked objects:
  8939 ;;		On entry : 0/0
  8940 ;;		On exit  : 0/0
  8941 ;;		Unchanged: 0/0
  8942 ;; Data sizes:     COMRAM   BANK0   BANK1   BANK2   BANK3   BANK4   BANK5   BANK6   BANK7
  8943 ;;      Params:         2       0       0       0       0       0       0       0       0
  8944 ;;      Locals:         2       0       0       0       0       0       0       0       0
  8945 ;;      Temps:          0       0       0       0       0       0       0       0       0
  8946 ;;      Totals:         4       0       0       0       0       0       0       0       0
  8947 ;;Total ram usage:        4 bytes
  8948 ;; Hardware stack levels used:    1
  8949 ;; Hardware stack levels required when called:    2
  8950 ;; This function calls:
  8951 ;;		Nothing
  8952 ;; This function is called by:
  8953 ;;		_pad
  8954 ;;		_strcat
  8955 ;; This function uses a non-reentrant model
  8956 ;;
  8957                           
  8958                           	psect	text24
  8959  004660                     __ptext24:
  8960                           	callstack 0
  8961  004660                     _strlen:
  8962                           	callstack 27
  8963  004660  C00A  F00C         	movff	strlen@s,strlen@a
  8964  004664  C00B  F00D         	movff	strlen@s+1,strlen@a+1
  8965  004668  EF38  F023         	goto	l3498
  8966  00466C                     l3496:
  8967  00466C  4A0A               	infsnz	strlen@s^0,f,c
  8968  00466E  2A0B               	incf	(strlen@s+1)^0,f,c
  8969  004670                     l3498:
  8970  004670  C00A  FFD9         	movff	strlen@s,fsr2l
  8971  004674  C00B  FFDA         	movff	strlen@s+1,fsr2h
  8972  004678  50DF               	movf	indf2,w,c
  8973  00467A  A4D8               	btfss	status,2,c
  8974  00467C  EF42  F023         	goto	u3421
  8975  004680  EF44  F023         	goto	u3420
  8976  004684                     u3421:
  8977  004684  EF36  F023         	goto	l3496
  8978  004688                     u3420:
  8979  004688  500C               	movf	strlen@a^0,w,c
  8980  00468A  5C0A               	subwf	strlen@s^0,w,c
  8981  00468C  6E0A               	movwf	?_strlen^0,c
  8982  00468E  500D               	movf	(strlen@a+1)^0,w,c
  8983  004690  580B               	subwfb	(strlen@s+1)^0,w,c
  8984  004692  6E0B               	movwf	(?_strlen+1)^0,c
  8985  004694  0012               	return		;funcret
  8986  004696                     __end_of_strlen:
  8987                           	callstack 0
  8988                           
  8989 ;; *************** function _fputs *****************
  8990 ;; Defined at:
  8991 ;;		line 8 in file "E:\MPLAB\xc8\pic\sources\c99\common\nf_fputs.c"
  8992 ;; Parameters:    Size  Location     Type
  8993 ;;  s               2   18[COMRAM] PTR const unsigned char 
  8994 ;;		 -> dbuf(80), 
  8995 ;;  fp              2   20[COMRAM] PTR struct _IO_FILE
  8996 ;;		 -> sprintf@f(6), 
  8997 ;; Auto vars:     Size  Location     Type
  8998 ;;  i               2   23[COMRAM] int 
  8999 ;;  c               1   22[COMRAM] unsigned char 
  9000 ;; Return value:  Size  Location     Type
  9001 ;;                  2   18[COMRAM] int 
  9002 ;; Registers used:
  9003 ;;		wreg, fsr1l, fsr1h, fsr2l, fsr2h, status,2, status,0, cstack
  9004 ;; Tracked objects:
  9005 ;;		On entry : 0/0
  9006 ;;		On exit  : 0/0
  9007 ;;		Unchanged: 0/0
  9008 ;; Data sizes:     COMRAM   BANK0   BANK1   BANK2   BANK3   BANK4   BANK5   BANK6   BANK7
  9009 ;;      Params:         4       0       0       0       0       0       0       0       0
  9010 ;;      Locals:         3       0       0       0       0       0       0       0       0
  9011 ;;      Temps:          0       0       0       0       0       0       0       0       0
  9012 ;;      Totals:         7       0       0       0       0       0       0       0       0
  9013 ;;Total ram usage:        7 bytes
  9014 ;; Hardware stack levels used:    1
  9015 ;; Hardware stack levels required when called:    4
  9016 ;; This function calls:
  9017 ;;		_fputc
  9018 ;; This function is called by:
  9019 ;;		_pad
  9020 ;; This function uses a non-reentrant model
  9021 ;;
  9022                           
  9023                           	psect	text25
  9024  004478                     __ptext25:
  9025                           	callstack 0
  9026  004478                     _fputs:
  9027                           	callstack 21
  9028  004478  0E00               	movlw	0
  9029  00447A  6E19               	movwf	(fputs@i+1)^0,c
  9030  00447C  0E00               	movlw	0
  9031  00447E  6E18               	movwf	fputs@i^0,c
  9032  004480  EF4D  F022         	goto	l3492
  9033  004484                     l3488:
  9034  004484  C017  F00A         	movff	fputs@c,fputc@c
  9035  004488  6A0B               	clrf	(fputc@c+1)^0,c
  9036  00448A  C015  F00C         	movff	fputs@fp,fputc@fp
  9037  00448E  C016  F00D         	movff	fputs@fp+1,fputc@fp+1
  9038  004492  ECD8  F01E         	call	_fputc	;wreg free
  9039  004496  4A18               	infsnz	fputs@i^0,f,c
  9040  004498  2A19               	incf	(fputs@i+1)^0,f,c
  9041  00449A                     l3492:
  9042  00449A  5018               	movf	fputs@i^0,w,c
  9043  00449C  2413               	addwf	fputs@s^0,w,c
  9044  00449E  6ED9               	movwf	fsr2l,c
  9045  0044A0  5019               	movf	(fputs@i+1)^0,w,c
  9046  0044A2  2014               	addwfc	(fputs@s+1)^0,w,c
  9047  0044A4  6EDA               	movwf	fsr2h,c
  9048  0044A6  50DF               	movf	indf2,w,c
  9049  0044A8  6E17               	movwf	fputs@c^0,c
  9050  0044AA  5017               	movf	fputs@c^0,w,c
  9051  0044AC  A4D8               	btfss	status,2,c
  9052  0044AE  EF5B  F022         	goto	u3411
  9053  0044B2  EF5D  F022         	goto	u3410
  9054  0044B6                     u3411:
  9055  0044B6  EF42  F022         	goto	l3488
  9056  0044BA                     u3410:
  9057  0044BA  0012               	return		;funcret
  9058  0044BC                     __end_of_fputs:
  9059                           	callstack 0
  9060                           
  9061 ;; *************** function _fputc *****************
  9062 ;; Defined at:
  9063 ;;		line 8 in file "E:\MPLAB\xc8\pic\sources\c99\common\nf_fputc.c"
  9064 ;; Parameters:    Size  Location     Type
  9065 ;;  c               2    9[COMRAM] int 
  9066 ;;  fp              2   11[COMRAM] PTR struct _IO_FILE
  9067 ;;		 -> sprintf@f(6), 
  9068 ;; Auto vars:     Size  Location     Type
  9069 ;;		None
  9070 ;; Return value:  Size  Location     Type
  9071 ;;                  2    9[COMRAM] int 
  9072 ;; Registers used:
  9073 ;;		wreg, fsr1l, fsr1h, fsr2l, fsr2h, status,2, status,0, cstack
  9074 ;; Tracked objects:
  9075 ;;		On entry : 0/0
  9076 ;;		On exit  : 0/0
  9077 ;;		Unchanged: 0/0
  9078 ;; Data sizes:     COMRAM   BANK0   BANK1   BANK2   BANK3   BANK4   BANK5   BANK6   BANK7
  9079 ;;      Params:         4       0       0       0       0       0       0       0       0
  9080 ;;      Locals:         0       0       0       0       0       0       0       0       0
  9081 ;;      Temps:          5       0       0       0       0       0       0       0       0
  9082 ;;      Totals:         9       0       0       0       0       0       0       0       0
  9083 ;;Total ram usage:        9 bytes
  9084 ;; Hardware stack levels used:    1
  9085 ;; Hardware stack levels required when called:    3
  9086 ;; This function calls:
  9087 ;;		_putch
  9088 ;; This function is called by:
  9089 ;;		_pad
  9090 ;;		_vfpfcnvrt
  9091 ;;		_fputs
  9092 ;; This function uses a non-reentrant model
  9093 ;;
  9094                           
  9095                           	psect	text26
  9096  003DB0                     __ptext26:
  9097                           	callstack 0
  9098  003DB0                     _fputc:
  9099                           	callstack 24
  9100  003DB0  500C               	movf	fputc@fp^0,w,c
  9101  003DB2  100D               	iorwf	(fputc@fp+1)^0,w,c
  9102  003DB4  B4D8               	btfsc	status,2,c
  9103  003DB6  EFDF  F01E         	goto	u2981
  9104  003DBA  EFE1  F01E         	goto	u2980
  9105  003DBE                     u2981:
  9106  003DBE  EFEA  F01E         	goto	l3274
  9107  003DC2                     u2980:
  9108  003DC2  500C               	movf	fputc@fp^0,w,c
  9109  003DC4  100D               	iorwf	(fputc@fp+1)^0,w,c
  9110  003DC6  A4D8               	btfss	status,2,c
  9111  003DC8  EFE8  F01E         	goto	u2991
  9112  003DCC  EFEA  F01E         	goto	u2990
  9113  003DD0                     u2991:
  9114  003DD0  EFEF  F01E         	goto	l3276
  9115  003DD4                     u2990:
  9116  003DD4                     l3274:
  9117  003DD4  500A               	movf	fputc@c^0,w,c
  9118  003DD6  ECAD  F023         	call	_putch
  9119  003DDA  EF3C  F01F         	goto	l1192
  9120  003DDE                     l3276:
  9121  003DDE  EE20 F004          	lfsr	2,4
  9122  003DE2  500C               	movf	fputc@fp^0,w,c
  9123  003DE4  26D9               	addwf	fsr2l,f,c
  9124  003DE6  500D               	movf	(fputc@fp+1)^0,w,c
  9125  003DE8  22DA               	addwfc	fsr2h,f,c
  9126  003DEA  50DE               	movf	postinc2,w,c
  9127  003DEC  10DE               	iorwf	postinc2,w,c
  9128  003DEE  B4D8               	btfsc	status,2,c
  9129  003DF0  EFFC  F01E         	goto	u3001
  9130  003DF4  EFFE  F01E         	goto	u3000
  9131  003DF8                     u3001:
  9132  003DF8  EF19  F01F         	goto	l3280
  9133  003DFC                     u3000:
  9134  003DFC  EE20 F004          	lfsr	2,4
  9135  003E00  500C               	movf	fputc@fp^0,w,c
  9136  003E02  26D9               	addwf	fsr2l,f,c
  9137  003E04  500D               	movf	(fputc@fp+1)^0,w,c
  9138  003E06  22DA               	addwfc	fsr2h,f,c
  9139  003E08  EE10 F002          	lfsr	1,2
  9140  003E0C  500C               	movf	fputc@fp^0,w,c
  9141  003E0E  26E1               	addwf	fsr1l,f,c
  9142  003E10  500D               	movf	(fputc@fp+1)^0,w,c
  9143  003E12  22E2               	addwfc	fsr1h,f,c
  9144  003E14  50DE               	movf	postinc2,w,c
  9145  003E16  5CE6               	subwf	postinc1,w,c
  9146  003E18  50E6               	movf	postinc1,w,c
  9147  003E1A  0A80               	xorlw	128
  9148  003E1C  6E12               	movwf	(??_fputc+4)^0,c
  9149  003E1E  50DE               	movf	postinc2,w,c
  9150  003E20  0A80               	xorlw	128
  9151  003E22  5812               	subwfb	(??_fputc+4)^0,w,c
  9152  003E24  B0D8               	btfsc	status,0,c
  9153  003E26  EF17  F01F         	goto	u3011
  9154  003E2A  EF19  F01F         	goto	u3010
  9155  003E2E                     u3011:
  9156  003E2E  EF3C  F01F         	goto	l1192
  9157  003E32                     u3010:
  9158  003E32                     l3280:
  9159  003E32  EE20 F002          	lfsr	2,2
  9160  003E36  500C               	movf	fputc@fp^0,w,c
  9161  003E38  26D9               	addwf	fsr2l,f,c
  9162  003E3A  500D               	movf	(fputc@fp+1)^0,w,c
  9163  003E3C  22DA               	addwfc	fsr2h,f,c
  9164  003E3E  CFDE F00E          	movff	postinc2,??_fputc
  9165  003E42  CFDD F00F          	movff	postdec2,??_fputc+1
  9166  003E46  C00C  FFD9         	movff	fputc@fp,fsr2l
  9167  003E4A  C00D  FFDA         	movff	fputc@fp+1,fsr2h
  9168  003E4E  CFDE F010          	movff	postinc2,??_fputc+2
  9169  003E52  CFDD F011          	movff	postdec2,??_fputc+3
  9170  003E56  500E               	movf	??_fputc^0,w,c
  9171  003E58  2410               	addwf	(??_fputc+2)^0,w,c
  9172  003E5A  6ED9               	movwf	fsr2l,c
  9173  003E5C  500F               	movf	(??_fputc+1)^0,w,c
  9174  003E5E  2011               	addwfc	(??_fputc+3)^0,w,c
  9175  003E60  6EDA               	movwf	fsr2h,c
  9176  003E62  C00A  FFDF         	movff	fputc@c,indf2
  9177  003E66  EE20 F002          	lfsr	2,2
  9178  003E6A  500C               	movf	fputc@fp^0,w,c
  9179  003E6C  26D9               	addwf	fsr2l,f,c
  9180  003E6E  500D               	movf	(fputc@fp+1)^0,w,c
  9181  003E70  22DA               	addwfc	fsr2h,f,c
  9182  003E72  2ADE               	incf	postinc2,f,c
  9183  003E74  0E00               	movlw	0
  9184  003E76  22DD               	addwfc	postdec2,f,c
  9185  003E78                     l1192:
  9186  003E78  0012               	return		;funcret
  9187  003E7A                     __end_of_fputc:
  9188                           	callstack 0
  9189                           
  9190 ;; *************** function _putch *****************
  9191 ;; Defined at:
  9192 ;;		line 7 in file "E:\MPLAB\xc8\pic\sources\c99\common\putch.c"
  9193 ;; Parameters:    Size  Location     Type
  9194 ;;  c               1    wreg     unsigned char 
  9195 ;; Auto vars:     Size  Location     Type
  9196 ;;  c               1    0[COMRAM] unsigned char 
  9197 ;; Return value:  Size  Location     Type
  9198 ;;                  1    wreg      void 
  9199 ;; Registers used:
  9200 ;;		wreg
  9201 ;; Tracked objects:
  9202 ;;		On entry : 0/0
  9203 ;;		On exit  : 0/0
  9204 ;;		Unchanged: 0/0
  9205 ;; Data sizes:     COMRAM   BANK0   BANK1   BANK2   BANK3   BANK4   BANK5   BANK6   BANK7
  9206 ;;      Params:         0       0       0       0       0       0       0       0       0
  9207 ;;      Locals:         0       0       0       0       0       0       0       0       0
  9208 ;;      Temps:          0       0       0       0       0       0       0       0       0
  9209 ;;      Totals:         0       0       0       0       0       0       0       0       0
  9210 ;;Total ram usage:        0 bytes
  9211 ;; Hardware stack levels used:    1
  9212 ;; Hardware stack levels required when called:    2
  9213 ;; This function calls:
  9214 ;;		Nothing
  9215 ;; This function is called by:
  9216 ;;		_fputc
  9217 ;; This function uses a non-reentrant model
  9218 ;;
  9219                           
  9220                           	psect	text27
  9221  00475A                     __ptext27:
  9222                           	callstack 0
  9223  00475A                     _putch:
  9224                           	callstack 24
  9225  00475A  0012               	return		;funcret
  9226  00475C                     __end_of_putch:
  9227                           	callstack 0
  9228                           
  9229 ;; *************** function _abs *****************
  9230 ;; Defined at:
  9231 ;;		line 1 in file "E:\MPLAB\xc8\pic\sources\c99\common\abs.c"
  9232 ;; Parameters:    Size  Location     Type
  9233 ;;  a               2   27[COMRAM] int 
  9234 ;; Auto vars:     Size  Location     Type
  9235 ;;		None
  9236 ;; Return value:  Size  Location     Type
  9237 ;;                  2   27[COMRAM] int 
  9238 ;; Registers used:
  9239 ;;		wreg, status,2, status,0
  9240 ;; Tracked objects:
  9241 ;;		On entry : 0/0
  9242 ;;		On exit  : 0/0
  9243 ;;		Unchanged: 0/0
  9244 ;; Data sizes:     COMRAM   BANK0   BANK1   BANK2   BANK3   BANK4   BANK5   BANK6   BANK7
  9245 ;;      Params:         2       0       0       0       0       0       0       0       0
  9246 ;;      Locals:         0       0       0       0       0       0       0       0       0
  9247 ;;      Temps:          2       0       0       0       0       0       0       0       0
  9248 ;;      Totals:         4       0       0       0       0       0       0       0       0
  9249 ;;Total ram usage:        4 bytes
  9250 ;; Hardware stack levels used:    1
  9251 ;; Hardware stack levels required when called:    2
  9252 ;; This function calls:
  9253 ;;		Nothing
  9254 ;; This function is called by:
  9255 ;;		_dtoa
  9256 ;; This function uses a non-reentrant model
  9257 ;;
  9258                           
  9259                           	psect	text28
  9260  0044BC                     __ptext28:
  9261                           	callstack 0
  9262  0044BC                     _abs:
  9263                           	callstack 24
  9264  0044BC  BE1D               	btfsc	(abs@a+1)^0,7,c
  9265  0044BE  EF6B  F022         	goto	u4320
  9266  0044C2  501D               	movf	(abs@a+1)^0,w,c
  9267  0044C4  E106               	bnz	u4321
  9268  0044C6  041C               	decf	abs@a^0,w,c
  9269  0044C8  B0D8               	btfsc	status,0,c
  9270  0044CA  EF69  F022         	goto	u4321
  9271  0044CE  EF6B  F022         	goto	u4320
  9272  0044D2                     u4321:
  9273  0044D2  EF79  F022         	goto	l1113
  9274  0044D6                     u4320:
  9275  0044D6  C01C  F01E         	movff	abs@a,??_abs
  9276  0044DA  C01D  F01F         	movff	abs@a+1,??_abs+1
  9277  0044DE  1E1E               	comf	??_abs^0,f,c
  9278  0044E0  1E1F               	comf	(??_abs+1)^0,f,c
  9279  0044E2  4A1E               	infsnz	??_abs^0,f,c
  9280  0044E4  2A1F               	incf	(??_abs+1)^0,f,c
  9281  0044E6  C01E  F01C         	movff	??_abs,?_abs
  9282  0044EA  C01F  F01D         	movff	??_abs+1,?_abs+1
  9283  0044EE  EF7D  F022         	goto	l1116
  9284  0044F2                     l1113:
  9285  0044F2  C01C  F01C         	movff	abs@a,?_abs
  9286  0044F6  C01D  F01D         	movff	abs@a+1,?_abs+1
  9287  0044FA                     l1116:
  9288  0044FA  0012               	return		;funcret
  9289  0044FC                     __end_of_abs:
  9290                           	callstack 0
  9291                           
  9292 ;; *************** function ___aomod *****************
  9293 ;; Defined at:
  9294 ;;		line 9 in file "E:\MPLAB\xc8\pic\sources\c99\common\aomod.c"
  9295 ;; Parameters:    Size  Location     Type
  9296 ;;  dividend        8    9[COMRAM] long long 
  9297 ;;  divisor         8   17[COMRAM] long long 
  9298 ;; Auto vars:     Size  Location     Type
  9299 ;;  sign            1   26[COMRAM] unsigned char 
  9300 ;;  counter         1   25[COMRAM] unsigned char 
  9301 ;; Return value:  Size  Location     Type
  9302 ;;                  8    9[COMRAM] long long 
  9303 ;; Registers used:
  9304 ;;		wreg, status,2, status,0
  9305 ;; Tracked objects:
  9306 ;;		On entry : 0/0
  9307 ;;		On exit  : 0/0
  9308 ;;		Unchanged: 0/0
  9309 ;; Data sizes:     COMRAM   BANK0   BANK1   BANK2   BANK3   BANK4   BANK5   BANK6   BANK7
  9310 ;;      Params:        16       0       0       0       0       0       0       0       0
  9311 ;;      Locals:         2       0       0       0       0       0       0       0       0
  9312 ;;      Temps:          0       0       0       0       0       0       0       0       0
  9313 ;;      Totals:        18       0       0       0       0       0       0       0       0
  9314 ;;Total ram usage:       18 bytes
  9315 ;; Hardware stack levels used:    1
  9316 ;; Hardware stack levels required when called:    2
  9317 ;; This function calls:
  9318 ;;		Nothing
  9319 ;; This function is called by:
  9320 ;;		_dtoa
  9321 ;; This function uses a non-reentrant model
  9322 ;;
  9323                           
  9324                           	psect	text29
  9325  003780                     __ptext29:
  9326                           	callstack 0
  9327  003780                     ___aomod:
  9328                           	callstack 24
  9329  003780  0E00               	movlw	0
  9330  003782  6E1B               	movwf	___aomod@sign^0,c
  9331  003784  BE11               	btfsc	(___aomod@dividend+7)^0,7,c
  9332  003786  EFC9  F01B         	goto	u3520
  9333  00378A  EFC7  F01B         	goto	u3521
  9334  00378E                     u3521:
  9335  00378E  EFDB  F01B         	goto	l3566
  9336  003792                     u3520:
  9337  003792  1E11               	comf	(___aomod@dividend+7)^0,f,c
  9338  003794  1E10               	comf	(___aomod@dividend+6)^0,f,c
  9339  003796  1E0F               	comf	(___aomod@dividend+5)^0,f,c
  9340  003798  1E0E               	comf	(___aomod@dividend+4)^0,f,c
  9341  00379A  1E0D               	comf	(___aomod@dividend+3)^0,f,c
  9342  00379C  1E0C               	comf	(___aomod@dividend+2)^0,f,c
  9343  00379E  1E0B               	comf	(___aomod@dividend+1)^0,f,c
  9344  0037A0  6C0A               	negf	___aomod@dividend^0,c
  9345  0037A2  0E00               	movlw	0
  9346  0037A4  220B               	addwfc	(___aomod@dividend+1)^0,f,c
  9347  0037A6  220C               	addwfc	(___aomod@dividend+2)^0,f,c
  9348  0037A8  220D               	addwfc	(___aomod@dividend+3)^0,f,c
  9349  0037AA  220E               	addwfc	(___aomod@dividend+4)^0,f,c
  9350  0037AC  220F               	addwfc	(___aomod@dividend+5)^0,f,c
  9351  0037AE  2210               	addwfc	(___aomod@dividend+6)^0,f,c
  9352  0037B0  2211               	addwfc	(___aomod@dividend+7)^0,f,c
  9353  0037B2  0E01               	movlw	1
  9354  0037B4  6E1B               	movwf	___aomod@sign^0,c
  9355  0037B6                     l3566:
  9356  0037B6  BE19               	btfsc	(___aomod@divisor+7)^0,7,c
  9357  0037B8  EFE2  F01B         	goto	u3530
  9358  0037BC  EFE0  F01B         	goto	u3531
  9359  0037C0                     u3531:
  9360  0037C0  EFF2  F01B         	goto	l3570
  9361  0037C4                     u3530:
  9362  0037C4  1E19               	comf	(___aomod@divisor+7)^0,f,c
  9363  0037C6  1E18               	comf	(___aomod@divisor+6)^0,f,c
  9364  0037C8  1E17               	comf	(___aomod@divisor+5)^0,f,c
  9365  0037CA  1E16               	comf	(___aomod@divisor+4)^0,f,c
  9366  0037CC  1E15               	comf	(___aomod@divisor+3)^0,f,c
  9367  0037CE  1E14               	comf	(___aomod@divisor+2)^0,f,c
  9368  0037D0  1E13               	comf	(___aomod@divisor+1)^0,f,c
  9369  0037D2  6C12               	negf	___aomod@divisor^0,c
  9370  0037D4  0E00               	movlw	0
  9371  0037D6  2213               	addwfc	(___aomod@divisor+1)^0,f,c
  9372  0037D8  2214               	addwfc	(___aomod@divisor+2)^0,f,c
  9373  0037DA  2215               	addwfc	(___aomod@divisor+3)^0,f,c
  9374  0037DC  2216               	addwfc	(___aomod@divisor+4)^0,f,c
  9375  0037DE  2217               	addwfc	(___aomod@divisor+5)^0,f,c
  9376  0037E0  2218               	addwfc	(___aomod@divisor+6)^0,f,c
  9377  0037E2  2219               	addwfc	(___aomod@divisor+7)^0,f,c
  9378  0037E4                     l3570:
  9379  0037E4  5012               	movf	___aomod@divisor^0,w,c
  9380  0037E6  1013               	iorwf	(___aomod@divisor+1)^0,w,c
  9381  0037E8  1014               	iorwf	(___aomod@divisor+2)^0,w,c
  9382  0037EA  1015               	iorwf	(___aomod@divisor+3)^0,w,c
  9383  0037EC  1016               	iorwf	(___aomod@divisor+4)^0,w,c
  9384  0037EE  1017               	iorwf	(___aomod@divisor+5)^0,w,c
  9385  0037F0  1018               	iorwf	(___aomod@divisor+6)^0,w,c
  9386  0037F2  1019               	iorwf	(___aomod@divisor+7)^0,w,c
  9387  0037F4  B4D8               	btfsc	status,2,c
  9388  0037F6  EFFF  F01B         	goto	u3541
  9389  0037FA  EF01  F01C         	goto	u3540
  9390  0037FE                     u3541:
  9391  0037FE  EF49  F01C         	goto	l3586
  9392  003802                     u3540:
  9393  003802  0E01               	movlw	1
  9394  003804  6E1A               	movwf	___aomod@counter^0,c
  9395  003806  EF0F  F01C         	goto	l3576
  9396  00380A                     l3574:
  9397  00380A  90D8               	bcf	status,0,c
  9398  00380C  3612               	rlcf	___aomod@divisor^0,f,c
  9399  00380E  3613               	rlcf	(___aomod@divisor+1)^0,f,c
  9400  003810  3614               	rlcf	(___aomod@divisor+2)^0,f,c
  9401  003812  3615               	rlcf	(___aomod@divisor+3)^0,f,c
  9402  003814  3616               	rlcf	(___aomod@divisor+4)^0,f,c
  9403  003816  3617               	rlcf	(___aomod@divisor+5)^0,f,c
  9404  003818  3618               	rlcf	(___aomod@divisor+6)^0,f,c
  9405  00381A  3619               	rlcf	(___aomod@divisor+7)^0,f,c
  9406  00381C  2A1A               	incf	___aomod@counter^0,f,c
  9407  00381E                     l3576:
  9408  00381E  AE19               	btfss	(___aomod@divisor+7)^0,7,c
  9409  003820  EF14  F01C         	goto	u3551
  9410  003824  EF16  F01C         	goto	u3550
  9411  003828                     u3551:
  9412  003828  EF05  F01C         	goto	l3574
  9413  00382C                     u3550:
  9414  00382C                     l3578:
  9415  00382C  5012               	movf	___aomod@divisor^0,w,c
  9416  00382E  5C0A               	subwf	___aomod@dividend^0,w,c
  9417  003830  5013               	movf	(___aomod@divisor+1)^0,w,c
  9418  003832  580B               	subwfb	(___aomod@dividend+1)^0,w,c
  9419  003834  5014               	movf	(___aomod@divisor+2)^0,w,c
  9420  003836  580C               	subwfb	(___aomod@dividend+2)^0,w,c
  9421  003838  5015               	movf	(___aomod@divisor+3)^0,w,c
  9422  00383A  580D               	subwfb	(___aomod@dividend+3)^0,w,c
  9423  00383C  5016               	movf	(___aomod@divisor+4)^0,w,c
  9424  00383E  580E               	subwfb	(___aomod@dividend+4)^0,w,c
  9425  003840  5017               	movf	(___aomod@divisor+5)^0,w,c
  9426  003842  580F               	subwfb	(___aomod@dividend+5)^0,w,c
  9427  003844  5018               	movf	(___aomod@divisor+6)^0,w,c
  9428  003846  5810               	subwfb	(___aomod@dividend+6)^0,w,c
  9429  003848  5019               	movf	(___aomod@divisor+7)^0,w,c
  9430  00384A  5811               	subwfb	(___aomod@dividend+7)^0,w,c
  9431  00384C  A0D8               	btfss	status,0,c
  9432  00384E  EF2B  F01C         	goto	u3561
  9433  003852  EF2D  F01C         	goto	u3560
  9434  003856                     u3561:
  9435  003856  EF3D  F01C         	goto	l3582
  9436  00385A                     u3560:
  9437  00385A  5012               	movf	___aomod@divisor^0,w,c
  9438  00385C  5E0A               	subwf	___aomod@dividend^0,f,c
  9439  00385E  5013               	movf	(___aomod@divisor+1)^0,w,c
  9440  003860  5A0B               	subwfb	(___aomod@dividend+1)^0,f,c
  9441  003862  5014               	movf	(___aomod@divisor+2)^0,w,c
  9442  003864  5A0C               	subwfb	(___aomod@dividend+2)^0,f,c
  9443  003866  5015               	movf	(___aomod@divisor+3)^0,w,c
  9444  003868  5A0D               	subwfb	(___aomod@dividend+3)^0,f,c
  9445  00386A  5016               	movf	(___aomod@divisor+4)^0,w,c
  9446  00386C  5A0E               	subwfb	(___aomod@dividend+4)^0,f,c
  9447  00386E  5017               	movf	(___aomod@divisor+5)^0,w,c
  9448  003870  5A0F               	subwfb	(___aomod@dividend+5)^0,f,c
  9449  003872  5018               	movf	(___aomod@divisor+6)^0,w,c
  9450  003874  5A10               	subwfb	(___aomod@dividend+6)^0,f,c
  9451  003876  5019               	movf	(___aomod@divisor+7)^0,w,c
  9452  003878  5A11               	subwfb	(___aomod@dividend+7)^0,f,c
  9453  00387A                     l3582:
  9454  00387A  90D8               	bcf	status,0,c
  9455  00387C  3219               	rrcf	(___aomod@divisor+7)^0,f,c
  9456  00387E  3218               	rrcf	(___aomod@divisor+6)^0,f,c
  9457  003880  3217               	rrcf	(___aomod@divisor+5)^0,f,c
  9458  003882  3216               	rrcf	(___aomod@divisor+4)^0,f,c
  9459  003884  3215               	rrcf	(___aomod@divisor+3)^0,f,c
  9460  003886  3214               	rrcf	(___aomod@divisor+2)^0,f,c
  9461  003888  3213               	rrcf	(___aomod@divisor+1)^0,f,c
  9462  00388A  3212               	rrcf	___aomod@divisor^0,f,c
  9463  00388C  2E1A               	decfsz	___aomod@counter^0,f,c
  9464  00388E  EF16  F01C         	goto	l3578
  9465  003892                     l3586:
  9466  003892  501B               	movf	___aomod@sign^0,w,c
  9467  003894  B4D8               	btfsc	status,2,c
  9468  003896  EF4F  F01C         	goto	u3571
  9469  00389A  EF51  F01C         	goto	u3570
  9470  00389E                     u3571:
  9471  00389E  EF61  F01C         	goto	l3590
  9472  0038A2                     u3570:
  9473  0038A2  1E11               	comf	(___aomod@dividend+7)^0,f,c
  9474  0038A4  1E10               	comf	(___aomod@dividend+6)^0,f,c
  9475  0038A6  1E0F               	comf	(___aomod@dividend+5)^0,f,c
  9476  0038A8  1E0E               	comf	(___aomod@dividend+4)^0,f,c
  9477  0038AA  1E0D               	comf	(___aomod@dividend+3)^0,f,c
  9478  0038AC  1E0C               	comf	(___aomod@dividend+2)^0,f,c
  9479  0038AE  1E0B               	comf	(___aomod@dividend+1)^0,f,c
  9480  0038B0  6C0A               	negf	___aomod@dividend^0,c
  9481  0038B2  0E00               	movlw	0
  9482  0038B4  220B               	addwfc	(___aomod@dividend+1)^0,f,c
  9483  0038B6  220C               	addwfc	(___aomod@dividend+2)^0,f,c
  9484  0038B8  220D               	addwfc	(___aomod@dividend+3)^0,f,c
  9485  0038BA  220E               	addwfc	(___aomod@dividend+4)^0,f,c
  9486  0038BC  220F               	addwfc	(___aomod@dividend+5)^0,f,c
  9487  0038BE  2210               	addwfc	(___aomod@dividend+6)^0,f,c
  9488  0038C0  2211               	addwfc	(___aomod@dividend+7)^0,f,c
  9489  0038C2                     l3590:
  9490  0038C2  C00A  F00A         	movff	___aomod@dividend,?___aomod
  9491  0038C6  C00B  F00B         	movff	___aomod@dividend+1,?___aomod+1
  9492  0038CA  C00C  F00C         	movff	___aomod@dividend+2,?___aomod+2
  9493  0038CE  C00D  F00D         	movff	___aomod@dividend+3,?___aomod+3
  9494  0038D2  C00E  F00E         	movff	___aomod@dividend+4,?___aomod+4
  9495  0038D6  C00F  F00F         	movff	___aomod@dividend+5,?___aomod+5
  9496  0038DA  C010  F010         	movff	___aomod@dividend+6,?___aomod+6
  9497  0038DE  C011  F011         	movff	___aomod@dividend+7,?___aomod+7
  9498  0038E2  0012               	return		;funcret
  9499  0038E4                     __end_of___aomod:
  9500                           	callstack 0
  9501                           
  9502 ;; *************** function ___aodiv *****************
  9503 ;; Defined at:
  9504 ;;		line 9 in file "E:\MPLAB\xc8\pic\sources\c99\common\aodiv.c"
  9505 ;; Parameters:    Size  Location     Type
  9506 ;;  dividend        8    9[COMRAM] long long 
  9507 ;;  divisor         8   17[COMRAM] long long 
  9508 ;; Auto vars:     Size  Location     Type
  9509 ;;  quotient        8   27[COMRAM] long long 
  9510 ;;  sign            1   26[COMRAM] unsigned char 
  9511 ;;  counter         1   25[COMRAM] unsigned char 
  9512 ;; Return value:  Size  Location     Type
  9513 ;;                  8    9[COMRAM] long long 
  9514 ;; Registers used:
  9515 ;;		wreg, fsr2l, fsr2h, status,2, status,0
  9516 ;; Tracked objects:
  9517 ;;		On entry : 0/0
  9518 ;;		On exit  : 0/0
  9519 ;;		Unchanged: 0/0
  9520 ;; Data sizes:     COMRAM   BANK0   BANK1   BANK2   BANK3   BANK4   BANK5   BANK6   BANK7
  9521 ;;      Params:        16       0       0       0       0       0       0       0       0
  9522 ;;      Locals:        10       0       0       0       0       0       0       0       0
  9523 ;;      Temps:          0       0       0       0       0       0       0       0       0
  9524 ;;      Totals:        26       0       0       0       0       0       0       0       0
  9525 ;;Total ram usage:       26 bytes
  9526 ;; Hardware stack levels used:    1
  9527 ;; Hardware stack levels required when called:    2
  9528 ;; This function calls:
  9529 ;;		Nothing
  9530 ;; This function is called by:
  9531 ;;		_dtoa
  9532 ;; This function uses a non-reentrant model
  9533 ;;
  9534                           
  9535                           	psect	text30
  9536  0035F8                     __ptext30:
  9537                           	callstack 0
  9538  0035F8                     ___aodiv:
  9539                           	callstack 24
  9540  0035F8  0E00               	movlw	0
  9541  0035FA  6E1B               	movwf	___aodiv@sign^0,c
  9542  0035FC  BE19               	btfsc	(___aodiv@divisor+7)^0,7,c
  9543  0035FE  EF05  F01B         	goto	u3450
  9544  003602  EF03  F01B         	goto	u3451
  9545  003606                     u3451:
  9546  003606  EF17  F01B         	goto	l3522
  9547  00360A                     u3450:
  9548  00360A  1E19               	comf	(___aodiv@divisor+7)^0,f,c
  9549  00360C  1E18               	comf	(___aodiv@divisor+6)^0,f,c
  9550  00360E  1E17               	comf	(___aodiv@divisor+5)^0,f,c
  9551  003610  1E16               	comf	(___aodiv@divisor+4)^0,f,c
  9552  003612  1E15               	comf	(___aodiv@divisor+3)^0,f,c
  9553  003614  1E14               	comf	(___aodiv@divisor+2)^0,f,c
  9554  003616  1E13               	comf	(___aodiv@divisor+1)^0,f,c
  9555  003618  6C12               	negf	___aodiv@divisor^0,c
  9556  00361A  0E00               	movlw	0
  9557  00361C  2213               	addwfc	(___aodiv@divisor+1)^0,f,c
  9558  00361E  2214               	addwfc	(___aodiv@divisor+2)^0,f,c
  9559  003620  2215               	addwfc	(___aodiv@divisor+3)^0,f,c
  9560  003622  2216               	addwfc	(___aodiv@divisor+4)^0,f,c
  9561  003624  2217               	addwfc	(___aodiv@divisor+5)^0,f,c
  9562  003626  2218               	addwfc	(___aodiv@divisor+6)^0,f,c
  9563  003628  2219               	addwfc	(___aodiv@divisor+7)^0,f,c
  9564  00362A  0E01               	movlw	1
  9565  00362C  6E1B               	movwf	___aodiv@sign^0,c
  9566  00362E                     l3522:
  9567  00362E  BE11               	btfsc	(___aodiv@dividend+7)^0,7,c
  9568  003630  EF1E  F01B         	goto	u3460
  9569  003634  EF1C  F01B         	goto	u3461
  9570  003638                     u3461:
  9571  003638  EF30  F01B         	goto	l3528
  9572  00363C                     u3460:
  9573  00363C  1E11               	comf	(___aodiv@dividend+7)^0,f,c
  9574  00363E  1E10               	comf	(___aodiv@dividend+6)^0,f,c
  9575  003640  1E0F               	comf	(___aodiv@dividend+5)^0,f,c
  9576  003642  1E0E               	comf	(___aodiv@dividend+4)^0,f,c
  9577  003644  1E0D               	comf	(___aodiv@dividend+3)^0,f,c
  9578  003646  1E0C               	comf	(___aodiv@dividend+2)^0,f,c
  9579  003648  1E0B               	comf	(___aodiv@dividend+1)^0,f,c
  9580  00364A  6C0A               	negf	___aodiv@dividend^0,c
  9581  00364C  0E00               	movlw	0
  9582  00364E  220B               	addwfc	(___aodiv@dividend+1)^0,f,c
  9583  003650  220C               	addwfc	(___aodiv@dividend+2)^0,f,c
  9584  003652  220D               	addwfc	(___aodiv@dividend+3)^0,f,c
  9585  003654  220E               	addwfc	(___aodiv@dividend+4)^0,f,c
  9586  003656  220F               	addwfc	(___aodiv@dividend+5)^0,f,c
  9587  003658  2210               	addwfc	(___aodiv@dividend+6)^0,f,c
  9588  00365A  2211               	addwfc	(___aodiv@dividend+7)^0,f,c
  9589  00365C  0E01               	movlw	1
  9590  00365E  1A1B               	xorwf	___aodiv@sign^0,f,c
  9591  003660                     l3528:
  9592  003660  EE20  F01C         	lfsr	2,___aodiv@quotient
  9593  003664  0E07               	movlw	7
  9594  003666                     u3471:
  9595  003666  6ADE               	clrf	postinc2,c
  9596  003668  06E8               	decf	wreg,f,c
  9597  00366A  E2FD               	bc	u3471
  9598  00366C  5012               	movf	___aodiv@divisor^0,w,c
  9599  00366E  1013               	iorwf	(___aodiv@divisor+1)^0,w,c
  9600  003670  1014               	iorwf	(___aodiv@divisor+2)^0,w,c
  9601  003672  1015               	iorwf	(___aodiv@divisor+3)^0,w,c
  9602  003674  1016               	iorwf	(___aodiv@divisor+4)^0,w,c
  9603  003676  1017               	iorwf	(___aodiv@divisor+5)^0,w,c
  9604  003678  1018               	iorwf	(___aodiv@divisor+6)^0,w,c
  9605  00367A  1019               	iorwf	(___aodiv@divisor+7)^0,w,c
  9606  00367C  B4D8               	btfsc	status,2,c
  9607  00367E  EF43  F01B         	goto	u3481
  9608  003682  EF45  F01B         	goto	u3480
  9609  003686                     u3481:
  9610  003686  EF97  F01B         	goto	l3550
  9611  00368A                     u3480:
  9612  00368A  0E01               	movlw	1
  9613  00368C  6E1A               	movwf	___aodiv@counter^0,c
  9614  00368E  EF53  F01B         	goto	l3536
  9615  003692                     l3534:
  9616  003692  90D8               	bcf	status,0,c
  9617  003694  3612               	rlcf	___aodiv@divisor^0,f,c
  9618  003696  3613               	rlcf	(___aodiv@divisor+1)^0,f,c
  9619  003698  3614               	rlcf	(___aodiv@divisor+2)^0,f,c
  9620  00369A  3615               	rlcf	(___aodiv@divisor+3)^0,f,c
  9621  00369C  3616               	rlcf	(___aodiv@divisor+4)^0,f,c
  9622  00369E  3617               	rlcf	(___aodiv@divisor+5)^0,f,c
  9623  0036A0  3618               	rlcf	(___aodiv@divisor+6)^0,f,c
  9624  0036A2  3619               	rlcf	(___aodiv@divisor+7)^0,f,c
  9625  0036A4  2A1A               	incf	___aodiv@counter^0,f,c
  9626  0036A6                     l3536:
  9627  0036A6  AE19               	btfss	(___aodiv@divisor+7)^0,7,c
  9628  0036A8  EF58  F01B         	goto	u3491
  9629  0036AC  EF5A  F01B         	goto	u3490
  9630  0036B0                     u3491:
  9631  0036B0  EF49  F01B         	goto	l3534
  9632  0036B4                     u3490:
  9633  0036B4                     l3538:
  9634  0036B4  90D8               	bcf	status,0,c
  9635  0036B6  361C               	rlcf	___aodiv@quotient^0,f,c
  9636  0036B8  361D               	rlcf	(___aodiv@quotient+1)^0,f,c
  9637  0036BA  361E               	rlcf	(___aodiv@quotient+2)^0,f,c
  9638  0036BC  361F               	rlcf	(___aodiv@quotient+3)^0,f,c
  9639  0036BE  3620               	rlcf	(___aodiv@quotient+4)^0,f,c
  9640  0036C0  3621               	rlcf	(___aodiv@quotient+5)^0,f,c
  9641  0036C2  3622               	rlcf	(___aodiv@quotient+6)^0,f,c
  9642  0036C4  3623               	rlcf	(___aodiv@quotient+7)^0,f,c
  9643  0036C6  5012               	movf	___aodiv@divisor^0,w,c
  9644  0036C8  5C0A               	subwf	___aodiv@dividend^0,w,c
  9645  0036CA  5013               	movf	(___aodiv@divisor+1)^0,w,c
  9646  0036CC  580B               	subwfb	(___aodiv@dividend+1)^0,w,c
  9647  0036CE  5014               	movf	(___aodiv@divisor+2)^0,w,c
  9648  0036D0  580C               	subwfb	(___aodiv@dividend+2)^0,w,c
  9649  0036D2  5015               	movf	(___aodiv@divisor+3)^0,w,c
  9650  0036D4  580D               	subwfb	(___aodiv@dividend+3)^0,w,c
  9651  0036D6  5016               	movf	(___aodiv@divisor+4)^0,w,c
  9652  0036D8  580E               	subwfb	(___aodiv@dividend+4)^0,w,c
  9653  0036DA  5017               	movf	(___aodiv@divisor+5)^0,w,c
  9654  0036DC  580F               	subwfb	(___aodiv@dividend+5)^0,w,c
  9655  0036DE  5018               	movf	(___aodiv@divisor+6)^0,w,c
  9656  0036E0  5810               	subwfb	(___aodiv@dividend+6)^0,w,c
  9657  0036E2  5019               	movf	(___aodiv@divisor+7)^0,w,c
  9658  0036E4  5811               	subwfb	(___aodiv@dividend+7)^0,w,c
  9659  0036E6  A0D8               	btfss	status,0,c
  9660  0036E8  EF78  F01B         	goto	u3501
  9661  0036EC  EF7A  F01B         	goto	u3500
  9662  0036F0                     u3501:
  9663  0036F0  EF8B  F01B         	goto	l3546
  9664  0036F4                     u3500:
  9665  0036F4  5012               	movf	___aodiv@divisor^0,w,c
  9666  0036F6  5E0A               	subwf	___aodiv@dividend^0,f,c
  9667  0036F8  5013               	movf	(___aodiv@divisor+1)^0,w,c
  9668  0036FA  5A0B               	subwfb	(___aodiv@dividend+1)^0,f,c
  9669  0036FC  5014               	movf	(___aodiv@divisor+2)^0,w,c
  9670  0036FE  5A0C               	subwfb	(___aodiv@dividend+2)^0,f,c
  9671  003700  5015               	movf	(___aodiv@divisor+3)^0,w,c
  9672  003702  5A0D               	subwfb	(___aodiv@dividend+3)^0,f,c
  9673  003704  5016               	movf	(___aodiv@divisor+4)^0,w,c
  9674  003706  5A0E               	subwfb	(___aodiv@dividend+4)^0,f,c
  9675  003708  5017               	movf	(___aodiv@divisor+5)^0,w,c
  9676  00370A  5A0F               	subwfb	(___aodiv@dividend+5)^0,f,c
  9677  00370C  5018               	movf	(___aodiv@divisor+6)^0,w,c
  9678  00370E  5A10               	subwfb	(___aodiv@dividend+6)^0,f,c
  9679  003710  5019               	movf	(___aodiv@divisor+7)^0,w,c
  9680  003712  5A11               	subwfb	(___aodiv@dividend+7)^0,f,c
  9681  003714  801C               	bsf	___aodiv@quotient^0,0,c
  9682  003716                     l3546:
  9683  003716  90D8               	bcf	status,0,c
  9684  003718  3219               	rrcf	(___aodiv@divisor+7)^0,f,c
  9685  00371A  3218               	rrcf	(___aodiv@divisor+6)^0,f,c
  9686  00371C  3217               	rrcf	(___aodiv@divisor+5)^0,f,c
  9687  00371E  3216               	rrcf	(___aodiv@divisor+4)^0,f,c
  9688  003720  3215               	rrcf	(___aodiv@divisor+3)^0,f,c
  9689  003722  3214               	rrcf	(___aodiv@divisor+2)^0,f,c
  9690  003724  3213               	rrcf	(___aodiv@divisor+1)^0,f,c
  9691  003726  3212               	rrcf	___aodiv@divisor^0,f,c
  9692  003728  2E1A               	decfsz	___aodiv@counter^0,f,c
  9693  00372A  EF5A  F01B         	goto	l3538
  9694  00372E                     l3550:
  9695  00372E  501B               	movf	___aodiv@sign^0,w,c
  9696  003730  B4D8               	btfsc	status,2,c
  9697  003732  EF9D  F01B         	goto	u3511
  9698  003736  EF9F  F01B         	goto	u3510
  9699  00373A                     u3511:
  9700  00373A  EFAF  F01B         	goto	l3554
  9701  00373E                     u3510:
  9702  00373E  1E23               	comf	(___aodiv@quotient+7)^0,f,c
  9703  003740  1E22               	comf	(___aodiv@quotient+6)^0,f,c
  9704  003742  1E21               	comf	(___aodiv@quotient+5)^0,f,c
  9705  003744  1E20               	comf	(___aodiv@quotient+4)^0,f,c
  9706  003746  1E1F               	comf	(___aodiv@quotient+3)^0,f,c
  9707  003748  1E1E               	comf	(___aodiv@quotient+2)^0,f,c
  9708  00374A  1E1D               	comf	(___aodiv@quotient+1)^0,f,c
  9709  00374C  6C1C               	negf	___aodiv@quotient^0,c
  9710  00374E  0E00               	movlw	0
  9711  003750  221D               	addwfc	(___aodiv@quotient+1)^0,f,c
  9712  003752  221E               	addwfc	(___aodiv@quotient+2)^0,f,c
  9713  003754  221F               	addwfc	(___aodiv@quotient+3)^0,f,c
  9714  003756  2220               	addwfc	(___aodiv@quotient+4)^0,f,c
  9715  003758  2221               	addwfc	(___aodiv@quotient+5)^0,f,c
  9716  00375A  2222               	addwfc	(___aodiv@quotient+6)^0,f,c
  9717  00375C  2223               	addwfc	(___aodiv@quotient+7)^0,f,c
  9718  00375E                     l3554:
  9719  00375E  C01C  F00A         	movff	___aodiv@quotient,?___aodiv
  9720  003762  C01D  F00B         	movff	___aodiv@quotient+1,?___aodiv+1
  9721  003766  C01E  F00C         	movff	___aodiv@quotient+2,?___aodiv+2
  9722  00376A  C01F  F00D         	movff	___aodiv@quotient+3,?___aodiv+3
  9723  00376E  C020  F00E         	movff	___aodiv@quotient+4,?___aodiv+4
  9724  003772  C021  F00F         	movff	___aodiv@quotient+5,?___aodiv+5
  9725  003776  C022  F010         	movff	___aodiv@quotient+6,?___aodiv+6
  9726  00377A  C023  F011         	movff	___aodiv@quotient+7,?___aodiv+7
  9727  00377E  0012               	return		;funcret
  9728  003780                     __end_of___aodiv:
  9729                           	callstack 0
  9730                           
  9731 ;; *************** function _atoi *****************
  9732 ;; Defined at:
  9733 ;;		line 4 in file "E:\MPLAB\xc8\pic\sources\c99\common\atoi.c"
  9734 ;; Parameters:    Size  Location     Type
  9735 ;;  s               2   16[COMRAM] PTR const unsigned char 
  9736 ;;		 -> STR_15(17), STR_13(17), STR_11(8), STR_10(8), 
  9737 ;;		 -> STR_9(8), STR_8(8), STR_6(5), STR_5(5), 
  9738 ;;		 -> STR_3(5), STR_2(5), 
  9739 ;; Auto vars:     Size  Location     Type
  9740 ;;  n               2   29[COMRAM] int 
  9741 ;;  neg             2   22[COMRAM] int 
  9742 ;; Return value:  Size  Location     Type
  9743 ;;                  2   16[COMRAM] int 
  9744 ;; Registers used:
  9745 ;;		wreg, status,2, status,0, tblptrl, tblptrh, tblptru, prodl, prodh, cstack
  9746 ;; Tracked objects:
  9747 ;;		On entry : 0/0
  9748 ;;		On exit  : 0/0
  9749 ;;		Unchanged: 0/0
  9750 ;; Data sizes:     COMRAM   BANK0   BANK1   BANK2   BANK3   BANK4   BANK5   BANK6   BANK7
  9751 ;;      Params:         2       0       0       0       0       0       0       0       0
  9752 ;;      Locals:         9       0       0       0       0       0       0       0       0
  9753 ;;      Temps:          4       0       0       0       0       0       0       0       0
  9754 ;;      Totals:        15       0       0       0       0       0       0       0       0
  9755 ;;Total ram usage:       15 bytes
  9756 ;; Hardware stack levels used:    1
  9757 ;; Hardware stack levels required when called:    3
  9758 ;; This function calls:
  9759 ;;		___wmul
  9760 ;;		_isdigit
  9761 ;;		_isspace
  9762 ;; This function is called by:
  9763 ;;		_vfpfcnvrt
  9764 ;; This function uses a non-reentrant model
  9765 ;;
  9766                           
  9767                           	psect	text31
  9768  003468                     __ptext31:
  9769                           	callstack 0
  9770  003468                     _atoi:
  9771                           	callstack 24
  9772  003468  0E00               	movlw	0
  9773  00346A  6E1F               	movwf	(atoi@n+1)^0,c
  9774  00346C  0E00               	movlw	0
  9775  00346E  6E1E               	movwf	atoi@n^0,c
  9776  003470  0E00               	movlw	0
  9777  003472  6E18               	movwf	(atoi@neg+1)^0,c
  9778  003474  0E00               	movlw	0
  9779  003476  6E17               	movwf	atoi@neg^0,c
  9780  003478  EF40  F01A         	goto	l4508
  9781  00347C                     l4506:
  9782  00347C  4A11               	infsnz	atoi@s^0,f,c
  9783  00347E  2A12               	incf	(atoi@s+1)^0,f,c
  9784  003480                     l4508:
  9785  003480  0E01               	movlw	1
  9786  003482  6E1D               	movwf	_atoi$1416^0,c
  9787  003484  C011  FFF6         	movff	atoi@s,tblptrl
  9788  003488  C012  FFF7         	movff	atoi@s+1,tblptrh
  9789  00348C                     	if	0	;tblptru may be non-zero
  9790  00348C                     	endif
  9791  00348C                     	if	0	;tblptru may be non-zero
  9792  00348C                     	endif
  9793  00348C  0008               	tblrd		*
  9794  00348E  50F5               	movf	tablat,w,c
  9795  003490  0A20               	xorlw	32
  9796  003492  B4D8               	btfsc	status,2,c
  9797  003494  EF4E  F01A         	goto	u5261
  9798  003498  EF50  F01A         	goto	u5260
  9799  00349C                     u5261:
  9800  00349C  EF6D  F01A         	goto	l4516
  9801  0034A0                     u5260:
  9802  0034A0  0EF7               	movlw	247
  9803  0034A2  6E13               	movwf	??_atoi^0,c
  9804  0034A4  0EFF               	movlw	255
  9805  0034A6  6E14               	movwf	(??_atoi+1)^0,c
  9806  0034A8  C011  FFF6         	movff	atoi@s,tblptrl
  9807  0034AC  C012  FFF7         	movff	atoi@s+1,tblptrh
  9808  0034B0                     	if	0	;tblptru may be non-zero
  9809  0034B0                     	endif
  9810  0034B0                     	if	0	;tblptru may be non-zero
  9811  0034B0                     	endif
  9812  0034B0  0008               	tblrd		*
  9813  0034B2  50F5               	movf	tablat,w,c
  9814  0034B4  6E15               	movwf	(??_atoi+2)^0,c
  9815  0034B6  6A16               	clrf	(??_atoi+3)^0,c
  9816  0034B8  5013               	movf	??_atoi^0,w,c
  9817  0034BA  2615               	addwf	(??_atoi+2)^0,f,c
  9818  0034BC  5014               	movf	(??_atoi+1)^0,w,c
  9819  0034BE  2216               	addwfc	(??_atoi+3)^0,f,c
  9820  0034C0  5016               	movf	(??_atoi+3)^0,w,c
  9821  0034C2  E109               	bnz	u5270
  9822  0034C4  0E05               	movlw	5
  9823  0034C6  5C15               	subwf	(??_atoi+2)^0,w,c
  9824  0034C8  A0D8               	btfss	status,0,c
  9825  0034CA  EF69  F01A         	goto	u5271
  9826  0034CE  EF6B  F01A         	goto	u5270
  9827  0034D2                     u5271:
  9828  0034D2  EF6D  F01A         	goto	l4516
  9829  0034D6                     u5270:
  9830  0034D6  0E00               	movlw	0
  9831  0034D8  6E1D               	movwf	_atoi$1416^0,c
  9832  0034DA                     l4516:
  9833  0034DA  C01D  F019         	movff	_atoi$1416,_atoi$1415
  9834  0034DE  6A1A               	clrf	(_atoi$1415+1)^0,c
  9835  0034E0  5019               	movf	_atoi$1415^0,w,c
  9836  0034E2  101A               	iorwf	(_atoi$1415+1)^0,w,c
  9837  0034E4  A4D8               	btfss	status,2,c
  9838  0034E6  EF77  F01A         	goto	u5281
  9839  0034EA  EF79  F01A         	goto	u5280
  9840  0034EE                     u5281:
  9841  0034EE  EF3E  F01A         	goto	l4506
  9842  0034F2                     u5280:
  9843  0034F2  EF83  F01A         	goto	l4526
  9844  0034F6                     l4522:
  9845  0034F6  0E00               	movlw	0
  9846  0034F8  6E18               	movwf	(atoi@neg+1)^0,c
  9847  0034FA  0E01               	movlw	1
  9848  0034FC  6E17               	movwf	atoi@neg^0,c
  9849  0034FE                     l4524:
  9850  0034FE  4A11               	infsnz	atoi@s^0,f,c
  9851  003500  2A12               	incf	(atoi@s+1)^0,f,c
  9852  003502  EFB8  F01A         	goto	l4532
  9853  003506                     l4526:
  9854  003506  C011  FFF6         	movff	atoi@s,tblptrl
  9855  00350A  C012  FFF7         	movff	atoi@s+1,tblptrh
  9856  00350E                     	if	0	;tblptru may be non-zero
  9857  00350E                     	endif
  9858  00350E                     	if	0	;tblptru may be non-zero
  9859  00350E                     	endif
  9860  00350E  0008               	tblrd		*
  9861  003510  50F5               	movf	tablat,w,c
  9862  003512  6E13               	movwf	??_atoi^0,c
  9863  003514  6A14               	clrf	(??_atoi+1)^0,c
  9864                           
  9865                           ; Switch on 2 bytes has been partitioned into a top level switch of size 1, and 1 sub-sw
      +                          itches
  9866                           ; Switch size 1, requested type "simple"
  9867                           ; Number of cases is 1, Range of values is 0 to 0
  9868                           ; switch strategies available:
  9869                           ; Name         Instructions Cycles
  9870                           ; simple_byte            4     3 (average)
  9871                           ;	Chosen strategy is simple_byte
  9872  003516  5014               	movf	(??_atoi+1)^0,w,c
  9873  003518  0A00               	xorlw	0	; case 0
  9874  00351A  B4D8               	btfsc	status,2,c
  9875  00351C  EF92  F01A         	goto	l6074
  9876  003520  EFB8  F01A         	goto	l4532
  9877  003524                     l6074:
  9878                           
  9879                           ; Switch size 1, requested type "simple"
  9880                           ; Number of cases is 2, Range of values is 43 to 45
  9881                           ; switch strategies available:
  9882                           ; Name         Instructions Cycles
  9883                           ; simple_byte            7     4 (average)
  9884                           ;	Chosen strategy is simple_byte
  9885  003524  5013               	movf	??_atoi^0,w,c
  9886  003526  0A2B               	xorlw	43	; case 43
  9887  003528  B4D8               	btfsc	status,2,c
  9888  00352A  EF7F  F01A         	goto	l4524
  9889  00352E  0A06               	xorlw	6	; case 45
  9890  003530  B4D8               	btfsc	status,2,c
  9891  003532  EF7B  F01A         	goto	l4522
  9892  003536  EFB8  F01A         	goto	l4532
  9893  00353A                     l4528:
  9894  00353A  C01E  F00A         	movff	atoi@n,___wmul@multiplier
  9895  00353E  C01F  F00B         	movff	atoi@n+1,___wmul@multiplier+1
  9896  003542  0E00               	movlw	0
  9897  003544  6E0D               	movwf	(___wmul@multiplicand+1)^0,c
  9898  003546  0E0A               	movlw	10
  9899  003548  6E0C               	movwf	___wmul@multiplicand^0,c
  9900  00354A  EC74  F023         	call	___wmul	;wreg free
  9901  00354E  C011  FFF6         	movff	atoi@s,tblptrl
  9902  003552  C012  FFF7         	movff	atoi@s+1,tblptrh
  9903  003556                     	if	0	;tblptru may be non-zero
  9904  003556                     	endif
  9905  003556                     	if	0	;tblptru may be non-zero
  9906  003556                     	endif
  9907  003556  0008               	tblrd		*
  9908  003558  50F5               	movf	tablat,w,c
  9909  00355A  5E0A               	subwf	?___wmul^0,f,c
  9910  00355C  0E00               	movlw	0
  9911  00355E  5A0B               	subwfb	(?___wmul+1)^0,f,c
  9912  003560  0E30               	movlw	48
  9913  003562  240A               	addwf	?___wmul^0,w,c
  9914  003564  6E1E               	movwf	atoi@n^0,c
  9915  003566  0E00               	movlw	0
  9916  003568  200B               	addwfc	(?___wmul+1)^0,w,c
  9917  00356A  6E1F               	movwf	(atoi@n+1)^0,c
  9918  00356C  EF7F  F01A         	goto	l4524
  9919  003570                     l4532:
  9920  003570  0ED0               	movlw	208
  9921  003572  6E13               	movwf	??_atoi^0,c
  9922  003574  0EFF               	movlw	255
  9923  003576  6E14               	movwf	(??_atoi+1)^0,c
  9924  003578  C011  FFF6         	movff	atoi@s,tblptrl
  9925  00357C  C012  FFF7         	movff	atoi@s+1,tblptrh
  9926  003580                     	if	0	;tblptru may be non-zero
  9927  003580                     	endif
  9928  003580                     	if	0	;tblptru may be non-zero
  9929  003580                     	endif
  9930  003580  0008               	tblrd		*
  9931  003582  50F5               	movf	tablat,w,c
  9932  003584  6E15               	movwf	(??_atoi+2)^0,c
  9933  003586  6A16               	clrf	(??_atoi+3)^0,c
  9934  003588  5013               	movf	??_atoi^0,w,c
  9935  00358A  2615               	addwf	(??_atoi+2)^0,f,c
  9936  00358C  5014               	movf	(??_atoi+1)^0,w,c
  9937  00358E  2216               	addwfc	(??_atoi+3)^0,f,c
  9938  003590  5016               	movf	(??_atoi+3)^0,w,c
  9939  003592  E10A               	bnz	u5290
  9940  003594  0E0A               	movlw	10
  9941  003596  5C15               	subwf	(??_atoi+2)^0,w,c
  9942  003598  A0D8               	btfss	status,0,c
  9943  00359A  EFD1  F01A         	goto	u5291
  9944  00359E  EFD4  F01A         	goto	u5290
  9945  0035A2                     u5291:
  9946  0035A2  0E01               	movlw	1
  9947  0035A4  EFD5  F01A         	goto	u5300
  9948  0035A8                     u5290:
  9949  0035A8  0E00               	movlw	0
  9950  0035AA                     u5300:
  9951  0035AA  6E1B               	movwf	_atoi$1417^0,c
  9952  0035AC  6A1C               	clrf	(_atoi$1417+1)^0,c
  9953  0035AE  501B               	movf	_atoi$1417^0,w,c
  9954  0035B0  101C               	iorwf	(_atoi$1417+1)^0,w,c
  9955  0035B2  A4D8               	btfss	status,2,c
  9956  0035B4  EFDE  F01A         	goto	u5311
  9957  0035B8  EFE0  F01A         	goto	u5310
  9958  0035BC                     u5311:
  9959  0035BC  EF9D  F01A         	goto	l4528
  9960  0035C0                     u5310:
  9961  0035C0  5017               	movf	atoi@neg^0,w,c
  9962  0035C2  1018               	iorwf	(atoi@neg+1)^0,w,c
  9963  0035C4  A4D8               	btfss	status,2,c
  9964  0035C6  EFE7  F01A         	goto	u5321
  9965  0035CA  EFE9  F01A         	goto	u5320
  9966  0035CE                     u5321:
  9967  0035CE  EFF7  F01A         	goto	l1144
  9968  0035D2                     u5320:
  9969  0035D2  C01E  F013         	movff	atoi@n,??_atoi
  9970  0035D6  C01F  F014         	movff	atoi@n+1,??_atoi+1
  9971  0035DA  1E13               	comf	??_atoi^0,f,c
  9972  0035DC  1E14               	comf	(??_atoi+1)^0,f,c
  9973  0035DE  4A13               	infsnz	??_atoi^0,f,c
  9974  0035E0  2A14               	incf	(??_atoi+1)^0,f,c
  9975  0035E2  C013  F011         	movff	??_atoi,?_atoi
  9976  0035E6  C014  F012         	movff	??_atoi+1,?_atoi+1
  9977  0035EA  EFFB  F01A         	goto	l1147
  9978  0035EE                     l1144:
  9979  0035EE  C01E  F011         	movff	atoi@n,?_atoi
  9980  0035F2  C01F  F012         	movff	atoi@n+1,?_atoi+1
  9981  0035F6                     l1147:
  9982  0035F6  0012               	return		;funcret
  9983  0035F8                     __end_of_atoi:
  9984                           	callstack 0
  9985                           
  9986 ;; *************** function _isspace *****************
  9987 ;; Defined at:
  9988 ;;		line 5 in file "E:\MPLAB\xc8\pic\sources\c99\common\isspace.c"
  9989 ;; Parameters:    Size  Location     Type
  9990 ;;  c               2    9[COMRAM] int 
  9991 ;; Auto vars:     Size  Location     Type
  9992 ;;		None
  9993 ;; Return value:  Size  Location     Type
  9994 ;;                  2    9[COMRAM] int 
  9995 ;; Registers used:
  9996 ;;		wreg, status,2, status,0
  9997 ;; Tracked objects:
  9998 ;;		On entry : 0/0
  9999 ;;		On exit  : 0/0
 10000 ;;		Unchanged: 0/0
 10001 ;; Data sizes:     COMRAM   BANK0   BANK1   BANK2   BANK3   BANK4   BANK5   BANK6   BANK7
 10002 ;;      Params:         2       0       0       0       0       0       0       0       0
 10003 ;;      Locals:         1       0       0       0       0       0       0       0       0
 10004 ;;      Temps:          4       0       0       0       0       0       0       0       0
 10005 ;;      Totals:         7       0       0       0       0       0       0       0       0
 10006 ;;Total ram usage:        7 bytes
 10007 ;; Hardware stack levels used:    1
 10008 ;; Hardware stack levels required when called:    2
 10009 ;; This function calls:
 10010 ;;		Nothing
 10011 ;; This function is called by:
 10012 ;;		_atoi
 10013 ;; This function uses a non-reentrant model
 10014 ;;
 10015                           
 10016                           	psect	text32
 10017  00439A                     __ptext32:
 10018                           	callstack 0
 10019  00439A                     _isspace:
 10020                           	callstack 24
 10021  00439A  0E01               	movlw	1
 10022  00439C  6E10               	movwf	_isspace$1446^0,c
 10023  00439E  0E20               	movlw	32
 10024  0043A0  180A               	xorwf	isspace@c^0,w,c
 10025  0043A2  100B               	iorwf	(isspace@c+1)^0,w,c
 10026  0043A4  B4D8               	btfsc	status,2,c
 10027  0043A6  EFD7  F021         	goto	u4571
 10028  0043AA  EFD9  F021         	goto	u4570
 10029  0043AE                     u4571:
 10030  0043AE  EFF2  F021         	goto	l4140
 10031  0043B2                     u4570:
 10032  0043B2  0EF7               	movlw	247
 10033  0043B4  6E0C               	movwf	??_isspace^0,c
 10034  0043B6  0EFF               	movlw	255
 10035  0043B8  6E0D               	movwf	(??_isspace+1)^0,c
 10036  0043BA  C00A  F00E         	movff	isspace@c,??_isspace+2
 10037  0043BE  C00B  F00F         	movff	isspace@c+1,??_isspace+3
 10038  0043C2  500C               	movf	??_isspace^0,w,c
 10039  0043C4  260E               	addwf	(??_isspace+2)^0,f,c
 10040  0043C6  500D               	movf	(??_isspace+1)^0,w,c
 10041  0043C8  220F               	addwfc	(??_isspace+3)^0,f,c
 10042  0043CA  500F               	movf	(??_isspace+3)^0,w,c
 10043  0043CC  E109               	bnz	u4580
 10044  0043CE  0E05               	movlw	5
 10045  0043D0  5C0E               	subwf	(??_isspace+2)^0,w,c
 10046  0043D2  A0D8               	btfss	status,0,c
 10047  0043D4  EFEE  F021         	goto	u4581
 10048  0043D8  EFF0  F021         	goto	u4580
 10049  0043DC                     u4581:
 10050  0043DC  EFF2  F021         	goto	l4140
 10051  0043E0                     u4580:
 10052  0043E0  0E00               	movlw	0
 10053  0043E2  6E10               	movwf	_isspace$1446^0,c
 10054  0043E4                     l4140:
 10055  0043E4  C010  F00A         	movff	_isspace$1446,?_isspace
 10056  0043E8  6A0B               	clrf	(?_isspace+1)^0,c
 10057  0043EA  0012               	return		;funcret
 10058  0043EC                     __end_of_isspace:
 10059                           	callstack 0
 10060                           
 10061 ;; *************** function _isdigit *****************
 10062 ;; Defined at:
 10063 ;;		line 5 in file "E:\MPLAB\xc8\pic\sources\c99\common\isdigit.c"
 10064 ;; Parameters:    Size  Location     Type
 10065 ;;  c               2    9[COMRAM] int 
 10066 ;; Auto vars:     Size  Location     Type
 10067 ;;		None
 10068 ;; Return value:  Size  Location     Type
 10069 ;;                  2    9[COMRAM] int 
 10070 ;; Registers used:
 10071 ;;		wreg, status,2, status,0
 10072 ;; Tracked objects:
 10073 ;;		On entry : 0/0
 10074 ;;		On exit  : 0/0
 10075 ;;		Unchanged: 0/0
 10076 ;; Data sizes:     COMRAM   BANK0   BANK1   BANK2   BANK3   BANK4   BANK5   BANK6   BANK7
 10077 ;;      Params:         2       0       0       0       0       0       0       0       0
 10078 ;;      Locals:         0       0       0       0       0       0       0       0       0
 10079 ;;      Temps:          4       0       0       0       0       0       0       0       0
 10080 ;;      Totals:         6       0       0       0       0       0       0       0       0
 10081 ;;Total ram usage:        6 bytes
 10082 ;; Hardware stack levels used:    1
 10083 ;; Hardware stack levels required when called:    2
 10084 ;; This function calls:
 10085 ;;		Nothing
 10086 ;; This function is called by:
 10087 ;;		_vfpfcnvrt
 10088 ;;		_atoi
 10089 ;; This function uses a non-reentrant model
 10090 ;;
 10091                           
 10092                           	psect	text33
 10093  004628                     __ptext33:
 10094                           	callstack 0
 10095  004628                     _isdigit:
 10096                           	callstack 25
 10097  004628  0ED0               	movlw	208
 10098  00462A  6E0C               	movwf	??_isdigit^0,c
 10099  00462C  0EFF               	movlw	255
 10100  00462E  6E0D               	movwf	(??_isdigit+1)^0,c
 10101  004630  C00A  F00E         	movff	isdigit@c,??_isdigit+2
 10102  004634  C00B  F00F         	movff	isdigit@c+1,??_isdigit+3
 10103  004638  500C               	movf	??_isdigit^0,w,c
 10104  00463A  260E               	addwf	(??_isdigit+2)^0,f,c
 10105  00463C  500D               	movf	(??_isdigit+1)^0,w,c
 10106  00463E  220F               	addwfc	(??_isdigit+3)^0,f,c
 10107  004640  500F               	movf	(??_isdigit+3)^0,w,c
 10108  004642  E10A               	bnz	u4550
 10109  004644  0E0A               	movlw	10
 10110  004646  5C0E               	subwf	(??_isdigit+2)^0,w,c
 10111  004648  A0D8               	btfss	status,0,c
 10112  00464A  EF29  F023         	goto	u4551
 10113  00464E  EF2C  F023         	goto	u4550
 10114  004652                     u4551:
 10115  004652  0E01               	movlw	1
 10116  004654  EF2D  F023         	goto	u4560
 10117  004658                     u4550:
 10118  004658  0E00               	movlw	0
 10119  00465A                     u4560:
 10120  00465A  6E0A               	movwf	?_isdigit^0,c
 10121  00465C  6A0B               	clrf	(?_isdigit+1)^0,c
 10122  00465E  0012               	return		;funcret
 10123  004660                     __end_of_isdigit:
 10124                           	callstack 0
 10125                           
 10126 ;; *************** function ___wmul *****************
 10127 ;; Defined at:
 10128 ;;		line 15 in file "E:\MPLAB\xc8\pic\sources\c99\common\Umul16.c"
 10129 ;; Parameters:    Size  Location     Type
 10130 ;;  multiplier      2    9[COMRAM] unsigned int 
 10131 ;;  multiplicand    2   11[COMRAM] unsigned int 
 10132 ;; Auto vars:     Size  Location     Type
 10133 ;;  product         2   13[COMRAM] unsigned int 
 10134 ;; Return value:  Size  Location     Type
 10135 ;;                  2    9[COMRAM] unsigned int 
 10136 ;; Registers used:
 10137 ;;		wreg, status,2, status,0, prodl, prodh
 10138 ;; Tracked objects:
 10139 ;;		On entry : 0/0
 10140 ;;		On exit  : 0/0
 10141 ;;		Unchanged: 0/0
 10142 ;; Data sizes:     COMRAM   BANK0   BANK1   BANK2   BANK3   BANK4   BANK5   BANK6   BANK7
 10143 ;;      Params:         4       0       0       0       0       0       0       0       0
 10144 ;;      Locals:         2       0       0       0       0       0       0       0       0
 10145 ;;      Temps:          0       0       0       0       0       0       0       0       0
 10146 ;;      Totals:         6       0       0       0       0       0       0       0       0
 10147 ;;Total ram usage:        6 bytes
 10148 ;; Hardware stack levels used:    1
 10149 ;; Hardware stack levels required when called:    2
 10150 ;; This function calls:
 10151 ;;		Nothing
 10152 ;; This function is called by:
 10153 ;;		_atoi
 10154 ;; This function uses a non-reentrant model
 10155 ;;
 10156                           
 10157                           	psect	text34
 10158  0046E8                     __ptext34:
 10159                           	callstack 0
 10160  0046E8                     ___wmul:
 10161                           	callstack 24
 10162  0046E8  500A               	movf	___wmul@multiplier^0,w,c
 10163  0046EA  020C               	mulwf	___wmul@multiplicand^0,c
 10164  0046EC  CFF3 F00E          	movff	prodl,___wmul@product
 10165  0046F0  CFF4 F00F          	movff	prodh,___wmul@product+1
 10166  0046F4  500A               	movf	___wmul@multiplier^0,w,c
 10167  0046F6  020D               	mulwf	(___wmul@multiplicand+1)^0,c
 10168  0046F8  50F3               	movf	243,w,c
 10169  0046FA  260F               	addwf	(___wmul@product+1)^0,f,c
 10170  0046FC  500B               	movf	(___wmul@multiplier+1)^0,w,c
 10171  0046FE  020C               	mulwf	___wmul@multiplicand^0,c
 10172  004700  50F3               	movf	243,w,c
 10173  004702  260F               	addwf	(___wmul@product+1)^0,f,c
 10174  004704  C00E  F00A         	movff	___wmul@product,?___wmul
 10175  004708  C00F  F00B         	movff	___wmul@product+1,?___wmul+1
 10176  00470C  0012               	return		;funcret
 10177  00470E                     __end_of___wmul:
 10178                           	callstack 0
 10179                           
 10180 ;; *************** function _putrsXLCD *****************
 10181 ;; Defined at:
 10182 ;;		line 533 in file "nxlcd.c"
 10183 ;; Parameters:    Size  Location     Type
 10184 ;;  buffer          2   10[COMRAM] PTR const unsigned char 
 10185 ;;		 -> STR_18(2), STR_17(9), STR_16(9), STR_14(16), 
 10186 ;;		 -> main@calculando(16), STR_12(15), main@valorPorMes(10), main@valorPorHora(10), 
 10187 ;;		 -> STR_1(14), 
 10188 ;; Auto vars:     Size  Location     Type
 10189 ;;		None
 10190 ;; Return value:  Size  Location     Type
 10191 ;;                  1    wreg      void 
 10192 ;; Registers used:
 10193 ;;		wreg, fsr1l, fsr1h, status,2, status,0, tblptrl, tblptrh, tblptru, cstack
 10194 ;; Tracked objects:
 10195 ;;		On entry : 0/0
 10196 ;;		On exit  : 0/0
 10197 ;;		Unchanged: 0/0
 10198 ;; Data sizes:     COMRAM   BANK0   BANK1   BANK2   BANK3   BANK4   BANK5   BANK6   BANK7
 10199 ;;      Params:         2       0       0       0       0       0       0       0       0
 10200 ;;      Locals:         0       0       0       0       0       0       0       0       0
 10201 ;;      Temps:          0       0       0       0       0       0       0       0       0
 10202 ;;      Totals:         2       0       0       0       0       0       0       0       0
 10203 ;;Total ram usage:        2 bytes
 10204 ;; Hardware stack levels used:    1
 10205 ;; Hardware stack levels required when called:    4
 10206 ;; This function calls:
 10207 ;;		_BusyXLCD
 10208 ;;		_WriteDataXLCD
 10209 ;; This function is called by:
 10210 ;;		_main
 10211 ;; This function uses a non-reentrant model
 10212 ;;
 10213                           
 10214                           	psect	text35
 10215  00415A                     __ptext35:
 10216                           	callstack 0
 10217  00415A                     _putrsXLCD:
 10218                           	callstack 26
 10219  00415A                     
 10220                           ;nxlcd.c: 533: void putrsXLCD(const char *buffer);nxlcd.c: 534: {;nxlcd.c: 535:         
      +                          while(*buffer)
 10221  00415A  EFCD  F020         	goto	l4854
 10222  00415E                     l4848:
 10223  00415E  EC19  F022         	call	_BusyXLCD	;wreg free
 10224  004162  0900               	iorlw	0
 10225  004164  A4D8               	btfss	status,2,c
 10226  004166  EFB7  F020         	goto	u5631
 10227  00416A  EFB9  F020         	goto	u5630
 10228  00416E                     u5631:
 10229  00416E  EFAF  F020         	goto	l4848
 10230  004172                     u5630:
 10231  004172                     
 10232                           ;nxlcd.c: 538:                 WriteDataXLCD(*buffer);
 10233  004172  C00B  FFF6         	movff	putrsXLCD@buffer,tblptrl
 10234  004176  C00C  FFF7         	movff	putrsXLCD@buffer+1,tblptrh
 10235  00417A  6AF8               	clrf	tblptru,c
 10236  00417C  0E07               	movlw	(high __ramtop+-1)
 10237  00417E  64F7               	cpfsgt	tblptrh,c
 10238  004180  D003               	bra	u5647
 10239  004182  0008               	tblrd		*
 10240  004184  50F5               	movf	tablat,w,c
 10241  004186  D005               	bra	u5640
 10242  004188                     u5647:
 10243  004188  CFF6 FFE1          	movff	tblptrl,fsr1l
 10244  00418C  CFF7 FFE2          	movff	tblptrh,fsr1h
 10245  004190  50E7               	movf	indf1,w,c
 10246  004192                     u5640:
 10247  004192  EC9E  F022         	call	_WriteDataXLCD
 10248  004196                     
 10249                           ;nxlcd.c: 539:                 buffer++;
 10250  004196  4A0B               	infsnz	putrsXLCD@buffer^0,f,c
 10251  004198  2A0C               	incf	(putrsXLCD@buffer+1)^0,f,c
 10252  00419A                     l4854:
 10253                           
 10254                           ;nxlcd.c: 535:         while(*buffer)
 10255  00419A  C00B  FFF6         	movff	putrsXLCD@buffer,tblptrl
 10256  00419E  C00C  FFF7         	movff	putrsXLCD@buffer+1,tblptrh
 10257  0041A2  6AF8               	clrf	tblptru,c
 10258  0041A4  0E07               	movlw	(high __ramtop+-1)
 10259  0041A6  64F7               	cpfsgt	tblptrh,c
 10260  0041A8  D003               	bra	u5657
 10261  0041AA  0008               	tblrd		*
 10262  0041AC  50F5               	movf	tablat,w,c
 10263  0041AE  D005               	bra	u5650
 10264  0041B0                     u5657:
 10265  0041B0  CFF6 FFE1          	movff	tblptrl,fsr1l
 10266  0041B4  CFF7 FFE2          	movff	tblptrh,fsr1h
 10267  0041B8  50E7               	movf	indf1,w,c
 10268  0041BA                     u5650:
 10269  0041BA  0900               	iorlw	0
 10270  0041BC  A4D8               	btfss	status,2,c
 10271  0041BE  EFE3  F020         	goto	u5661
 10272  0041C2  EFE5  F020         	goto	u5660
 10273  0041C6                     u5661:
 10274  0041C6  EFAF  F020         	goto	l4848
 10275  0041CA                     u5660:
 10276  0041CA  0012               	return		;funcret
 10277  0041CC                     __end_of_putrsXLCD:
 10278                           	callstack 0
 10279                           
 10280 ;; *************** function _WriteDataXLCD *****************
 10281 ;; Defined at:
 10282 ;;		line 449 in file "nxlcd.c"
 10283 ;; Parameters:    Size  Location     Type
 10284 ;;  data            1    wreg     unsigned char 
 10285 ;; Auto vars:     Size  Location     Type
 10286 ;;  data            1    9[COMRAM] unsigned char 
 10287 ;; Return value:  Size  Location     Type
 10288 ;;                  1    wreg      void 
 10289 ;; Registers used:
 10290 ;;		wreg, status,2, status,0, cstack
 10291 ;; Tracked objects:
 10292 ;;		On entry : 0/0
 10293 ;;		On exit  : 0/0
 10294 ;;		Unchanged: 0/0
 10295 ;; Data sizes:     COMRAM   BANK0   BANK1   BANK2   BANK3   BANK4   BANK5   BANK6   BANK7
 10296 ;;      Params:         0       0       0       0       0       0       0       0       0
 10297 ;;      Locals:         1       0       0       0       0       0       0       0       0
 10298 ;;      Temps:          0       0       0       0       0       0       0       0       0
 10299 ;;      Totals:         1       0       0       0       0       0       0       0       0
 10300 ;;Total ram usage:        1 bytes
 10301 ;; Hardware stack levels used:    1
 10302 ;; Hardware stack levels required when called:    3
 10303 ;; This function calls:
 10304 ;;		_DelayFor18TCY
 10305 ;; This function is called by:
 10306 ;;		_putrsXLCD
 10307 ;;		_putsXLCD
 10308 ;; This function uses a non-reentrant model
 10309 ;;
 10310                           
 10311                           	psect	text36
 10312  00453C                     __ptext36:
 10313                           	callstack 0
 10314  00453C                     _WriteDataXLCD:
 10315                           	callstack 26
 10316                           
 10317                           ;incstack = 0
 10318                           ;WriteDataXLCD@data stored from wreg
 10319  00453C  6E0A               	movwf	WriteDataXLCD@data^0,c
 10320  00453E                     
 10321                           ;nxlcd.c: 449: void WriteDataXLCD(char data);nxlcd.c: 450: {;nxlcd.c: 464:         TRISD
      +                           &= 0x0f;
 10322  00453E  0E0F               	movlw	15
 10323  004540  1695               	andwf	149,f,c	;volatile
 10324                           
 10325                           ;nxlcd.c: 465:         PORTD &= 0x0f;
 10326  004542  0E0F               	movlw	15
 10327  004544  1683               	andwf	131,f,c	;volatile
 10328                           
 10329                           ;nxlcd.c: 466:         PORTD |= data&0xf0;
 10330  004546  500A               	movf	WriteDataXLCD@data^0,w,c
 10331  004548  0BF0               	andlw	240
 10332  00454A  1283               	iorwf	131,f,c	;volatile
 10333  00454C                     
 10334                           ;nxlcd.c: 472:         LATEbits.LATE0 = 1;
 10335  00454C  808D               	bsf	141,0,c	;volatile
 10336  00454E                     
 10337                           ;nxlcd.c: 473:         LATBbits.LATB1 = 0;
 10338  00454E  928A               	bcf	138,1,c	;volatile
 10339  004550                     
 10340                           ;nxlcd.c: 474:         DelayFor18TCY();
 10341  004550  ECA1  F023         	call	_DelayFor18TCY	;wreg free
 10342  004554                     
 10343                           ;nxlcd.c: 475:         LATEbits.LATE1 = 1;
 10344  004554  828D               	bsf	141,1,c	;volatile
 10345  004556                     
 10346                           ;nxlcd.c: 476:         DelayFor18TCY();
 10347  004556  ECA1  F023         	call	_DelayFor18TCY	;wreg free
 10348  00455A                     
 10349                           ;nxlcd.c: 477:         LATEbits.LATE1 = 0;
 10350  00455A  928D               	bcf	141,1,c	;volatile
 10351                           
 10352                           ;nxlcd.c: 479:         PORTD &= 0x0f;
 10353  00455C  0E0F               	movlw	15
 10354  00455E  1683               	andwf	131,f,c	;volatile
 10355                           
 10356                           ;nxlcd.c: 480:         PORTD |= ((data<<4)&0xf0);
 10357  004560  380A               	swapf	WriteDataXLCD@data^0,w,c
 10358  004562  0BF0               	andlw	240
 10359  004564  0BF0               	andlw	240
 10360  004566  1283               	iorwf	131,f,c	;volatile
 10361  004568                     
 10362                           ;nxlcd.c: 485:         DelayFor18TCY();
 10363  004568  ECA1  F023         	call	_DelayFor18TCY	;wreg free
 10364  00456C                     
 10365                           ;nxlcd.c: 486:         LATEbits.LATE1 = 1;
 10366  00456C  828D               	bsf	141,1,c	;volatile
 10367  00456E                     
 10368                           ;nxlcd.c: 487:         DelayFor18TCY();
 10369  00456E  ECA1  F023         	call	_DelayFor18TCY	;wreg free
 10370  004572                     
 10371                           ;nxlcd.c: 488:         LATEbits.LATE1 = 0;
 10372  004572  928D               	bcf	141,1,c	;volatile
 10373                           
 10374                           ;nxlcd.c: 490:         TRISD |= 0xf0;
 10375  004574  0EF0               	movlw	240
 10376  004576  1295               	iorwf	149,f,c	;volatile
 10377  004578  0012               	return		;funcret
 10378  00457A                     __end_of_WriteDataXLCD:
 10379                           	callstack 0
 10380                           
 10381 ;; *************** function ___xxtofl *****************
 10382 ;; Defined at:
 10383 ;;		line 10 in file "E:\MPLAB\xc8\pic\sources\c99\common\xxtofl.c"
 10384 ;; Parameters:    Size  Location     Type
 10385 ;;  sign            1    wreg     unsigned char 
 10386 ;;  val             4    9[COMRAM] long 
 10387 ;; Auto vars:     Size  Location     Type
 10388 ;;  sign            1   17[COMRAM] unsigned char 
 10389 ;;  arg             4   19[COMRAM] unsigned long 
 10390 ;;  exp             1   18[COMRAM] unsigned char 
 10391 ;; Return value:  Size  Location     Type
 10392 ;;                  4    9[COMRAM] unsigned char 
 10393 ;; Registers used:
 10394 ;;		wreg, status,2, status,0
 10395 ;; Tracked objects:
 10396 ;;		On entry : 0/0
 10397 ;;		On exit  : 0/0
 10398 ;;		Unchanged: 0/0
 10399 ;; Data sizes:     COMRAM   BANK0   BANK1   BANK2   BANK3   BANK4   BANK5   BANK6   BANK7
 10400 ;;      Params:         4       0       0       0       0       0       0       0       0
 10401 ;;      Locals:         6       0       0       0       0       0       0       0       0
 10402 ;;      Temps:          4       0       0       0       0       0       0       0       0
 10403 ;;      Totals:        14       0       0       0       0       0       0       0       0
 10404 ;;Total ram usage:       14 bytes
 10405 ;; Hardware stack levels used:    1
 10406 ;; Hardware stack levels required when called:    2
 10407 ;; This function calls:
 10408 ;;		Nothing
 10409 ;; This function is called by:
 10410 ;;		_main
 10411 ;; This function uses a non-reentrant model
 10412 ;;
 10413                           
 10414                           	psect	text37
 10415  0032B4                     __ptext37:
 10416                           	callstack 0
 10417  0032B4                     ___xxtofl:
 10418                           	callstack 28
 10419                           
 10420                           ;incstack = 0
 10421                           ;___xxtofl@sign stored from wreg
 10422  0032B4  6E12               	movwf	___xxtofl@sign^0,c
 10423  0032B6  5012               	movf	___xxtofl@sign^0,w,c
 10424  0032B8  B4D8               	btfsc	status,2,c
 10425  0032BA  EF61  F019         	goto	u5681
 10426  0032BE  EF63  F019         	goto	u5680
 10427  0032C2                     u5681:
 10428  0032C2  EF85  F019         	goto	l876
 10429  0032C6                     u5680:
 10430  0032C6  BE0D               	btfsc	(___xxtofl@val+3)^0,7,c
 10431  0032C8  EF6A  F019         	goto	u5690
 10432  0032CC  EF68  F019         	goto	u5691
 10433  0032D0                     u5691:
 10434  0032D0  EF85  F019         	goto	l876
 10435  0032D4                     u5690:
 10436  0032D4  C00A  F00E         	movff	___xxtofl@val,??___xxtofl
 10437  0032D8  C00B  F00F         	movff	___xxtofl@val+1,??___xxtofl+1
 10438  0032DC  C00C  F010         	movff	___xxtofl@val+2,??___xxtofl+2
 10439  0032E0  C00D  F011         	movff	___xxtofl@val+3,??___xxtofl+3
 10440  0032E4  1E0E               	comf	??___xxtofl^0,f,c
 10441  0032E6  1E0F               	comf	(??___xxtofl+1)^0,f,c
 10442  0032E8  1E10               	comf	(??___xxtofl+2)^0,f,c
 10443  0032EA  1E11               	comf	(??___xxtofl+3)^0,f,c
 10444  0032EC  2A0E               	incf	??___xxtofl^0,f,c
 10445  0032EE  0E00               	movlw	0
 10446  0032F0  220F               	addwfc	(??___xxtofl+1)^0,f,c
 10447  0032F2  2210               	addwfc	(??___xxtofl+2)^0,f,c
 10448  0032F4  2211               	addwfc	(??___xxtofl+3)^0,f,c
 10449  0032F6  C00E  F014         	movff	??___xxtofl,___xxtofl@arg
 10450  0032FA  C00F  F015         	movff	??___xxtofl+1,___xxtofl@arg+1
 10451  0032FE  C010  F016         	movff	??___xxtofl+2,___xxtofl@arg+2
 10452  003302  C011  F017         	movff	??___xxtofl+3,___xxtofl@arg+3
 10453  003306  EF8D  F019         	goto	l4892
 10454  00330A                     l876:
 10455  00330A  C00A  F014         	movff	___xxtofl@val,___xxtofl@arg
 10456  00330E  C00B  F015         	movff	___xxtofl@val+1,___xxtofl@arg+1
 10457  003312  C00C  F016         	movff	___xxtofl@val+2,___xxtofl@arg+2
 10458  003316  C00D  F017         	movff	___xxtofl@val+3,___xxtofl@arg+3
 10459  00331A                     l4892:
 10460  00331A  500A               	movf	___xxtofl@val^0,w,c
 10461  00331C  100B               	iorwf	(___xxtofl@val+1)^0,w,c
 10462  00331E  100C               	iorwf	(___xxtofl@val+2)^0,w,c
 10463  003320  100D               	iorwf	(___xxtofl@val+3)^0,w,c
 10464  003322  A4D8               	btfss	status,2,c
 10465  003324  EF96  F019         	goto	u5701
 10466  003328  EF98  F019         	goto	u5700
 10467  00332C                     u5701:
 10468  00332C  EFA2  F019         	goto	l4898
 10469  003330                     u5700:
 10470  003330  0E00               	movlw	0
 10471  003332  6E0A               	movwf	?___xxtofl^0,c
 10472  003334  0E00               	movlw	0
 10473  003336  6E0B               	movwf	(?___xxtofl+1)^0,c
 10474  003338  0E00               	movlw	0
 10475  00333A  6E0C               	movwf	(?___xxtofl+2)^0,c
 10476  00333C  0E00               	movlw	0
 10477  00333E  6E0D               	movwf	(?___xxtofl+3)^0,c
 10478  003340  EF33  F01A         	goto	l879
 10479  003344                     l4898:
 10480  003344  0E96               	movlw	150
 10481  003346  6E13               	movwf	___xxtofl@exp^0,c
 10482  003348  EFAC  F019         	goto	l4902
 10483  00334C                     l4900:
 10484  00334C  2A13               	incf	___xxtofl@exp^0,f,c
 10485  00334E  90D8               	bcf	status,0,c
 10486  003350  3217               	rrcf	(___xxtofl@arg+3)^0,f,c
 10487  003352  3216               	rrcf	(___xxtofl@arg+2)^0,f,c
 10488  003354  3215               	rrcf	(___xxtofl@arg+1)^0,f,c
 10489  003356  3214               	rrcf	___xxtofl@arg^0,f,c
 10490  003358                     l4902:
 10491  003358  0E00               	movlw	0
 10492  00335A  1414               	andwf	___xxtofl@arg^0,w,c
 10493  00335C  6E0E               	movwf	??___xxtofl^0,c
 10494  00335E  0E00               	movlw	0
 10495  003360  1415               	andwf	(___xxtofl@arg+1)^0,w,c
 10496  003362  6E0F               	movwf	(??___xxtofl+1)^0,c
 10497  003364  0E00               	movlw	0
 10498  003366  1416               	andwf	(___xxtofl@arg+2)^0,w,c
 10499  003368  6E10               	movwf	(??___xxtofl+2)^0,c
 10500  00336A  0EFE               	movlw	254
 10501  00336C  1417               	andwf	(___xxtofl@arg+3)^0,w,c
 10502  00336E  6E11               	movwf	(??___xxtofl+3)^0,c
 10503  003370  500E               	movf	??___xxtofl^0,w,c
 10504  003372  100F               	iorwf	(??___xxtofl+1)^0,w,c
 10505  003374  1010               	iorwf	(??___xxtofl+2)^0,w,c
 10506  003376  1011               	iorwf	(??___xxtofl+3)^0,w,c
 10507  003378  A4D8               	btfss	status,2,c
 10508  00337A  EFC1  F019         	goto	u5711
 10509  00337E  EFC3  F019         	goto	u5710
 10510  003382                     u5711:
 10511  003382  EFA6  F019         	goto	l4900
 10512  003386                     u5710:
 10513  003386  EFD1  F019         	goto	l883
 10514  00338A                     l4904:
 10515  00338A  2A13               	incf	___xxtofl@exp^0,f,c
 10516  00338C  0E01               	movlw	1
 10517  00338E  2614               	addwf	___xxtofl@arg^0,f,c
 10518  003390  0E00               	movlw	0
 10519  003392  2215               	addwfc	(___xxtofl@arg+1)^0,f,c
 10520  003394  2216               	addwfc	(___xxtofl@arg+2)^0,f,c
 10521  003396  2217               	addwfc	(___xxtofl@arg+3)^0,f,c
 10522  003398  90D8               	bcf	status,0,c
 10523  00339A  3217               	rrcf	(___xxtofl@arg+3)^0,f,c
 10524  00339C  3216               	rrcf	(___xxtofl@arg+2)^0,f,c
 10525  00339E  3215               	rrcf	(___xxtofl@arg+1)^0,f,c
 10526  0033A0  3214               	rrcf	___xxtofl@arg^0,f,c
 10527  0033A2                     l883:
 10528  0033A2  0E00               	movlw	0
 10529  0033A4  1414               	andwf	___xxtofl@arg^0,w,c
 10530  0033A6  6E0E               	movwf	??___xxtofl^0,c
 10531  0033A8  0E00               	movlw	0
 10532  0033AA  1415               	andwf	(___xxtofl@arg+1)^0,w,c
 10533  0033AC  6E0F               	movwf	(??___xxtofl+1)^0,c
 10534  0033AE  0E00               	movlw	0
 10535  0033B0  1416               	andwf	(___xxtofl@arg+2)^0,w,c
 10536  0033B2  6E10               	movwf	(??___xxtofl+2)^0,c
 10537  0033B4  0EFF               	movlw	255
 10538  0033B6  1417               	andwf	(___xxtofl@arg+3)^0,w,c
 10539  0033B8  6E11               	movwf	(??___xxtofl+3)^0,c
 10540  0033BA  500E               	movf	??___xxtofl^0,w,c
 10541  0033BC  100F               	iorwf	(??___xxtofl+1)^0,w,c
 10542  0033BE  1010               	iorwf	(??___xxtofl+2)^0,w,c
 10543  0033C0  1011               	iorwf	(??___xxtofl+3)^0,w,c
 10544  0033C2  A4D8               	btfss	status,2,c
 10545  0033C4  EFE6  F019         	goto	u5721
 10546  0033C8  EFE8  F019         	goto	u5720
 10547  0033CC                     u5721:
 10548  0033CC  EFC5  F019         	goto	l4904
 10549  0033D0                     u5720:
 10550  0033D0  EFF0  F019         	goto	l4912
 10551  0033D4                     l4910:
 10552  0033D4  0613               	decf	___xxtofl@exp^0,f,c
 10553  0033D6  90D8               	bcf	status,0,c
 10554  0033D8  3614               	rlcf	___xxtofl@arg^0,f,c
 10555  0033DA  3615               	rlcf	(___xxtofl@arg+1)^0,f,c
 10556  0033DC  3616               	rlcf	(___xxtofl@arg+2)^0,f,c
 10557  0033DE  3617               	rlcf	(___xxtofl@arg+3)^0,f,c
 10558  0033E0                     l4912:
 10559  0033E0  BE16               	btfsc	(___xxtofl@arg+2)^0,7,c
 10560  0033E2  EFF5  F019         	goto	u5731
 10561  0033E6  EFF7  F019         	goto	u5730
 10562  0033EA                     u5731:
 10563  0033EA  EFFF  F019         	goto	l890
 10564  0033EE                     u5730:
 10565  0033EE  0E02               	movlw	2
 10566  0033F0  6013               	cpfslt	___xxtofl@exp^0,c
 10567  0033F2  EFFD  F019         	goto	u5741
 10568  0033F6  EFFF  F019         	goto	u5740
 10569  0033FA                     u5741:
 10570  0033FA  EFEA  F019         	goto	l4910
 10571  0033FE                     u5740:
 10572  0033FE                     l890:
 10573  0033FE  B013               	btfsc	___xxtofl@exp^0,0,c
 10574  003400  EF04  F01A         	goto	u5751
 10575  003404  EF06  F01A         	goto	u5750
 10576  003408                     u5751:
 10577  003408  EF07  F01A         	goto	l4918
 10578  00340C                     u5750:
 10579  00340C  9E16               	bcf	(___xxtofl@arg+2)^0,7,c
 10580  00340E                     l4918:
 10581  00340E  90D8               	bcf	status,0,c
 10582  003410  3213               	rrcf	___xxtofl@exp^0,f,c
 10583  003412  C013  F00E         	movff	___xxtofl@exp,??___xxtofl
 10584  003416  6A0F               	clrf	(??___xxtofl+1)^0,c
 10585  003418  6A10               	clrf	(??___xxtofl+2)^0,c
 10586  00341A  6A11               	clrf	(??___xxtofl+3)^0,c
 10587  00341C  C00E  F011         	movff	??___xxtofl,??___xxtofl+3
 10588  003420  6A10               	clrf	(??___xxtofl+2)^0,c
 10589  003422  6A0F               	clrf	(??___xxtofl+1)^0,c
 10590  003424  6A0E               	clrf	??___xxtofl^0,c
 10591  003426  500E               	movf	??___xxtofl^0,w,c
 10592  003428  1214               	iorwf	___xxtofl@arg^0,f,c
 10593  00342A  500F               	movf	(??___xxtofl+1)^0,w,c
 10594  00342C  1215               	iorwf	(___xxtofl@arg+1)^0,f,c
 10595  00342E  5010               	movf	(??___xxtofl+2)^0,w,c
 10596  003430  1216               	iorwf	(___xxtofl@arg+2)^0,f,c
 10597  003432  5011               	movf	(??___xxtofl+3)^0,w,c
 10598  003434  1217               	iorwf	(___xxtofl@arg+3)^0,f,c
 10599  003436  5012               	movf	___xxtofl@sign^0,w,c
 10600  003438  B4D8               	btfsc	status,2,c
 10601  00343A  EF21  F01A         	goto	u5761
 10602  00343E  EF23  F01A         	goto	u5760
 10603  003442                     u5761:
 10604  003442  EF2B  F01A         	goto	l4928
 10605  003446                     u5760:
 10606  003446  BE0D               	btfsc	(___xxtofl@val+3)^0,7,c
 10607  003448  EF2A  F01A         	goto	u5770
 10608  00344C  EF28  F01A         	goto	u5771
 10609  003450                     u5771:
 10610  003450  EF2B  F01A         	goto	l4928
 10611  003454                     u5770:
 10612  003454  8E17               	bsf	(___xxtofl@arg+3)^0,7,c
 10613  003456                     l4928:
 10614  003456  C014  F00A         	movff	___xxtofl@arg,?___xxtofl
 10615  00345A  C015  F00B         	movff	___xxtofl@arg+1,?___xxtofl+1
 10616  00345E  C016  F00C         	movff	___xxtofl@arg+2,?___xxtofl+2
 10617  003462  C017  F00D         	movff	___xxtofl@arg+3,?___xxtofl+3
 10618  003466                     l879:
 10619  003466  0012               	return		;funcret
 10620  003468                     __end_of___xxtofl:
 10621                           	callstack 0
 10622                           
 10623 ;; *************** function _OpenXLCD *****************
 10624 ;; Defined at:
 10625 ;;		line 41 in file "nxlcd.c"
 10626 ;; Parameters:    Size  Location     Type
 10627 ;;  lcdtype         1    wreg     unsigned char 
 10628 ;; Auto vars:     Size  Location     Type
 10629 ;;  lcdtype         1   10[COMRAM] unsigned char 
 10630 ;; Return value:  Size  Location     Type
 10631 ;;                  1    wreg      void 
 10632 ;; Registers used:
 10633 ;;		wreg, status,2, status,0, cstack
 10634 ;; Tracked objects:
 10635 ;;		On entry : 0/0
 10636 ;;		On exit  : 0/0
 10637 ;;		Unchanged: 0/0
 10638 ;; Data sizes:     COMRAM   BANK0   BANK1   BANK2   BANK3   BANK4   BANK5   BANK6   BANK7
 10639 ;;      Params:         0       0       0       0       0       0       0       0       0
 10640 ;;      Locals:         1       0       0       0       0       0       0       0       0
 10641 ;;      Temps:          0       0       0       0       0       0       0       0       0
 10642 ;;      Totals:         1       0       0       0       0       0       0       0       0
 10643 ;;Total ram usage:        1 bytes
 10644 ;; Hardware stack levels used:    1
 10645 ;; Hardware stack levels required when called:    4
 10646 ;; This function calls:
 10647 ;;		_BusyXLCD
 10648 ;;		_DelayPORXLCD
 10649 ;;		_DelayXLCD
 10650 ;;		_SetDDRamAddr
 10651 ;;		_WriteCmdXLCD
 10652 ;; This function is called by:
 10653 ;;		_main
 10654 ;; This function uses a non-reentrant model
 10655 ;;
 10656                           
 10657                           	psect	text38
 10658  003BEC                     __ptext38:
 10659                           	callstack 0
 10660  003BEC                     _OpenXLCD:
 10661                           	callstack 26
 10662                           
 10663                           ;incstack = 0
 10664                           ;OpenXLCD@lcdtype stored from wreg
 10665  003BEC  6E0B               	movwf	OpenXLCD@lcdtype^0,c
 10666  003BEE                     
 10667                           ;nxlcd.c: 41: void OpenXLCD(unsigned char lcdtype);nxlcd.c: 42: {;nxlcd.c: 50:         P
      +                          ORTD &= 0x0f;
 10668  003BEE  0E0F               	movlw	15
 10669  003BF0  1683               	andwf	131,f,c	;volatile
 10670                           
 10671                           ;nxlcd.c: 51:         TRISD &= 0x0F;
 10672  003BF2  0E0F               	movlw	15
 10673  003BF4  1695               	andwf	149,f,c	;volatile
 10674  003BF6                     
 10675                           ;nxlcd.c: 57:         TRISBbits.TRISB1 = 0;
 10676  003BF6  9293               	bcf	147,1,c	;volatile
 10677  003BF8                     
 10678                           ;nxlcd.c: 58:         TRISEbits.TRISE0 = 0;
 10679  003BF8  9096               	bcf	150,0,c	;volatile
 10680  003BFA                     
 10681                           ;nxlcd.c: 59:         TRISEbits.TRISE1 = 0;
 10682  003BFA  9296               	bcf	150,1,c	;volatile
 10683  003BFC                     
 10684                           ;nxlcd.c: 60:         LATBbits.LATB1 = 0;
 10685  003BFC  928A               	bcf	138,1,c	;volatile
 10686  003BFE                     
 10687                           ;nxlcd.c: 61:         LATEbits.LATE0 = 0;
 10688  003BFE  908D               	bcf	141,0,c	;volatile
 10689  003C00                     
 10690                           ;nxlcd.c: 62:         LATEbits.LATE1 = 0;
 10691  003C00  928D               	bcf	141,1,c	;volatile
 10692  003C02                     
 10693                           ;nxlcd.c: 65:         DelayPORXLCD();
 10694  003C02  EC99  F023         	call	_DelayPORXLCD	;wreg free
 10695  003C06                     
 10696                           ;nxlcd.c: 67:    WriteCmdXLCD(0x30);
 10697  003C06  0E30               	movlw	48
 10698  003C08  ECBD  F022         	call	_WriteCmdXLCD
 10699  003C0C                     
 10700                           ;nxlcd.c: 68:    DelayXLCD();
 10701  003C0C  EC87  F023         	call	_DelayXLCD	;wreg free
 10702  003C10                     
 10703                           ;nxlcd.c: 69:    DelayXLCD();
 10704  003C10  EC87  F023         	call	_DelayXLCD	;wreg free
 10705  003C14                     
 10706                           ;nxlcd.c: 70:    WriteCmdXLCD(0x30);
 10707  003C14  0E30               	movlw	48
 10708  003C16  ECBD  F022         	call	_WriteCmdXLCD
 10709  003C1A                     
 10710                           ;nxlcd.c: 71:    DelayXLCD();
 10711  003C1A  EC87  F023         	call	_DelayXLCD	;wreg free
 10712  003C1E                     
 10713                           ;nxlcd.c: 72:    DelayXLCD();
 10714  003C1E  EC87  F023         	call	_DelayXLCD	;wreg free
 10715  003C22                     
 10716                           ;nxlcd.c: 73:    WriteCmdXLCD(0x32);
 10717  003C22  0E32               	movlw	50
 10718  003C24  ECBD  F022         	call	_WriteCmdXLCD
 10719  003C28                     l4818:
 10720  003C28  EC19  F022         	call	_BusyXLCD	;wreg free
 10721  003C2C  0900               	iorlw	0
 10722  003C2E  A4D8               	btfss	status,2,c
 10723  003C30  EF1C  F01E         	goto	u5561
 10724  003C34  EF1E  F01E         	goto	u5560
 10725  003C38                     u5561:
 10726  003C38  EF14  F01E         	goto	l4818
 10727  003C3C                     u5560:
 10728  003C3C                     l4820:
 10729  003C3C  EC19  F022         	call	_BusyXLCD	;wreg free
 10730  003C40  0900               	iorlw	0
 10731  003C42  A4D8               	btfss	status,2,c
 10732  003C44  EF26  F01E         	goto	u5571
 10733  003C48  EF28  F01E         	goto	u5570
 10734  003C4C                     u5571:
 10735  003C4C  EF1E  F01E         	goto	l4820
 10736  003C50                     u5570:
 10737  003C50                     
 10738                           ;nxlcd.c: 80:         WriteCmdXLCD(lcdtype);
 10739  003C50  500B               	movf	OpenXLCD@lcdtype^0,w,c
 10740  003C52  ECBD  F022         	call	_WriteCmdXLCD
 10741  003C56                     l4824:
 10742  003C56  EC19  F022         	call	_BusyXLCD	;wreg free
 10743  003C5A  0900               	iorlw	0
 10744  003C5C  A4D8               	btfss	status,2,c
 10745  003C5E  EF33  F01E         	goto	u5581
 10746  003C62  EF35  F01E         	goto	u5580
 10747  003C66                     u5581:
 10748  003C66  EF2B  F01E         	goto	l4824
 10749  003C6A                     u5580:
 10750  003C6A                     
 10751                           ;nxlcd.c: 84:         WriteCmdXLCD(0b00001011&0b00001101&0b00001110);
 10752  003C6A  0E08               	movlw	8
 10753  003C6C  ECBD  F022         	call	_WriteCmdXLCD
 10754  003C70                     l4828:
 10755  003C70  EC19  F022         	call	_BusyXLCD	;wreg free
 10756  003C74  0900               	iorlw	0
 10757  003C76  A4D8               	btfss	status,2,c
 10758  003C78  EF40  F01E         	goto	u5591
 10759  003C7C  EF42  F01E         	goto	u5590
 10760  003C80                     u5591:
 10761  003C80  EF38  F01E         	goto	l4828
 10762  003C84                     u5590:
 10763  003C84                     
 10764                           ;nxlcd.c: 86:         WriteCmdXLCD(0b00001111&0b00001111&0b00001111);
 10765  003C84  0E0F               	movlw	15
 10766  003C86  ECBD  F022         	call	_WriteCmdXLCD
 10767  003C8A                     l4832:
 10768  003C8A  EC19  F022         	call	_BusyXLCD	;wreg free
 10769  003C8E  0900               	iorlw	0
 10770  003C90  A4D8               	btfss	status,2,c
 10771  003C92  EF4D  F01E         	goto	u5601
 10772  003C96  EF4F  F01E         	goto	u5600
 10773  003C9A                     u5601:
 10774  003C9A  EF45  F01E         	goto	l4832
 10775  003C9E                     u5600:
 10776  003C9E                     
 10777                           ;nxlcd.c: 90:         WriteCmdXLCD(0x01);
 10778  003C9E  0E01               	movlw	1
 10779  003CA0  ECBD  F022         	call	_WriteCmdXLCD
 10780  003CA4                     l4836:
 10781  003CA4  EC19  F022         	call	_BusyXLCD	;wreg free
 10782  003CA8  0900               	iorlw	0
 10783  003CAA  A4D8               	btfss	status,2,c
 10784  003CAC  EF5A  F01E         	goto	u5611
 10785  003CB0  EF5C  F01E         	goto	u5610
 10786  003CB4                     u5611:
 10787  003CB4  EF52  F01E         	goto	l4836
 10788  003CB8                     u5610:
 10789  003CB8                     
 10790                           ;nxlcd.c: 94:         WriteCmdXLCD(0b00000100);
 10791  003CB8  0E04               	movlw	4
 10792  003CBA  ECBD  F022         	call	_WriteCmdXLCD
 10793  003CBE                     l4840:
 10794  003CBE  EC19  F022         	call	_BusyXLCD	;wreg free
 10795  003CC2  0900               	iorlw	0
 10796  003CC4  A4D8               	btfss	status,2,c
 10797  003CC6  EF67  F01E         	goto	u5621
 10798  003CCA  EF69  F01E         	goto	u5620
 10799  003CCE                     u5621:
 10800  003CCE  EF5F  F01E         	goto	l4840
 10801  003CD2                     u5620:
 10802  003CD2                     
 10803                           ;nxlcd.c: 98:         SetDDRamAddr(0x80);
 10804  003CD2  0E80               	movlw	128
 10805  003CD4  EC7E  F022         	call	_SetDDRamAddr
 10806  003CD8  0012               	return		;funcret
 10807  003CDA                     __end_of_OpenXLCD:
 10808                           	callstack 0
 10809                           
 10810 ;; *************** function _WriteCmdXLCD *****************
 10811 ;; Defined at:
 10812 ;;		line 388 in file "nxlcd.c"
 10813 ;; Parameters:    Size  Location     Type
 10814 ;;  cmd             1    wreg     unsigned char 
 10815 ;; Auto vars:     Size  Location     Type
 10816 ;;  cmd             1    9[COMRAM] unsigned char 
 10817 ;; Return value:  Size  Location     Type
 10818 ;;                  1    wreg      void 
 10819 ;; Registers used:
 10820 ;;		wreg, status,2, status,0, cstack
 10821 ;; Tracked objects:
 10822 ;;		On entry : 0/0
 10823 ;;		On exit  : 0/0
 10824 ;;		Unchanged: 0/0
 10825 ;; Data sizes:     COMRAM   BANK0   BANK1   BANK2   BANK3   BANK4   BANK5   BANK6   BANK7
 10826 ;;      Params:         0       0       0       0       0       0       0       0       0
 10827 ;;      Locals:         1       0       0       0       0       0       0       0       0
 10828 ;;      Temps:          0       0       0       0       0       0       0       0       0
 10829 ;;      Totals:         1       0       0       0       0       0       0       0       0
 10830 ;;Total ram usage:        1 bytes
 10831 ;; Hardware stack levels used:    1
 10832 ;; Hardware stack levels required when called:    3
 10833 ;; This function calls:
 10834 ;;		_DelayFor18TCY
 10835 ;; This function is called by:
 10836 ;;		_OpenXLCD
 10837 ;;		_main
 10838 ;; This function uses a non-reentrant model
 10839 ;;
 10840                           
 10841                           	psect	text39
 10842  00457A                     __ptext39:
 10843                           	callstack 0
 10844  00457A                     _WriteCmdXLCD:
 10845                           	callstack 27
 10846                           
 10847                           ;incstack = 0
 10848                           ;WriteCmdXLCD@cmd stored from wreg
 10849  00457A  6E0A               	movwf	WriteCmdXLCD@cmd^0,c
 10850  00457C                     
 10851                           ;nxlcd.c: 388: void WriteCmdXLCD(unsigned char cmd);nxlcd.c: 389: {;nxlcd.c: 403:       
      +                            TRISD &= 0x0f;
 10852  00457C  0E0F               	movlw	15
 10853  00457E  1695               	andwf	149,f,c	;volatile
 10854                           
 10855                           ;nxlcd.c: 404:         PORTD &= 0x0f;
 10856  004580  0E0F               	movlw	15
 10857  004582  1683               	andwf	131,f,c	;volatile
 10858                           
 10859                           ;nxlcd.c: 405:         PORTD |= cmd&0xf0;
 10860  004584  500A               	movf	WriteCmdXLCD@cmd^0,w,c
 10861  004586  0BF0               	andlw	240
 10862  004588  1283               	iorwf	131,f,c	;volatile
 10863  00458A                     
 10864                           ;nxlcd.c: 411:         LATBbits.LATB1 = 0;
 10865  00458A  928A               	bcf	138,1,c	;volatile
 10866  00458C                     
 10867                           ;nxlcd.c: 412:         LATEbits.LATE0 = 0;
 10868  00458C  908D               	bcf	141,0,c	;volatile
 10869  00458E                     
 10870                           ;nxlcd.c: 413:         DelayFor18TCY();
 10871  00458E  ECA1  F023         	call	_DelayFor18TCY	;wreg free
 10872  004592                     
 10873                           ;nxlcd.c: 414:         LATEbits.LATE1 = 1;
 10874  004592  828D               	bsf	141,1,c	;volatile
 10875  004594                     
 10876                           ;nxlcd.c: 415:         DelayFor18TCY();
 10877  004594  ECA1  F023         	call	_DelayFor18TCY	;wreg free
 10878  004598                     
 10879                           ;nxlcd.c: 416:         LATEbits.LATE1 = 0;
 10880  004598  928D               	bcf	141,1,c	;volatile
 10881                           
 10882                           ;nxlcd.c: 418:         PORTD &= 0x0f;
 10883  00459A  0E0F               	movlw	15
 10884  00459C  1683               	andwf	131,f,c	;volatile
 10885                           
 10886                           ;nxlcd.c: 419:         PORTD |= (cmd<<4)&0xf0;
 10887  00459E  380A               	swapf	WriteCmdXLCD@cmd^0,w,c
 10888  0045A0  0BF0               	andlw	240
 10889  0045A2  0BF0               	andlw	240
 10890  0045A4  1283               	iorwf	131,f,c	;volatile
 10891  0045A6                     
 10892                           ;nxlcd.c: 424:         DelayFor18TCY();
 10893  0045A6  ECA1  F023         	call	_DelayFor18TCY	;wreg free
 10894  0045AA                     
 10895                           ;nxlcd.c: 425:         LATEbits.LATE1 = 1;
 10896  0045AA  828D               	bsf	141,1,c	;volatile
 10897  0045AC                     
 10898                           ;nxlcd.c: 426:         DelayFor18TCY();
 10899  0045AC  ECA1  F023         	call	_DelayFor18TCY	;wreg free
 10900  0045B0                     
 10901                           ;nxlcd.c: 427:         LATEbits.LATE1 = 0;
 10902  0045B0  928D               	bcf	141,1,c	;volatile
 10903                           
 10904                           ;nxlcd.c: 429:         TRISD |= 0xf0;
 10905  0045B2  0EF0               	movlw	240
 10906  0045B4  1295               	iorwf	149,f,c	;volatile
 10907  0045B6  0012               	return		;funcret
 10908  0045B8                     __end_of_WriteCmdXLCD:
 10909                           	callstack 0
 10910                           
 10911 ;; *************** function _SetDDRamAddr *****************
 10912 ;; Defined at:
 10913 ;;		line 171 in file "nxlcd.c"
 10914 ;; Parameters:    Size  Location     Type
 10915 ;;  DDaddr          1    wreg     unsigned char 
 10916 ;; Auto vars:     Size  Location     Type
 10917 ;;  DDaddr          1    9[COMRAM] unsigned char 
 10918 ;; Return value:  Size  Location     Type
 10919 ;;                  1    wreg      void 
 10920 ;; Registers used:
 10921 ;;		wreg, status,2, status,0, cstack
 10922 ;; Tracked objects:
 10923 ;;		On entry : 0/0
 10924 ;;		On exit  : 0/0
 10925 ;;		Unchanged: 0/0
 10926 ;; Data sizes:     COMRAM   BANK0   BANK1   BANK2   BANK3   BANK4   BANK5   BANK6   BANK7
 10927 ;;      Params:         0       0       0       0       0       0       0       0       0
 10928 ;;      Locals:         1       0       0       0       0       0       0       0       0
 10929 ;;      Temps:          0       0       0       0       0       0       0       0       0
 10930 ;;      Totals:         1       0       0       0       0       0       0       0       0
 10931 ;;Total ram usage:        1 bytes
 10932 ;; Hardware stack levels used:    1
 10933 ;; Hardware stack levels required when called:    3
 10934 ;; This function calls:
 10935 ;;		_DelayFor18TCY
 10936 ;; This function is called by:
 10937 ;;		_OpenXLCD
 10938 ;; This function uses a non-reentrant model
 10939 ;;
 10940                           
 10941                           	psect	text40
 10942  0044FC                     __ptext40:
 10943                           	callstack 0
 10944  0044FC                     _SetDDRamAddr:
 10945                           	callstack 26
 10946                           
 10947                           ;incstack = 0
 10948                           ;SetDDRamAddr@DDaddr stored from wreg
 10949  0044FC  6E0A               	movwf	SetDDRamAddr@DDaddr^0,c
 10950  0044FE                     
 10951                           ;nxlcd.c: 171: void SetDDRamAddr(unsigned char DDaddr);nxlcd.c: 172: {;nxlcd.c: 186:    
      +                               TRISD &= 0x0f;
 10952  0044FE  0E0F               	movlw	15
 10953  004500  1695               	andwf	149,f,c	;volatile
 10954                           
 10955                           ;nxlcd.c: 187:         PORTD &= 0x0f;
 10956  004502  0E0F               	movlw	15
 10957  004504  1683               	andwf	131,f,c	;volatile
 10958                           
 10959                           ;nxlcd.c: 188:         PORTD |= ((DDaddr | 0b10000000) & 0xf0);
 10960  004506  500A               	movf	SetDDRamAddr@DDaddr^0,w,c
 10961  004508  0980               	iorlw	128
 10962  00450A  0BF0               	andlw	240
 10963  00450C  1283               	iorwf	131,f,c	;volatile
 10964  00450E                     
 10965                           ;nxlcd.c: 194:         LATBbits.LATB1 = 0;
 10966  00450E  928A               	bcf	138,1,c	;volatile
 10967  004510                     
 10968                           ;nxlcd.c: 195:         LATEbits.LATE0 = 0;
 10969  004510  908D               	bcf	141,0,c	;volatile
 10970  004512                     
 10971                           ;nxlcd.c: 196:         DelayFor18TCY();
 10972  004512  ECA1  F023         	call	_DelayFor18TCY	;wreg free
 10973  004516                     
 10974                           ;nxlcd.c: 197:         LATEbits.LATE1 = 1;
 10975  004516  828D               	bsf	141,1,c	;volatile
 10976  004518                     
 10977                           ;nxlcd.c: 198:         DelayFor18TCY();
 10978  004518  ECA1  F023         	call	_DelayFor18TCY	;wreg free
 10979  00451C                     
 10980                           ;nxlcd.c: 199:         LATEbits.LATE1 = 0;
 10981  00451C  928D               	bcf	141,1,c	;volatile
 10982                           
 10983                           ;nxlcd.c: 201:         PORTD &= 0x0f;
 10984  00451E  0E0F               	movlw	15
 10985  004520  1683               	andwf	131,f,c	;volatile
 10986                           
 10987                           ;nxlcd.c: 202:         PORTD |= ((DDaddr<<4)&0xf0);
 10988  004522  380A               	swapf	SetDDRamAddr@DDaddr^0,w,c
 10989  004524  0BF0               	andlw	240
 10990  004526  0BF0               	andlw	240
 10991  004528  1283               	iorwf	131,f,c	;volatile
 10992  00452A                     
 10993                           ;nxlcd.c: 207:         DelayFor18TCY();
 10994  00452A  ECA1  F023         	call	_DelayFor18TCY	;wreg free
 10995  00452E                     
 10996                           ;nxlcd.c: 208:         LATEbits.LATE1 = 1;
 10997  00452E  828D               	bsf	141,1,c	;volatile
 10998  004530                     
 10999                           ;nxlcd.c: 209:         DelayFor18TCY();
 11000  004530  ECA1  F023         	call	_DelayFor18TCY	;wreg free
 11001  004534                     
 11002                           ;nxlcd.c: 210:         LATEbits.LATE1 = 0;
 11003  004534  928D               	bcf	141,1,c	;volatile
 11004                           
 11005                           ;nxlcd.c: 212:         TRISD |= 0xf0;
 11006  004536  0EF0               	movlw	240
 11007  004538  1295               	iorwf	149,f,c	;volatile
 11008  00453A  0012               	return		;funcret
 11009  00453C                     __end_of_SetDDRamAddr:
 11010                           	callstack 0
 11011                           
 11012 ;; *************** function _DelayXLCD *****************
 11013 ;; Defined at:
 11014 ;;		line 22 in file "nxlcd.c"
 11015 ;; Parameters:    Size  Location     Type
 11016 ;;		None
 11017 ;; Auto vars:     Size  Location     Type
 11018 ;;		None
 11019 ;; Return value:  Size  Location     Type
 11020 ;;                  1    wreg      void 
 11021 ;; Registers used:
 11022 ;;		wreg
 11023 ;; Tracked objects:
 11024 ;;		On entry : 0/0
 11025 ;;		On exit  : 0/0
 11026 ;;		Unchanged: 0/0
 11027 ;; Data sizes:     COMRAM   BANK0   BANK1   BANK2   BANK3   BANK4   BANK5   BANK6   BANK7
 11028 ;;      Params:         0       0       0       0       0       0       0       0       0
 11029 ;;      Locals:         0       0       0       0       0       0       0       0       0
 11030 ;;      Temps:          1       0       0       0       0       0       0       0       0
 11031 ;;      Totals:         1       0       0       0       0       0       0       0       0
 11032 ;;Total ram usage:        1 bytes
 11033 ;; Hardware stack levels used:    1
 11034 ;; Hardware stack levels required when called:    2
 11035 ;; This function calls:
 11036 ;;		Nothing
 11037 ;; This function is called by:
 11038 ;;		_OpenXLCD
 11039 ;; This function uses a non-reentrant model
 11040 ;;
 11041                           
 11042                           	psect	text41
 11043  00470E                     __ptext41:
 11044                           	callstack 0
 11045  00470E                     _DelayXLCD:
 11046                           	callstack 27
 11047  00470E                     
 11048                           ;nxlcd.c: 24:     _delay((unsigned long)((5)*(20000000/4000.0)));
 11049  00470E  0E21               	movlw	33
 11050  004710  6E0A               	movwf	??_DelayXLCD^0,c
 11051  004712  0E76               	movlw	118
 11052  004714                     u7047:
 11053  004714  2EE8               	decfsz	wreg,f,c
 11054  004716  D7FE               	bra	u7047
 11055  004718  2E0A               	decfsz	??_DelayXLCD^0,f,c
 11056  00471A  D7FC               	bra	u7047
 11057  00471C  D000               	nop2	
 11058  00471E  0012               	return		;funcret
 11059  004720                     __end_of_DelayXLCD:
 11060                           	callstack 0
 11061                           
 11062 ;; *************** function _DelayPORXLCD *****************
 11063 ;; Defined at:
 11064 ;;		line 17 in file "nxlcd.c"
 11065 ;; Parameters:    Size  Location     Type
 11066 ;;		None
 11067 ;; Auto vars:     Size  Location     Type
 11068 ;;		None
 11069 ;; Return value:  Size  Location     Type
 11070 ;;                  1    wreg      void 
 11071 ;; Registers used:
 11072 ;;		wreg
 11073 ;; Tracked objects:
 11074 ;;		On entry : 0/0
 11075 ;;		On exit  : 0/0
 11076 ;;		Unchanged: 0/0
 11077 ;; Data sizes:     COMRAM   BANK0   BANK1   BANK2   BANK3   BANK4   BANK5   BANK6   BANK7
 11078 ;;      Params:         0       0       0       0       0       0       0       0       0
 11079 ;;      Locals:         0       0       0       0       0       0       0       0       0
 11080 ;;      Temps:          1       0       0       0       0       0       0       0       0
 11081 ;;      Totals:         1       0       0       0       0       0       0       0       0
 11082 ;;Total ram usage:        1 bytes
 11083 ;; Hardware stack levels used:    1
 11084 ;; Hardware stack levels required when called:    2
 11085 ;; This function calls:
 11086 ;;		Nothing
 11087 ;; This function is called by:
 11088 ;;		_OpenXLCD
 11089 ;; This function uses a non-reentrant model
 11090 ;;
 11091                           
 11092                           	psect	text42
 11093  004732                     __ptext42:
 11094                           	callstack 0
 11095  004732                     _DelayPORXLCD:
 11096                           	callstack 27
 11097  004732                     
 11098                           ;nxlcd.c: 19:     _delay((unsigned long)((15)*(20000000/4000.0)));
 11099  004732  0E62               	movlw	98
 11100  004734  6E0A               	movwf	??_DelayPORXLCD^0,c
 11101  004736  0E66               	movlw	102
 11102  004738                     u7057:
 11103  004738  2EE8               	decfsz	wreg,f,c
 11104  00473A  D7FE               	bra	u7057
 11105  00473C  2E0A               	decfsz	??_DelayPORXLCD^0,f,c
 11106  00473E  D7FC               	bra	u7057
 11107  004740  0012               	return		;funcret
 11108  004742                     __end_of_DelayPORXLCD:
 11109                           	callstack 0
 11110                           
 11111 ;; *************** function _BusyXLCD *****************
 11112 ;; Defined at:
 11113 ;;		line 227 in file "nxlcd.c"
 11114 ;; Parameters:    Size  Location     Type
 11115 ;;		None
 11116 ;; Auto vars:     Size  Location     Type
 11117 ;;		None
 11118 ;; Return value:  Size  Location     Type
 11119 ;;                  1    wreg      unsigned char 
 11120 ;; Registers used:
 11121 ;;		wreg, cstack
 11122 ;; Tracked objects:
 11123 ;;		On entry : 0/0
 11124 ;;		On exit  : 0/0
 11125 ;;		Unchanged: 0/0
 11126 ;; Data sizes:     COMRAM   BANK0   BANK1   BANK2   BANK3   BANK4   BANK5   BANK6   BANK7
 11127 ;;      Params:         0       0       0       0       0       0       0       0       0
 11128 ;;      Locals:         0       0       0       0       0       0       0       0       0
 11129 ;;      Temps:          0       0       0       0       0       0       0       0       0
 11130 ;;      Totals:         0       0       0       0       0       0       0       0       0
 11131 ;;Total ram usage:        0 bytes
 11132 ;; Hardware stack levels used:    1
 11133 ;; Hardware stack levels required when called:    3
 11134 ;; This function calls:
 11135 ;;		_DelayFor18TCY
 11136 ;; This function is called by:
 11137 ;;		_OpenXLCD
 11138 ;;		_putrsXLCD
 11139 ;;		_putsXLCD
 11140 ;; This function uses a non-reentrant model
 11141 ;;
 11142                           
 11143                           	psect	text43
 11144  004432                     __ptext43:
 11145                           	callstack 0
 11146  004432                     _BusyXLCD:
 11147                           	callstack 26
 11148  004432                     
 11149                           ;nxlcd.c: 229:         LATBbits.LATB1 = 1;
 11150  004432  828A               	bsf	138,1,c	;volatile
 11151                           
 11152                           ;nxlcd.c: 230:         LATEbits.LATE0 = 0;
 11153  004434  908D               	bcf	141,0,c	;volatile
 11154  004436                     
 11155                           ;nxlcd.c: 231:         DelayFor18TCY();
 11156  004436  ECA1  F023         	call	_DelayFor18TCY	;wreg free
 11157  00443A                     
 11158                           ;nxlcd.c: 232:         LATEbits.LATE1 = 1;
 11159  00443A  828D               	bsf	141,1,c	;volatile
 11160                           
 11161                           ;nxlcd.c: 233:         DelayFor18TCY();
 11162  00443C  ECA1  F023         	call	_DelayFor18TCY	;wreg free
 11163  004440                     
 11164                           ;nxlcd.c: 249:         if(PORTD&0x80)
 11165  004440  AE83               	btfss	131,7,c	;volatile
 11166  004442  EF25  F022         	goto	u5541
 11167  004446  EF27  F022         	goto	u5540
 11168  00444A                     u5541:
 11169  00444A  EF32  F022         	goto	l62
 11170  00444E                     u5540:
 11171  00444E                     
 11172                           ;nxlcd.c: 253:         {;nxlcd.c: 254:                 LATEbits.LATE1 = 0;
 11173  00444E  928D               	bcf	141,1,c	;volatile
 11174  004450                     
 11175                           ;nxlcd.c: 255:                 DelayFor18TCY();
 11176  004450  ECA1  F023         	call	_DelayFor18TCY	;wreg free
 11177  004454                     
 11178                           ;nxlcd.c: 256:                 LATEbits.LATE1 = 1;
 11179  004454  828D               	bsf	141,1,c	;volatile
 11180                           
 11181                           ;nxlcd.c: 257:                 DelayFor18TCY();
 11182  004456  ECA1  F023         	call	_DelayFor18TCY	;wreg free
 11183  00445A                     
 11184                           ;nxlcd.c: 258:                 LATEbits.LATE1 = 0;
 11185  00445A  928D               	bcf	141,1,c	;volatile
 11186  00445C                     
 11187                           ;nxlcd.c: 259:                 LATBbits.LATB1 = 0;
 11188  00445C  928A               	bcf	138,1,c	;volatile
 11189  00445E                     
 11190                           ;nxlcd.c: 260:                 return 1;
 11191  00445E  0E01               	movlw	1
 11192  004460  EF3B  F022         	goto	l63
 11193  004464                     l62:
 11194                           
 11195                           ;nxlcd.c: 263:         {;nxlcd.c: 264:                 LATEbits.LATE1 = 0;
 11196  004464  928D               	bcf	141,1,c	;volatile
 11197  004466                     
 11198                           ;nxlcd.c: 265:                 DelayFor18TCY();
 11199  004466  ECA1  F023         	call	_DelayFor18TCY	;wreg free
 11200  00446A                     
 11201                           ;nxlcd.c: 266:                 LATEbits.LATE1 = 1;
 11202  00446A  828D               	bsf	141,1,c	;volatile
 11203                           
 11204                           ;nxlcd.c: 267:                 DelayFor18TCY();
 11205  00446C  ECA1  F023         	call	_DelayFor18TCY	;wreg free
 11206  004470                     
 11207                           ;nxlcd.c: 268:                 LATEbits.LATE1 = 0;
 11208  004470  928D               	bcf	141,1,c	;volatile
 11209  004472                     
 11210                           ;nxlcd.c: 269:                 LATBbits.LATB1 = 0;
 11211  004472  928A               	bcf	138,1,c	;volatile
 11212  004474                     
 11213                           ;nxlcd.c: 270:                 return 0;
 11214  004474  0E00               	movlw	0
 11215  004476                     l63:
 11216  004476  0012               	return		;funcret
 11217  004478                     __end_of_BusyXLCD:
 11218                           	callstack 0
 11219                           
 11220 ;; *************** function _DelayFor18TCY *****************
 11221 ;; Defined at:
 11222 ;;		line 12 in file "nxlcd.c"
 11223 ;; Parameters:    Size  Location     Type
 11224 ;;		None
 11225 ;; Auto vars:     Size  Location     Type
 11226 ;;		None
 11227 ;; Return value:  Size  Location     Type
 11228 ;;                  1    wreg      void 
 11229 ;; Registers used:
 11230 ;;		wreg
 11231 ;; Tracked objects:
 11232 ;;		On entry : 0/0
 11233 ;;		On exit  : 0/0
 11234 ;;		Unchanged: 0/0
 11235 ;; Data sizes:     COMRAM   BANK0   BANK1   BANK2   BANK3   BANK4   BANK5   BANK6   BANK7
 11236 ;;      Params:         0       0       0       0       0       0       0       0       0
 11237 ;;      Locals:         0       0       0       0       0       0       0       0       0
 11238 ;;      Temps:          0       0       0       0       0       0       0       0       0
 11239 ;;      Totals:         0       0       0       0       0       0       0       0       0
 11240 ;;Total ram usage:        0 bytes
 11241 ;; Hardware stack levels used:    1
 11242 ;; Hardware stack levels required when called:    2
 11243 ;; This function calls:
 11244 ;;		Nothing
 11245 ;; This function is called by:
 11246 ;;		_SetDDRamAddr
 11247 ;;		_BusyXLCD
 11248 ;;		_WriteCmdXLCD
 11249 ;;		_WriteDataXLCD
 11250 ;;		_SetCGRamAddr
 11251 ;;		_ReadAddrXLCD
 11252 ;;		_ReadDataXLCD
 11253 ;; This function uses a non-reentrant model
 11254 ;;
 11255                           
 11256                           	psect	text44
 11257  004742                     __ptext44:
 11258                           	callstack 0
 11259  004742                     _DelayFor18TCY:
 11260                           	callstack 26
 11261  004742                     
 11262                           ;nxlcd.c: 14:     _delay((unsigned long)((20)*(20000000/4000000.0)));
 11263  004742  0E21               	movlw	33
 11264  004744                     u7067:
 11265  004744  2EE8               	decfsz	wreg,f,c
 11266  004746  D7FE               	bra	u7067
 11267  004748  F000               	nop	
 11268  00474A  0012               	return		;funcret
 11269  00474C                     __end_of_DelayFor18TCY:
 11270                           	callstack 0
 11271                           
 11272 ;; *************** function _LerADC *****************
 11273 ;; Defined at:
 11274 ;;		line 29 in file "./adc.h"
 11275 ;; Parameters:    Size  Location     Type
 11276 ;;		None
 11277 ;; Auto vars:     Size  Location     Type
 11278 ;;  temp            2   13[COMRAM] unsigned int 
 11279 ;; Return value:  Size  Location     Type
 11280 ;;                  2    9[COMRAM] unsigned int 
 11281 ;; Registers used:
 11282 ;;		wreg, status,2
 11283 ;; Tracked objects:
 11284 ;;		On entry : 0/0
 11285 ;;		On exit  : 0/0
 11286 ;;		Unchanged: 0/0
 11287 ;; Data sizes:     COMRAM   BANK0   BANK1   BANK2   BANK3   BANK4   BANK5   BANK6   BANK7
 11288 ;;      Params:         2       0       0       0       0       0       0       0       0
 11289 ;;      Locals:         2       0       0       0       0       0       0       0       0
 11290 ;;      Temps:          2       0       0       0       0       0       0       0       0
 11291 ;;      Totals:         6       0       0       0       0       0       0       0       0
 11292 ;;Total ram usage:        6 bytes
 11293 ;; Hardware stack levels used:    1
 11294 ;; Hardware stack levels required when called:    2
 11295 ;; This function calls:
 11296 ;;		Nothing
 11297 ;; This function is called by:
 11298 ;;		_main
 11299 ;; This function uses a non-reentrant model
 11300 ;;
 11301                           
 11302                           	psect	text45
 11303  004696                     __ptext45:
 11304                           	callstack 0
 11305  004696                     _LerADC:
 11306                           	callstack 28
 11307  004696                     
 11308                           ;./adc.h: 30:  unsigned int temp;;./adc.h: 32: ADCON0bits.GO = 1;
 11309  004696  82C2               	bsf	194,1,c	;volatile
 11310  004698                     l148:
 11311  004698  B2C2               	btfsc	194,1,c	;volatile
 11312  00469A  EF51  F023         	goto	u5671
 11313  00469E  EF53  F023         	goto	u5670
 11314  0046A2                     u5671:
 11315  0046A2  EF4C  F023         	goto	l148
 11316  0046A6                     u5670:
 11317  0046A6                     
 11318                           ;./adc.h: 34:  temp = ADRESH;
 11319  0046A6  CFC4 F00E          	movff	4036,LerADC@temp	;volatile
 11320  0046AA  6A0F               	clrf	(LerADC@temp+1)^0,c
 11321  0046AC                     
 11322                           ;./adc.h: 35:  temp = ((temp << 8)| ADRESL );
 11323  0046AC  500E               	movf	LerADC@temp^0,w,c
 11324  0046AE  6E0C               	movwf	??_LerADC^0,c
 11325  0046B0  50C3               	movf	195,w,c	;volatile
 11326  0046B2  6E0E               	movwf	LerADC@temp^0,c
 11327  0046B4  C00C  F00F         	movff	??_LerADC,LerADC@temp+1
 11328  0046B8                     
 11329                           ;./adc.h: 37: return temp;
 11330  0046B8  C00E  F00A         	movff	LerADC@temp,?_LerADC
 11331  0046BC  C00F  F00B         	movff	LerADC@temp+1,?_LerADC+1
 11332  0046C0  0012               	return		;funcret
 11333  0046C2                     __end_of_LerADC:
 11334                           	callstack 0
 11335                           
 11336 ;; *************** function _Inicializa_ADC *****************
 11337 ;; Defined at:
 11338 ;;		line 17 in file "./adc.h"
 11339 ;; Parameters:    Size  Location     Type
 11340 ;;		None
 11341 ;; Auto vars:     Size  Location     Type
 11342 ;;		None
 11343 ;; Return value:  Size  Location     Type
 11344 ;;                  1    wreg      void 
 11345 ;; Registers used:
 11346 ;;		wreg, status,2
 11347 ;; Tracked objects:
 11348 ;;		On entry : 0/0
 11349 ;;		On exit  : 0/0
 11350 ;;		Unchanged: 0/0
 11351 ;; Data sizes:     COMRAM   BANK0   BANK1   BANK2   BANK3   BANK4   BANK5   BANK6   BANK7
 11352 ;;      Params:         0       0       0       0       0       0       0       0       0
 11353 ;;      Locals:         0       0       0       0       0       0       0       0       0
 11354 ;;      Temps:          0       0       0       0       0       0       0       0       0
 11355 ;;      Totals:         0       0       0       0       0       0       0       0       0
 11356 ;;Total ram usage:        0 bytes
 11357 ;; Hardware stack levels used:    1
 11358 ;; Hardware stack levels required when called:    2
 11359 ;; This function calls:
 11360 ;;		Nothing
 11361 ;; This function is called by:
 11362 ;;		_main
 11363 ;; This function uses a non-reentrant model
 11364 ;;
 11365                           
 11366                           	psect	text46
 11367  004720                     __ptext46:
 11368                           	callstack 0
 11369  004720                     _Inicializa_ADC:
 11370                           	callstack 28
 11371  004720                     
 11372                           ;./adc.h: 18:  TRISAbits.TRISA0 = 1;
 11373  004720  8092               	bsf	146,0,c	;volatile
 11374  004722                     
 11375                           ;./adc.h: 19:  ADCON0 = 0;
 11376  004722  0E00               	movlw	0
 11377  004724  6EC2               	movwf	194,c	;volatile
 11378                           
 11379                           ;./adc.h: 20:  ADCON1 = 0x0E;
 11380  004726  0E0E               	movlw	14
 11381  004728  6EC1               	movwf	193,c	;volatile
 11382                           
 11383                           ;./adc.h: 21:  ADCON2 = 0xD9;
 11384  00472A  0ED9               	movlw	217
 11385  00472C  6EC0               	movwf	192,c	;volatile
 11386  00472E                     
 11387                           ;./adc.h: 22:  ADCON0bits.ADON = 1;
 11388  00472E  80C2               	bsf	194,0,c	;volatile
 11389  004730  0012               	return		;funcret
 11390  004732                     __end_of_Inicializa_ADC:
 11391                           	callstack 0
 11392                           
 11393 ;; *************** function _LowPriorityISR *****************
 11394 ;; Defined at:
 11395 ;;		line 130 in file "newmain.c"
 11396 ;; Parameters:    Size  Location     Type
 11397 ;;		None
 11398 ;; Auto vars:     Size  Location     Type
 11399 ;;		None
 11400 ;; Return value:  Size  Location     Type
 11401 ;;                  1    wreg      void 
 11402 ;; Registers used:
 11403 ;;		wreg, fsr2l, fsr2h, status,2, status,0
 11404 ;; Tracked objects:
 11405 ;;		On entry : 0/0
 11406 ;;		On exit  : 0/0
 11407 ;;		Unchanged: 0/0
 11408 ;; Data sizes:     COMRAM   BANK0   BANK1   BANK2   BANK3   BANK4   BANK5   BANK6   BANK7
 11409 ;;      Params:         0       0       0       0       0       0       0       0       0
 11410 ;;      Locals:         0       0       0       0       0       0       0       0       0
 11411 ;;      Temps:          9       0       0       0       0       0       0       0       0
 11412 ;;      Totals:         9       0       0       0       0       0       0       0       0
 11413 ;;Total ram usage:        9 bytes
 11414 ;; Hardware stack levels used:    1
 11415 ;; Hardware stack levels required when called:    1
 11416 ;; This function calls:
 11417 ;;		Nothing
 11418 ;; This function is called by:
 11419 ;;		Interrupt level 1
 11420 ;; This function uses a non-reentrant model
 11421 ;;
 11422                           
 11423                           	psect	intcodelo
 11424  000018                     __pintcodelo:
 11425                           	callstack 0
 11426  000018                     _LowPriorityISR:
 11427                           	callstack 21
 11428                           
 11429                           ;incstack = 0
 11430  000018  8056               	bsf	int$flags,0,c	;set compiler interrupt flag (level 1)
 11431  00001A  CFD8 F005          	movff	status,??_LowPriorityISR+4
 11432  00001E  CFE8 F006          	movff	wreg,??_LowPriorityISR+5
 11433  000022  CFE0 F007          	movff	bsr,??_LowPriorityISR+6
 11434  000026  CFD9 F008          	movff	fsr2l,??_LowPriorityISR+7
 11435  00002A  CFDA F009          	movff	fsr2h,??_LowPriorityISR+8
 11436  00002E                     
 11437                           ;newmain.c: 132:     INTCONbits.TMR0IF=0;
 11438  00002E  94F2               	bcf	242,2,c	;volatile
 11439  000030                     
 11440                           ;newmain.c: 133:     TMR0H=0x67;
 11441  000030  0E67               	movlw	103
 11442  000032  6ED7               	movwf	215,c	;volatile
 11443                           
 11444                           ;newmain.c: 134:     TMR0L = 0x6A;
 11445  000034  0E6A               	movlw	106
 11446  000036  6ED6               	movwf	214,c	;volatile
 11447  000038                     
 11448                           ;newmain.c: 137:     vetor_de_potencias[segundos_que_passaram - 1] = calculo_de_potencia
      +                          ;
 11449  000038  0EFC               	movlw	252
 11450  00003A  6E01               	movwf	??_LowPriorityISR^0,c
 11451  00003C  0EFF               	movlw	255
 11452  00003E  6E02               	movwf	(??_LowPriorityISR+1)^0,c
 11453  000040  0E00               	movlw	low _vetor_de_potencias
 11454  000042  6E03               	movwf	(??_LowPriorityISR+2)^0,c
 11455  000044  0E02               	movlw	high _vetor_de_potencias
 11456  000046  6E04               	movwf	(??_LowPriorityISR+3)^0,c
 11457  000048  5001               	movf	??_LowPriorityISR^0,w,c
 11458  00004A  2603               	addwf	(??_LowPriorityISR+2)^0,f,c
 11459  00004C  5002               	movf	(??_LowPriorityISR+1)^0,w,c
 11460  00004E  2204               	addwfc	(??_LowPriorityISR+3)^0,f,c
 11461  000050  90D8               	bcf	status,0,c
 11462  000052  0101               	movlb	1	; () banked
 11463  000054  35C4               	rlcf	_segundos_que_passaram& (0+255),w,b
 11464  000056  6ED9               	movwf	fsr2l,c
 11465  000058  35C5               	rlcf	(_segundos_que_passaram+1)& (0+255),w,b
 11466  00005A  6EDA               	movwf	fsr2h,c
 11467  00005C  90D8               	bcf	status,0,c
 11468  00005E  36D9               	rlcf	fsr2l,f,c
 11469  000060  36DA               	rlcf	fsr2h,f,c
 11470  000062  5003               	movf	(??_LowPriorityISR+2)^0,w,c
 11471  000064  26D9               	addwf	fsr2l,f,c
 11472  000066  5004               	movf	(??_LowPriorityISR+3)^0,w,c
 11473  000068  22DA               	addwfc	fsr2h,f,c
 11474  00006A  C16E  FFDE         	movff	_calculo_de_potencia,postinc2
 11475  00006E  C16F  FFDE         	movff	_calculo_de_potencia+1,postinc2
 11476  000072  C170  FFDE         	movff	_calculo_de_potencia+2,postinc2
 11477  000076  C171  FFDE         	movff	_calculo_de_potencia+3,postinc2
 11478  00007A                     
 11479                           ; BSR set to: 1
 11480                           ;newmain.c: 139:     segundos_que_passaram+=1;
 11481  00007A  4BC4               	infsnz	_segundos_que_passaram& (0+255),f,b
 11482  00007C  2BC5               	incf	(_segundos_que_passaram+1)& (0+255),f,b
 11483  00007E                     
 11484                           ; BSR set to: 1
 11485                           ;newmain.c: 141:     if(segundos_que_passaram >= 60){
 11486  00007E  BFC5               	btfsc	(_segundos_que_passaram+1)& (0+255),7,b
 11487  000080  EF4B  F000         	goto	i1u580_21
 11488  000084  51C5               	movf	(_segundos_que_passaram+1)& (0+255),w,b
 11489  000086  E109               	bnz	i1u580_20
 11490  000088  0E3C               	movlw	60
 11491  00008A  5DC4               	subwf	_segundos_que_passaram& (0+255),w,b
 11492  00008C  A0D8               	btfss	status,0,c
 11493  00008E  EF4B  F000         	goto	i1u580_21
 11494  000092  EF4D  F000         	goto	i1u580_20
 11495  000096                     i1u580_21:
 11496  000096  EF57  F000         	goto	i1l184
 11497  00009A                     i1u580_20:
 11498  00009A                     
 11499                           ; BSR set to: 1
 11500                           ;newmain.c: 142:         minutos_que_passaram += 1;
 11501  00009A  4A54               	infsnz	_minutos_que_passaram^0,f,c
 11502  00009C  2A55               	incf	(_minutos_que_passaram+1)^0,f,c
 11503  00009E                     
 11504                           ; BSR set to: 1
 11505                           ;newmain.c: 143:         segundos_que_passaram = 1;
 11506  00009E  0E00               	movlw	0
 11507  0000A0  6FC5               	movwf	(_segundos_que_passaram+1)& (0+255),b
 11508  0000A2  0E01               	movlw	1
 11509  0000A4  6FC4               	movwf	_segundos_que_passaram& (0+255),b
 11510  0000A6                     
 11511                           ; BSR set to: 1
 11512                           ;newmain.c: 144:         flag_primeira_vez = 0;
 11513  0000A6  0E00               	movlw	0
 11514  0000A8  6FC3               	movwf	(_flag_primeira_vez+1)& (0+255),b
 11515  0000AA  0E00               	movlw	0
 11516  0000AC  6FC2               	movwf	_flag_primeira_vez& (0+255),b
 11517  0000AE                     i1l184:
 11518                           
 11519                           ; BSR set to: 1
 11520  0000AE  C009  FFDA         	movff	??_LowPriorityISR+8,fsr2h
 11521  0000B2  C008  FFD9         	movff	??_LowPriorityISR+7,fsr2l
 11522  0000B6  C007  FFE0         	movff	??_LowPriorityISR+6,bsr
 11523  0000BA  C006  FFE8         	movff	??_LowPriorityISR+5,wreg
 11524  0000BE  C005  FFD8         	movff	??_LowPriorityISR+4,status
 11525  0000C2  9056               	bcf	int$flags,0,c	;clear compiler interrupt flag (level 1)
 11526  0000C4  0010               	retfie	
 11527  0000C6                     __end_of_LowPriorityISR:
 11528                           	callstack 0
 11529                           
 11530 ;; *************** function _HighPriorityISR *****************
 11531 ;; Defined at:
 11532 ;;		line 123 in file "newmain.c"
 11533 ;; Parameters:    Size  Location     Type
 11534 ;;		None
 11535 ;; Auto vars:     Size  Location     Type
 11536 ;;		None
 11537 ;; Return value:  Size  Location     Type
 11538 ;;                  1    wreg      void 
 11539 ;; Registers used:
 11540 ;;		wreg, status,2, status,0
 11541 ;; Tracked objects:
 11542 ;;		On entry : 0/0
 11543 ;;		On exit  : 0/0
 11544 ;;		Unchanged: 0/0
 11545 ;; Data sizes:     COMRAM   BANK0   BANK1   BANK2   BANK3   BANK4   BANK5   BANK6   BANK7
 11546 ;;      Params:         0       0       0       0       0       0       0       0       0
 11547 ;;      Locals:         0       0       0       0       0       0       0       0       0
 11548 ;;      Temps:          0       0       0       0       0       0       0       0       0
 11549 ;;      Totals:         0       0       0       0       0       0       0       0       0
 11550 ;;Total ram usage:        0 bytes
 11551 ;; Hardware stack levels used:    1
 11552 ;; This function calls:
 11553 ;;		Nothing
 11554 ;; This function is called by:
 11555 ;;		Interrupt level 2
 11556 ;; This function uses a non-reentrant model
 11557 ;;
 11558                           
 11559                           	psect	intcode
 11560  000008                     __pintcode:
 11561                           	callstack 0
 11562  000008                     _HighPriorityISR:
 11563                           	callstack 21
 11564                           
 11565                           ; BSR set to: 1
 11566                           ;incstack = 0
 11567  000008  8256               	bsf	int$flags,1,c	;set compiler interrupt flag (level 2)
 11568  00000A  EDA6  F023         	call	int_func,f	;refresh shadow registers
 11569                           
 11570                           	psect	intcode_body
 11571  00474C                     __pintcode_body:
 11572                           	callstack 21
 11573  00474C                     int_func:
 11574                           	callstack 21
 11575  00474C  0006               	pop		; remove dummy address from shadow register refresh
 11576  00474E                     
 11577                           ;newmain.c: 124:     INTCON3bits.INT1IF=0;
 11578  00474E  90F0               	bcf	240,0,c	;volatile
 11579  004750                     
 11580                           ;newmain.c: 126:     T0CONbits.TMR0ON^= 1;
 11581  004750  7ED5               	btg	213,7,c	;volatile
 11582  004752  9256               	bcf	int$flags,1,c	;clear compiler interrupt flag (level 2)
 11583  004754  0011               	retfie		f
 11584  004756                     __end_of_HighPriorityISR:
 11585                           	callstack 0
 11586                           
 11587                           	psect	rparam
 11588  0000                     
 11589                           	psect	temp
 11590  000056                     btemp:
 11591                           	callstack 0
 11592  000056                     	ds	1
 11593  0000                     int$flags	set	btemp
 11594  0000                     wtemp8	set	btemp+1
 11595  0000                     ttemp5	set	btemp+1
 11596  0000                     ttemp6	set	btemp+4
 11597  0000                     ttemp7	set	btemp+8
 11598                           
 11599                           	psect	idloc
 11600                           
 11601                           ;Config register IDLOC0 @ 0x200000
 11602                           ;	unspecified, using default values
 11603  200000                     	org	2097152
 11604  200000  FF                 	db	255
 11605                           
 11606                           ;Config register IDLOC1 @ 0x200001
 11607                           ;	unspecified, using default values
 11608  200001                     	org	2097153
 11609  200001  FF                 	db	255
 11610                           
 11611                           ;Config register IDLOC2 @ 0x200002
 11612                           ;	unspecified, using default values
 11613  200002                     	org	2097154
 11614  200002  FF                 	db	255
 11615                           
 11616                           ;Config register IDLOC3 @ 0x200003
 11617                           ;	unspecified, using default values
 11618  200003                     	org	2097155
 11619  200003  FF                 	db	255
 11620                           
 11621                           ;Config register IDLOC4 @ 0x200004
 11622                           ;	unspecified, using default values
 11623  200004                     	org	2097156
 11624  200004  FF                 	db	255
 11625                           
 11626                           ;Config register IDLOC5 @ 0x200005
 11627                           ;	unspecified, using default values
 11628  200005                     	org	2097157
 11629  200005  FF                 	db	255
 11630                           
 11631                           ;Config register IDLOC6 @ 0x200006
 11632                           ;	unspecified, using default values
 11633  200006                     	org	2097158
 11634  200006  FF                 	db	255
 11635                           
 11636                           ;Config register IDLOC7 @ 0x200007
 11637                           ;	unspecified, using default values
 11638  200007                     	org	2097159
 11639  200007  FF                 	db	255
 11640                           
 11641                           	psect	config
 11642                           
 11643                           ;Config register CONFIG1L @ 0x300000
 11644                           ;	PLL Prescaler Selection bits
 11645                           ;	PLLDIV = 1, No prescale (4 MHz oscillator input drives PLL directly)
 11646                           ;	System Clock Postscaler Selection bits
 11647                           ;	CPUDIV = OSC1_PLL2, [Primary Oscillator Src: /1][96 MHz PLL Src: /2]
 11648                           ;	USB Clock Selection bit (used in Full-Speed USB mode only; UCFG:FSEN = 1)
 11649                           ;	USBDIV = 1, USB clock source comes directly from the primary oscillator block with no 
      +                          postscale
 11650  300000                     	org	3145728
 11651  300000  00                 	db	0
 11652                           
 11653                           ;Config register CONFIG1H @ 0x300001
 11654                           ;	Oscillator Selection bits
 11655                           ;	FOSC = HS, HS oscillator (HS)
 11656                           ;	Fail-Safe Clock Monitor Enable bit
 11657                           ;	FCMEN = OFF, Fail-Safe Clock Monitor disabled
 11658                           ;	Internal/External Oscillator Switchover bit
 11659                           ;	IESO = OFF, Oscillator Switchover mode disabled
 11660  300001                     	org	3145729
 11661  300001  0C                 	db	12
 11662                           
 11663                           ;Config register CONFIG2L @ 0x300002
 11664                           ;	Power-up Timer Enable bit
 11665                           ;	PWRT = ON, PWRT enabled
 11666                           ;	Brown-out Reset Enable bits
 11667                           ;	BOR = ON, Brown-out Reset enabled in hardware only (SBOREN is disabled)
 11668                           ;	Brown-out Reset Voltage bits
 11669                           ;	BORV = 3, Minimum setting 2.05V
 11670                           ;	USB Voltage Regulator Enable bit
 11671                           ;	VREGEN = OFF, USB voltage regulator disabled
 11672  300002                     	org	3145730
 11673  300002  1E                 	db	30
 11674                           
 11675                           ;Config register CONFIG2H @ 0x300003
 11676                           ;	Watchdog Timer Enable bit
 11677                           ;	WDT = OFF, WDT disabled (control is placed on the SWDTEN bit)
 11678                           ;	Watchdog Timer Postscale Select bits
 11679                           ;	WDTPS = 32768, 1:32768
 11680  300003                     	org	3145731
 11681  300003  1E                 	db	30
 11682                           
 11683                           ; Padding undefined space
 11684  300004                     	org	3145732
 11685  300004  FF                 	db	255
 11686                           
 11687                           ;Config register CONFIG3H @ 0x300005
 11688                           ;	CCP2 MUX bit
 11689                           ;	CCP2MX = OFF, CCP2 input/output is multiplexed with RB3
 11690                           ;	PORTB A/D Enable bit
 11691                           ;	PBADEN = OFF, PORTB<4:0> pins are configured as digital I/O on Reset
 11692                           ;	Low-Power Timer 1 Oscillator Enable bit
 11693                           ;	LPT1OSC = OFF, Timer1 configured for higher power operation
 11694                           ;	MCLR Pin Enable bit
 11695                           ;	MCLRE = ON, MCLR pin enabled; RE3 input pin disabled
 11696  300005                     	org	3145733
 11697  300005  80                 	db	128
 11698                           
 11699                           ;Config register CONFIG4L @ 0x300006
 11700                           ;	Stack Full/Underflow Reset Enable bit
 11701                           ;	STVREN = OFF, Stack full/underflow will not cause Reset
 11702                           ;	Single-Supply ICSP Enable bit
 11703                           ;	LVP = OFF, Single-Supply ICSP disabled
 11704                           ;	Dedicated In-Circuit Debug/Programming Port (ICPORT) Enable bit
 11705                           ;	ICPRT = OFF, ICPORT disabled
 11706                           ;	Extended Instruction Set Enable bit
 11707                           ;	XINST = OFF, Instruction set extension and Indexed Addressing mode disabled (Legacy mo
      +                          de)
 11708                           ;	Background Debugger Enable bit
 11709                           ;	DEBUG = 0x1, unprogrammed default
 11710  300006                     	org	3145734
 11711  300006  80                 	db	128
 11712                           
 11713                           ; Padding undefined space
 11714  300007                     	org	3145735
 11715  300007  FF                 	db	255
 11716                           
 11717                           ;Config register CONFIG5L @ 0x300008
 11718                           ;	Code Protection bit
 11719                           ;	CP0 = OFF, Block 0 (000800-001FFFh) is not code-protected
 11720                           ;	Code Protection bit
 11721                           ;	CP1 = OFF, Block 1 (002000-003FFFh) is not code-protected
 11722                           ;	Code Protection bit
 11723                           ;	CP2 = OFF, Block 2 (004000-005FFFh) is not code-protected
 11724                           ;	Code Protection bit
 11725                           ;	CP3 = OFF, Block 3 (006000-007FFFh) is not code-protected
 11726  300008                     	org	3145736
 11727  300008  0F                 	db	15
 11728                           
 11729                           ;Config register CONFIG5H @ 0x300009
 11730                           ;	Boot Block Code Protection bit
 11731                           ;	CPB = OFF, Boot block (000000-0007FFh) is not code-protected
 11732                           ;	Data EEPROM Code Protection bit
 11733                           ;	CPD = OFF, Data EEPROM is not code-protected
 11734  300009                     	org	3145737
 11735  300009  C0                 	db	192
 11736                           
 11737                           ;Config register CONFIG6L @ 0x30000A
 11738                           ;	Write Protection bit
 11739                           ;	WRT0 = OFF, Block 0 (000800-001FFFh) is not write-protected
 11740                           ;	Write Protection bit
 11741                           ;	WRT1 = OFF, Block 1 (002000-003FFFh) is not write-protected
 11742                           ;	Write Protection bit
 11743                           ;	WRT2 = OFF, Block 2 (004000-005FFFh) is not write-protected
 11744                           ;	Write Protection bit
 11745                           ;	WRT3 = OFF, Block 3 (006000-007FFFh) is not write-protected
 11746  30000A                     	org	3145738
 11747  30000A  0F                 	db	15
 11748                           
 11749                           ;Config register CONFIG6H @ 0x30000B
 11750                           ;	Configuration Register Write Protection bit
 11751                           ;	WRTC = OFF, Configuration registers (300000-3000FFh) are not write-protected
 11752                           ;	Boot Block Write Protection bit
 11753                           ;	WRTB = OFF, Boot block (000000-0007FFh) is not write-protected
 11754                           ;	Data EEPROM Write Protection bit
 11755                           ;	WRTD = OFF, Data EEPROM is not write-protected
 11756  30000B                     	org	3145739
 11757  30000B  E0                 	db	224
 11758                           
 11759                           ;Config register CONFIG7L @ 0x30000C
 11760                           ;	Table Read Protection bit
 11761                           ;	EBTR0 = OFF, Block 0 (000800-001FFFh) is not protected from table reads executed in ot
      +                          her blocks
 11762                           ;	Table Read Protection bit
 11763                           ;	EBTR1 = OFF, Block 1 (002000-003FFFh) is not protected from table reads executed in ot
      +                          her blocks
 11764                           ;	Table Read Protection bit
 11765                           ;	EBTR2 = OFF, Block 2 (004000-005FFFh) is not protected from table reads executed in ot
      +                          her blocks
 11766                           ;	Table Read Protection bit
 11767                           ;	EBTR3 = OFF, Block 3 (006000-007FFFh) is not protected from table reads executed in ot
      +                          her blocks
 11768  30000C                     	org	3145740
 11769  30000C  0F                 	db	15
 11770                           
 11771                           ;Config register CONFIG7H @ 0x30000D
 11772                           ;	Boot Block Table Read Protection bit
 11773                           ;	EBTRB = OFF, Boot block (000000-0007FFh) is not protected from table reads executed in
      +                           other blocks
 11774  30000D                     	org	3145741
 11775  30000D  40                 	db	64
 11776                           tosu	equ	0xFFF
 11777                           tosh	equ	0xFFE
 11778                           tosl	equ	0xFFD
 11779                           stkptr	equ	0xFFC
 11780                           pclatu	equ	0xFFB
 11781                           pclath	equ	0xFFA
 11782                           pcl	equ	0xFF9
 11783                           tblptru	equ	0xFF8
 11784                           tblptrh	equ	0xFF7
 11785                           tblptrl	equ	0xFF6
 11786                           tablat	equ	0xFF5
 11787                           prodh	equ	0xFF4
 11788                           prodl	equ	0xFF3
 11789                           indf0	equ	0xFEF
 11790                           postinc0	equ	0xFEE
 11791                           postdec0	equ	0xFED
 11792                           preinc0	equ	0xFEC
 11793                           plusw0	equ	0xFEB
 11794                           fsr0h	equ	0xFEA
 11795                           fsr0l	equ	0xFE9
 11796                           wreg	equ	0xFE8
 11797                           indf1	equ	0xFE7
 11798                           postinc1	equ	0xFE6
 11799                           postdec1	equ	0xFE5
 11800                           preinc1	equ	0xFE4
 11801                           plusw1	equ	0xFE3
 11802                           fsr1h	equ	0xFE2
 11803                           fsr1l	equ	0xFE1
 11804                           bsr	equ	0xFE0
 11805                           indf2	equ	0xFDF
 11806                           postinc2	equ	0xFDE
 11807                           postdec2	equ	0xFDD
 11808                           preinc2	equ	0xFDC
 11809                           plusw2	equ	0xFDB
 11810                           fsr2h	equ	0xFDA
 11811                           fsr2l	equ	0xFD9
 11812                           status	equ	0xFD8

Data Sizes:
    Strings     118
    Constant    0
    Data        4
    BSS         344
    Persistent  0
    Stack       0

Auto Spaces:
    Space          Size  Autos    Used
    COMRAM           94     77      85
    BANK0           160    148     160
    BANK1           256    110     198
    BANK2           256      0     240
    BANK3           256      0       0
    BANK4           256      0       0
    BANK5           256      0       0
    BANK6           256      0       0
    BANK7           256      0       0

Pointer List with Targets:

    strncmp@_r	PTR const unsigned char  size(2) Largest target is 3
		 -> STR_29(CODE[3]), 

    strncmp@r	PTR const unsigned char  size(2) Largest target is 3
		 -> STR_29(CODE[3]), 

    strncmp@_l	PTR const unsigned char  size(2) Largest target is 3
		 -> vfpfcnvrt@ct(BANK0[3]), 

    strncmp@l	PTR const unsigned char  size(2) Largest target is 3
		 -> vfpfcnvrt@ct(BANK0[3]), 

    strlen@s	PTR const unsigned char  size(2) Largest target is 80
		 -> dbuf(BANK1[80]), main@minuteWatts(BANK1[10]), main@currentWatts(BANK1[10]), 

    strlen@a	PTR const unsigned char  size(2) Largest target is 80
		 -> dbuf(BANK1[80]), main@minuteWatts(BANK1[10]), main@currentWatts(BANK1[10]), 

    strcpy@dest	PTR unsigned char  size(2) Largest target is 80
		 -> dbuf(BANK1[80]), main@minuteWatts(BANK1[10]), main@currentWatts(BANK1[10]), 

    strcpy@d	PTR unsigned char  size(2) Largest target is 80
		 -> dbuf(BANK1[80]), main@minuteWatts(BANK1[10]), main@currentWatts(BANK1[10]), 

    strcpy@src	PTR const unsigned char  size(2) Largest target is 80
		 -> STR_24(CODE[4]), STR_23(CODE[4]), STR_20(CODE[4]), STR_19(CODE[4]), 
		 -> dbuf(BANK1[80]), STR_7(CODE[5]), STR_4(CODE[4]), 

    strcpy@s	PTR const unsigned char  size(2) Largest target is 80
		 -> STR_24(CODE[4]), STR_23(CODE[4]), STR_20(CODE[4]), STR_19(CODE[4]), 
		 -> dbuf(BANK1[80]), STR_7(CODE[5]), STR_4(CODE[4]), 

    strcat@src	PTR const unsigned char  size(2) Largest target is 5
		 -> STR_7(CODE[5]), STR_4(CODE[4]), 

    strcat@dest	PTR unsigned char  size(2) Largest target is 10
		 -> main@minuteWatts(BANK1[10]), main@currentWatts(BANK1[10]), 

    fputs@s	PTR const unsigned char  size(2) Largest target is 80
		 -> dbuf(BANK1[80]), 

    fputs@fp	PTR struct _IO_FILE size(2) Largest target is 7
		 -> sprintf@f(BANK0[6]), 

    fputc@fp.buffer	PTR unsigned char  size(2) Largest target is 16
		 -> main@calculando(BANK1[16]), main@valorPorMes(BANK1[10]), main@valorPorHora(BANK1[10]), main@minuteWatts(BANK1[10]), 
		 -> main@currentWatts(BANK1[10]), 

    fputc@fp	PTR struct _IO_FILE size(2) Largest target is 7
		 -> sprintf@f(BANK0[6]), 

    atoi@s	PTR const unsigned char  size(2) Largest target is 17
		 -> STR_15(CODE[17]), STR_13(CODE[17]), STR_11(CODE[8]), STR_10(CODE[8]), 
		 -> STR_9(CODE[8]), STR_8(CODE[8]), STR_6(CODE[5]), STR_5(CODE[5]), 
		 -> STR_3(CODE[5]), STR_2(CODE[5]), 

    vfprintf@ap	PTR PTR void  size(2) Largest target is 2
		 -> sprintf@ap(BANK0[2]), 

    vfprintf@fp	PTR struct _IO_FILE size(2) Largest target is 7
		 -> sprintf@f(BANK0[6]), 

    vfprintf@fmt	PTR const unsigned char  size(2) Largest target is 17
		 -> STR_15(CODE[17]), STR_13(CODE[17]), STR_11(CODE[8]), STR_10(CODE[8]), 
		 -> STR_9(CODE[8]), STR_8(CODE[8]), STR_6(CODE[5]), STR_5(CODE[5]), 
		 -> STR_3(CODE[5]), STR_2(CODE[5]), 

    vfprintf@cfmt	PTR unsigned char  size(2) Largest target is 17
		 -> STR_15(CODE[17]), STR_13(CODE[17]), STR_11(CODE[8]), STR_10(CODE[8]), 
		 -> STR_9(CODE[8]), STR_8(CODE[8]), STR_6(CODE[5]), STR_5(CODE[5]), 
		 -> STR_3(CODE[5]), STR_2(CODE[5]), 

    vfpfcnvrt@fp	PTR struct _IO_FILE size(2) Largest target is 7
		 -> sprintf@f(BANK0[6]), 

    vfpfcnvrt@ap	PTR PTR void  size(2) Largest target is 2
		 -> sprintf@ap(BANK0[2]), 

    vfpfcnvrt@fmt	PTR PTR unsigned char  size(2) Largest target is 2
		 -> vfprintf@cfmt(BANK0[2]), 

    efgtoa@fp	PTR struct _IO_FILE size(2) Largest target is 7
		 -> sprintf@f(BANK0[6]), 

    sp__strcpy	PTR unsigned char  size(2) Largest target is 80
		 -> dbuf(BANK1[80]), main@minuteWatts(BANK1[10]), main@currentWatts(BANK1[10]), 

    dtoa@fp	PTR struct _IO_FILE size(2) Largest target is 7
		 -> sprintf@f(BANK0[6]), 

    pad@fp	PTR struct _IO_FILE size(2) Largest target is 7
		 -> sprintf@f(BANK0[6]), 

    pad@buf	PTR unsigned char  size(2) Largest target is 80
		 -> dbuf(BANK1[80]), 

    sprintf@fmt	PTR const unsigned char  size(2) Largest target is 17
		 -> STR_15(CODE[17]), STR_13(CODE[17]), STR_11(CODE[8]), STR_10(CODE[8]), 
		 -> STR_9(CODE[8]), STR_8(CODE[8]), STR_6(CODE[5]), STR_5(CODE[5]), 
		 -> STR_3(CODE[5]), STR_2(CODE[5]), 

    sprintf@s	PTR unsigned char  size(2) Largest target is 16
		 -> main@calculando(BANK1[16]), main@valorPorMes(BANK1[10]), main@valorPorHora(BANK1[10]), main@minuteWatts(BANK1[10]), 
		 -> main@currentWatts(BANK1[10]), 

    sprintf@ap	PTR void [1] size(2) Largest target is 2
		 -> ?_sprintf(BANK0[2]), 

    S1209_IO_FILE$buffer	PTR unsigned char  size(2) Largest target is 16
		 -> main@calculando(BANK1[16]), main@valorPorMes(BANK1[10]), main@valorPorHora(BANK1[10]), main@minuteWatts(BANK1[10]), 
		 -> main@currentWatts(BANK1[10]), 

    f.buffer	PTR unsigned char  size(2) Largest target is 16
		 -> main@calculando(BANK1[16]), main@valorPorMes(BANK1[10]), main@valorPorHora(BANK1[10]), main@minuteWatts(BANK1[10]), 
		 -> main@currentWatts(BANK1[10]), 

    sp__strcat	PTR unsigned char  size(2) Largest target is 10
		 -> main@minuteWatts(BANK1[10]), main@currentWatts(BANK1[10]), 

    putrsXLCD@buffer	PTR const unsigned char  size(2) Largest target is 16
		 -> STR_18(CODE[2]), STR_17(CODE[9]), STR_16(CODE[9]), STR_14(CODE[16]), 
		 -> main@calculando(BANK1[16]), STR_12(CODE[15]), main@valorPorMes(BANK1[10]), main@valorPorHora(BANK1[10]), 
		 -> STR_1(CODE[14]), 


Critical Paths under _main in COMRAM

    _strcat->_strcpy
    _vfpfcnvrt->_efgtoa
    _efgtoa->_floorf
    _tolower->_isupper
    _strcpy->_strlen
    _floorf->___fldiv
    ___flsub->___flmul
    ___flmul->___xxtofl
    ___flge->___flmul
    ___fldiv->___flsub
    _dtoa->_pad
    _pad->_fputs
    _fputs->_fputc
    _abs->___aomod
    _atoi->_isspace
    _putrsXLCD->_WriteDataXLCD
    _OpenXLCD->_DelayPORXLCD
    _OpenXLCD->_DelayXLCD
    _OpenXLCD->_SetDDRamAddr
    _OpenXLCD->_WriteCmdXLCD

Critical Paths under _LowPriorityISR in COMRAM

    None.

Critical Paths under _HighPriorityISR in COMRAM

    None.

Critical Paths under _main in BANK0

    _main->_sprintf
    _sprintf->_vfprintf
    _vfprintf->_vfpfcnvrt
    _vfpfcnvrt->_efgtoa
    _efgtoa->_floorf
    _floorf->___fldiv

Critical Paths under _LowPriorityISR in BANK0

    None.

Critical Paths under _HighPriorityISR in BANK0

    None.

Critical Paths under _main in BANK1

    None.

Critical Paths under _LowPriorityISR in BANK1

    None.

Critical Paths under _HighPriorityISR in BANK1

    None.

Critical Paths under _main in BANK2

    None.

Critical Paths under _LowPriorityISR in BANK2

    None.

Critical Paths under _HighPriorityISR in BANK2

    None.

Critical Paths under _main in BANK3

    None.

Critical Paths under _LowPriorityISR in BANK3

    None.

Critical Paths under _HighPriorityISR in BANK3

    None.

Critical Paths under _main in BANK4

    None.

Critical Paths under _LowPriorityISR in BANK4

    None.

Critical Paths under _HighPriorityISR in BANK4

    None.

Critical Paths under _main in BANK5

    None.

Critical Paths under _LowPriorityISR in BANK5

    None.

Critical Paths under _HighPriorityISR in BANK5

    None.

Critical Paths under _main in BANK6

    None.

Critical Paths under _LowPriorityISR in BANK6

    None.

Critical Paths under _HighPriorityISR in BANK6

    None.

Critical Paths under _main in BANK7

    None.

Critical Paths under _LowPriorityISR in BANK7

    None.

Critical Paths under _HighPriorityISR in BANK7

    None.

Call Graph Tables:

 ---------------------------------------------------------------------------------
 (Depth) Function   	        Calls       Base Space   Used Autos Params    Refs
 ---------------------------------------------------------------------------------
 (0) _main                                               110   110      0   57468
                                              0 BANK1    110   110      0
                     _Inicializa_ADC
                             _LerADC
                           _OpenXLCD
                       _WriteCmdXLCD
                            ___fladd
                            ___fldiv
                            ___flmul
                            ___flsub
                           ___xxtofl
                          _putrsXLCD
                            _sprintf
                             _strcat
 ---------------------------------------------------------------------------------
 (1) _strcat                                               4     0      4    1626
                                             23 COMRAM     4     0      4
                             _strcpy
                             _strlen
 ---------------------------------------------------------------------------------
 (1) _sprintf                                             18    10      8   40053
                                            130 BANK0     18    10      8
                           ___xxtofl (ARG)
                           _vfprintf
 ---------------------------------------------------------------------------------
 (2) _vfprintf                                             8     2      6   37923
                                            122 BANK0      8     2      6
                          _vfpfcnvrt
 ---------------------------------------------------------------------------------
 (3) _vfpfcnvrt                                           48    42      6   37384
                                             92 BANK0     30    24      6
                               _atoi
                               _dtoa
                             _efgtoa
                              _fputc
                            _isdigit
                            _isupper
                            _strncmp
                            _tolower
 ---------------------------------------------------------------------------------
 (4) _strncmp                                             11     5      6     453
                                              9 COMRAM    11     5      6
 ---------------------------------------------------------------------------------
 (4) _efgtoa                                              68    61      7   26212
                                             72 COMRAM     5     5      0
                                             29 BANK0     63    56      7
                            ___awdiv
                            ___awmod
                            ___fladd
                            ___fldiv
                             ___fleq
                             ___flge
                            ___flmul
                            ___flneg
                            ___flsub
                            ___fltol
                      ___fpclassifyf
                             _floorf
                            _isupper
                                _pad
                             _strcpy
                            _tolower
 ---------------------------------------------------------------------------------
 (4) _tolower                                              8     6      2     944
                                             15 COMRAM     8     6      2
                            _isupper
 ---------------------------------------------------------------------------------
 (5) _isupper                                              6     4      2     465
                                              9 COMRAM     6     4      2
 ---------------------------------------------------------------------------------
 (2) _strcpy                                              10     6      4    1008
                                             13 COMRAM    10     6      4
                             _strlen (ARG)
 ---------------------------------------------------------------------------------
 (5) _floorf                                              20    16      4     490
                                             68 COMRAM     4     0      4
                                             13 BANK0     16    16      0
                            ___fldiv (ARG)
 ---------------------------------------------------------------------------------
 (5) ___fpclassifyf                                       14    10      4     287
                                              9 COMRAM    14    10      4
 ---------------------------------------------------------------------------------
 (5) ___fltol                                             10     6      4     381
                                              9 COMRAM    10     6      4
 ---------------------------------------------------------------------------------
 (5) ___flsub                                              8     0      8    3345
                                             48 COMRAM     8     0      8
                            ___fladd
                            ___flmul (ARG)
 ---------------------------------------------------------------------------------
 (6) ___fladd                                             16     8      8    2718
                                              9 COMRAM    16     8      8
 ---------------------------------------------------------------------------------
 (5) ___flneg                                              4     0      4     121
                                              9 COMRAM     4     0      4
 ---------------------------------------------------------------------------------
 (5) ___flmul                                             25    17      8    3112
                                             23 COMRAM    25    17      8
                           ___xxtofl (ARG)
 ---------------------------------------------------------------------------------
 (5) ___flge                                              12     4      8     638
                                             48 COMRAM    12     4      8
                            ___flmul (ARG)
 ---------------------------------------------------------------------------------
 (5) ___fleq                                              12     4      8     646
                                              9 COMRAM    12     4      8
 ---------------------------------------------------------------------------------
 (5) ___fldiv                                             25    17      8    3443
                                             56 COMRAM    12     4      8
                                              0 BANK0     13    13      0
                            ___fladd (ARG)
                            ___flmul (ARG)
                            ___flsub (ARG)
 ---------------------------------------------------------------------------------
 (5) ___awmod                                              6     2      4     448
                                              9 COMRAM     6     2      4
 ---------------------------------------------------------------------------------
 (5) ___awdiv                                              8     4      4     452
                                              9 COMRAM     8     4      4
 ---------------------------------------------------------------------------------
 (4) _dtoa                                                36    26     10    5118
                                             36 COMRAM    36    26     10
                            ___aodiv
                            ___aomod
                                _abs
                                _pad
 ---------------------------------------------------------------------------------
 (5) _pad                                                 11     5      6    3469
                                             25 COMRAM    11     5      6
                              _fputc
                              _fputs
                             _strlen
 ---------------------------------------------------------------------------------
 (2) _strlen                                               4     2      2     242
                                              9 COMRAM     4     2      2
 ---------------------------------------------------------------------------------
 (6) _fputs                                                7     3      4    1235
                                             18 COMRAM     7     3      4
                              _fputc
 ---------------------------------------------------------------------------------
 (4) _fputc                                                9     5      4     834
                                              9 COMRAM     9     5      4
                              _putch
 ---------------------------------------------------------------------------------
 (5) _putch                                                1     1      0       0
 ---------------------------------------------------------------------------------
 (5) _abs                                                  4     2      2     142
                                             27 COMRAM     4     2      2
                            ___aomod (ARG)
 ---------------------------------------------------------------------------------
 (5) ___aomod                                             18     2     16     448
                                              9 COMRAM    18     2     16
 ---------------------------------------------------------------------------------
 (5) ___aodiv                                             26    10     16     452
                                              9 COMRAM    26    10     16
 ---------------------------------------------------------------------------------
 (4) _atoi                                                15    13      2    1244
                                             16 COMRAM    15    13      2
                             ___wmul
                            _isdigit
                            _isspace
 ---------------------------------------------------------------------------------
 (5) _isspace                                              7     5      2     207
                                              9 COMRAM     7     5      2
 ---------------------------------------------------------------------------------
 (4) _isdigit                                              6     4      2     237
                                              9 COMRAM     6     4      2
 ---------------------------------------------------------------------------------
 (5) ___wmul                                               6     2      4     403
                                              9 COMRAM     6     2      4
 ---------------------------------------------------------------------------------
 (1) _putrsXLCD                                            2     0      2     849
                                             10 COMRAM     2     0      2
                           _BusyXLCD
                      _WriteDataXLCD
 ---------------------------------------------------------------------------------
 (2) _WriteDataXLCD                                        1     1      0      44
                                              9 COMRAM     1     1      0
                      _DelayFor18TCY
 ---------------------------------------------------------------------------------
 (1) ___xxtofl                                            14    10      4     550
                                              9 COMRAM    14    10      4
 ---------------------------------------------------------------------------------
 (1) _OpenXLCD                                             1     1      0     110
                                             10 COMRAM     1     1      0
                           _BusyXLCD
                       _DelayPORXLCD
                          _DelayXLCD
                       _SetDDRamAddr
                       _WriteCmdXLCD
 ---------------------------------------------------------------------------------
 (1) _WriteCmdXLCD                                         1     1      0      44
                                              9 COMRAM     1     1      0
                      _DelayFor18TCY
 ---------------------------------------------------------------------------------
 (2) _SetDDRamAddr                                         1     1      0      44
                                              9 COMRAM     1     1      0
                      _DelayFor18TCY
 ---------------------------------------------------------------------------------
 (2) _DelayXLCD                                            1     1      0       0
                                              9 COMRAM     1     1      0
 ---------------------------------------------------------------------------------
 (2) _DelayPORXLCD                                         1     1      0       0
                                              9 COMRAM     1     1      0
 ---------------------------------------------------------------------------------
 (2) _BusyXLCD                                             0     0      0       0
                      _DelayFor18TCY
 ---------------------------------------------------------------------------------
 (3) _DelayFor18TCY                                        0     0      0       0
 ---------------------------------------------------------------------------------
 (1) _LerADC                                               6     4      2      46
                                              9 COMRAM     6     4      2
 ---------------------------------------------------------------------------------
 (1) _Inicializa_ADC                                       0     0      0       0
 ---------------------------------------------------------------------------------
 Estimated maximum stack depth 6
 ---------------------------------------------------------------------------------
 (Depth) Function   	        Calls       Base Space   Used Autos Params    Refs
 ---------------------------------------------------------------------------------
 (9) _LowPriorityISR                                       9     9      0       0
                                              0 COMRAM     9     9      0
 ---------------------------------------------------------------------------------
 Estimated maximum stack depth 9
 ---------------------------------------------------------------------------------
 (Depth) Function   	        Calls       Base Space   Used Autos Params    Refs
 ---------------------------------------------------------------------------------
 (10) _HighPriorityISR                                     0     0      0       0
 ---------------------------------------------------------------------------------
 Estimated maximum stack depth 10
 ---------------------------------------------------------------------------------

 Call Graph Graphs:

 _main (ROOT)
   _Inicializa_ADC
   _LerADC
   _OpenXLCD
     _BusyXLCD
       _DelayFor18TCY
     _DelayPORXLCD
     _DelayXLCD
     _SetDDRamAddr
       _DelayFor18TCY
     _WriteCmdXLCD
       _DelayFor18TCY
   _WriteCmdXLCD
     _DelayFor18TCY
   ___fladd
   ___fldiv
     ___fladd (ARG)
     ___flmul (ARG)
       ___xxtofl (ARG)
     ___flsub (ARG)
       ___fladd
       ___flmul (ARG)
         ___xxtofl (ARG)
   ___flmul
     ___xxtofl (ARG)
   ___flsub
     ___fladd
     ___flmul (ARG)
       ___xxtofl (ARG)
   ___xxtofl
   _putrsXLCD
     _BusyXLCD
       _DelayFor18TCY
     _WriteDataXLCD
       _DelayFor18TCY
   _sprintf
     ___xxtofl (ARG)
     _vfprintf (ARG)
       _vfpfcnvrt
         _atoi
           ___wmul
           _isdigit
           _isspace
         _dtoa
           ___aodiv
           ___aomod
           _abs
             ___aomod (ARG)
           _pad
             _fputc
               _putch
             _fputs
               _fputc
                 _putch
             _strlen
         _efgtoa
           ___awdiv
           ___awmod
           ___fladd
           ___fldiv
             ___fladd (ARG)
             ___flmul (ARG)
               ___xxtofl (ARG)
             ___flsub (ARG)
               ___fladd
               ___flmul (ARG)
                 ___xxtofl (ARG)
           ___fleq
           ___flge
             ___flmul (ARG)
               ___xxtofl (ARG)
           ___flmul
             ___xxtofl (ARG)
           ___flneg
           ___flsub
             ___fladd
             ___flmul (ARG)
               ___xxtofl (ARG)
           ___fltol
           ___fpclassifyf
           _floorf
             ___fldiv (ARG)
               ___fladd (ARG)
               ___flmul (ARG)
                 ___xxtofl (ARG)
               ___flsub (ARG)
                 ___fladd
                 ___flmul (ARG)
                   ___xxtofl (ARG)
           _isupper
           _pad
             _fputc
               _putch
             _fputs
               _fputc
                 _putch
             _strlen
           _strcpy
             _strlen (ARG)
           _tolower
             _isupper
         _fputc
           _putch
         _isdigit
         _isupper
         _strncmp
         _tolower
           _isupper
   _strcat
     _strcpy
       _strlen (ARG)
     _strlen

 _LowPriorityISR (ROOT)

 _HighPriorityISR (ROOT)

 Address spaces:
Name               Size   Autos  Total    Cost      Usage
BIGRAM             7FF      0       0      21        0.0%
EEDATA             100      0       0       0        0.0%
BITBANK7           100      0       0      18        0.0%
BANK7              100      0       0      19        0.0%
BITBANK6           100      0       0      16        0.0%
BANK6              100      0       0      17        0.0%
BITBANK5           100      0       0      14        0.0%
BANK5              100      0       0      15        0.0%
BITBANK4           100      0       0      12        0.0%
BANK4              100      0       0      13        0.0%
BITBANK3           100      0       0      10        0.0%
BANK3              100      0       0      11        0.0%
BITBANK2           100      0       0       8        0.0%
BANK2              100      0      F0       9       93.8%
BITBANK1           100      0       0       6        0.0%
BANK1              100     6E      C6       7       77.3%
BITBANK0            A0      0       0       4        0.0%
BANK0               A0     94      A0       5      100.0%
BITCOMRAM           5E      0       0       0        0.0%
COMRAM              5E     4D      55       1       90.4%
BITSFR               0      0       0     200        0.0%
SFR                  0      0       0     200        0.0%
STACK                0      0       0       2        0.0%
NULL                 0      0       0       0        0.0%
ABS                  0      0     2AB      20        0.0%
DATA                 0      0     2AB       3        0.0%
CODE                 0      0       0       0        0.0%


Microchip Technology PIC18 Macro Assembler V2.20 build 20200408173844 
Symbol Table                                                                                   Thu May 20 11:48:15 2021

                ___fldiv@aexp 006C                  ___fldiv@bexp 006B             _flag_primeira_vez 01C2  
                ___fldiv@sign 0064                            l23 474A                            l26 4740  
                          l29 471E                            l53 3CD8                            l62 4464  
                          l63 4476                            l73 45B6                            l59 453A  
                          l76 4578                            l94 41CA                  ___awdiv@sign 000F  
                          bsr 000FE0           ___wmul@multiplicand 000C                           l221 470C  
                         l150 46A6                           l151 46C0                           l145 4730  
                         l148 4698                           l335 377E                           l348 38E2  
                         l452 3F3C                           l518 39E8                           l480 4158  
                         l465 40AE                           l803 2DBE                           l491 3AEC  
                         l805 2C1E                           l814 2C64                           l486 3AA6  
                         l750 2316                           l495 4626                           l751 22DC  
                         l816 2CDC                           l808 2BE2                           l817 2CCA  
                         l842 28B4                           l835 26BE                           l852 29E4  
                         l844 292C                           l845 291A                           l749 2328  
                         l942 3F82                           l766 2442                           l758 25F8  
                         l839 2A22                           l775 2512                           l791 4430  
                         l776 2500                           l945 3FC4                           l953 2E5E  
                         l890 33FE                           l883 33A2                           l947 3FFE  
                         l955 2E66                           l876 330A                           l973 309C  
                         l879 3466                           l991 1428                           l899 4398  
     __end_of_HighPriorityISR 4756                           _abs 44BC                           _pad 3F3E  
       __size_of_WriteCmdXLCD 003E                  ___awmod@sign 000F                           wreg 000FE8  
                ___flmul@aexp 0029                  ___flmul@bexp 002A                  ___flmul@sign 0024  
                ___flmul@temp 002F                  ___flmul@prod 002B                  ___fltol@exp1 0013  
                        l1200 44BA                          l1113 44F2                          l1009 0C64  
                        l1210 46E6                          l1203 475A                          l1035 0FFC  
                        ?_abs 001C                          l1116 44FA                          l1108 3BEA  
                        l1222 4694                          l1144 35EE                          l1216 4346  
                        l1153 32B2                          l1241 428C                          l1226 3DAE  
                        l1163 465E                          l1171 43EA                          l1147 35F6  
                        l1091 207E                          l1083 2138                          l1156 31F6  
                        l1236 4284                          l1192 3E78                          l4000 390E  
                        l1177 45EE                          l1097 4224                          l4010 395C  
                        l4002 3938                          l1098 422C                          l3300 2190  
                        l4020 3988                          l4004 393A                          l4100 309E  
                        l3310 21C0                          l3302 21A0                          l4030 39B8  
                        l4006 394A                          l4102 30BE                          l4040 3F4C  
                        l4200 3064                          l3400 2396                          l3320 2200  
                        l3312 21CE                          l3304 21A6                          l4032 39C8  
                        l4016 3974                          l4008 394E                          l4120 326A  
                        l4112 31AA                          l4104 3116                          l4050 3FA2  
                        l4042 3F60                          l4202 3074                          l3410 23DC  
                        l3402 23A4                          l3330 223A                          l3322 2202  
                        l3314 21D0                          l3306 21B8                          l4034 39D8  
                        l4026 399C                          l4018 397E                          l4122 3292  
                        l4114 31E6                          l4106 312A                          l4140 43E4  
                        l4132 439A                          l4060 44BC                          l3500 4688  
                        l4052 3FA6                          l4044 3F6E                          l3420 2458  
                        l3412 2410                          l3404 23A6                          l3340 224E  
                        l3332 223E                          l3316 21E0                          l3324 220A  
                        l3308 21BA                          l4028 39A8                          l4124 32A2  
                        l4108 3138                          l4116 321A                          l3510 4704  
                        l4134 439E                          l4062 44D6                          l3270 3DB0  
                        l4054 3FD2                          l4046 3F7A                          l4038 3F3E  
                        l4150 2E28                          l3430 2494                          l3422 2468  
                        l3414 2412                          l3406 23B0                          l3350 2262  
                        l3342 2252                          l3334 2242                          l3326 221A  
                        l3318 21F0                          l4070 3B74                          l4118 3256  
                        l4128 4628                          l4136 43B2                          l3520 362A  
                        l3280 3E32                          l3272 3DC2                          l4056 3FE6  
                        l4048 3F8E                          l4160 2E80                          l4152 2E36  
                        l4144 2DC0                          l3440 24C0                          l3432 2496  
                        l3416 2422                          l3408 23B6                          l3360 2276  
                        l3352 2266                          l3344 2256                          l3336 2246  
                        l3328 222C                          l4072 3B80                          l4064 3AEE  
                        l3504 45B8                          l6000 1B70                          l4138 43E0  
                        l3530 366C                          l3522 362E                          l3514 35F8  
                        l3274 3DD4                          l4170 2EAC                          l4162 2E8E  
                        l4154 2E38                          l4146 2DE0                          l3450 24F8  
                        l3434 24A4                          l3426 247C                          l3442 24C2  
                        l3418 2432                          l3370 22D4                          l3354 226A  
                        l3346 225A                          l3338 224A                          l3362 227A  
                        l3290 2156                          l4082 3BE2                          l4066 3B0E  
                        l4090 422E                          l6002 1B76                          l3508 46E8  
                        l3540 36C6                          l3532 368A                          l3524 363C  
                        l3516 35FC                          l3276 3DDE                          l4180 2FB8  
                        l4172 2F2E                          l4164 2E94                          l4156 2E52  
                        l4148 2E08                          l5300 2AA8                          l3460 2576  
                        l3436 24AC                          l3428 2486                          l3444 24D0  
                        l3380 230A                          l3372 22EA                          l3364 227E  
                        l3356 226E                          l3348 225E                          l3292 2166  
                        l3284 213A                          l4068 3B4C                          l4076 3B8C  
                        l6004 1B82                          l6012 1BAE                          l4510 3484  
                        l3542 36F4                          l3534 3692                          l3550 372E  
                        l3526 365C                          l3518 360A                          l3278 3DFC  
                        l4190 302A                          l4182 2FD6                          l4174 2F34  
                        l4166 2E9C                          l4158 2E6E                          l5302 2AB8  
                        l5310 2AE2                          l3470 25BC                          l3454 2522  
                        l3462 2578                          l3446 24D4                          l3438 24B0  
                        l3390 235A                          l3382 2314                          l3374 22F6  
                        l3366 22A8                          l3358 2272                          l3294 2176  
                        l3286 2146                          l4078 3B9E                          l4086 42EC  
                        l4094 4264                          l6006 1B98                          l6014 1BE4  
                        l4520 34E0                          l4512 34A0                          l4504 3468  
                        l3552 373E                          l3544 3714                          l3536 36A6  
                        l3528 3660                          l3560 3784                          l4192 3038  
                        l4184 2FF0                          l4176 2F3A                          l4168 2EA6  
                        l5400 2DAC                          l5320 2B24                          l5312 2AF2  
                        l5304 2AC8                          l3800 27CA                          l3480 25E6  
                        l3472 25CA                          l3464 2588                          l3456 252E  
                        l3448 24E2                          l3392 236A                          l3384 2336  
                        l3376 22FA                          l3368 22C4                          l3296 2186  
                        l3288 2154                          l4088 42FC                          l4096 4276  
                        l6008 1B9E                          l4522 34F6                          l4514 34D6  
                        l4506 347C                          l3554 375E                          l3546 3716  
                        l3538 36B4                          l3570 37E4                          l3562 3792  
                        l3490 4496                          l4194 303E                          l4186 300A  
                        l4178 2F9E                          l5402 2DB2                          l5314 2B08  
                        l5306 2AD8                          l3810 286E                          l3802 27E6  
                        l3482 25E8                          l3474 25D0                          l3466 2598  
                        l3458 253C                          l3394 2378                          l3386 2346  
                        l3378 2308                          l3298 2188                          l4700 443A  
                        l4540 35D2                          l4532 3570                          l4524 34FE  
                        l4516 34DA                          l4508 3480                          l3548 3728  
                        l3580 385A                          l3572 3802                          l3564 37B2  
                        l3492 449A                          l4196 3050                          l4188 3018  
                        l3900 3F10                          l5404 2DB4                          l5340 2BA6  
                        l5332 2B5C                          l5316 2B18                          l5324 2B38  
                        l5308 2ADA                          l3820 28C4                          l3812 287C  
                        l3804 27F2                          l3740 2626                          l3732 25FA  
                        l3476 25D2                          l3468 25B8                          l3396 2386  
                        l5500 0C12                          l5420 08A8                          l5412 0878  
                        l4710 445A                          l4702 4440                          l4526 3506  
                        l3590 38C2                          l3582 387A                          l3574 380A  
                        l3566 37B6                          l3558 3780                          l3486 4478  
                        l3494 4660                          l4198 305C                          l3902 3F16  
                        l5350 2BEC                          l5342 2BAE                          l5334 2B76  
                        l5326 2B48                          l5318 2B20                          l3822 28D2  
                        l3814 289A                          l3806 280E                          l3750 2662  
                        l3742 2636                          l3734 2606                          l3478 25D8  
                        l3398 2392                          l5502 0C24                          l5510 0C70  
                        l5430 08FE                          l5422 08CC                          l5414 0882  
                        ?_pad 001A                          l4720 4466                          l4712 445C  
                        l4704 444E                          l4800 3C00                          l4536 35AE  
                        l4528 353A                          l3584 388C                          l3576 381E  
                        l3568 37C4                          l3488 4484                          l3496 466C  
                        l3904 3F1C                          l3920 401E                          l3912 4000  
                        l5360 2C44                          l5352 2C0A                          l5344 2BBE  
                        l5336 2B86                          l5328 2B48                          l5280 2A42  
                        l3832 293C                          l3840 2984                          l3824 28D6  
                        l3816 28A4                          l3808 2838                          l3760 2698  
                        l3752 2668                          l3744 2646                          l3736 2614  
                        l5600 10E8                          l5520 0CB0                          l5504 0C36  
                        l5440 092C                          l5432 0910                          l5424 08D6  
                        l5416 0892                          l4560 3D64                          l4552 3D10  
                        l6072 1BC6                          l4722 446A                          l4714 445E  
                        l4706 4450                          l4810 3C14                          l4802 3C02  
                        l4538 35C0                          l6074 3524                          l3578 382C  
                        l3586 3892                          l3498 4670                          l3906 3F2C  
                        l3930 4056                          l3922 402C                          l3914 4004  
                        l5370 2C82                          l5362 2C4A                          l5354 2C0C  
                        l5346 2BD2                          l5338 2B96                          l5282 2A52  
                        l5290 2A7C                          l5274 2A24                          l3850 29F8  
                        l3842 299E                          l3834 2948                          l3826 28E4  
                        l3818 28B2                          l3762 26A8                          l3754 2676  
                        l3746 264C                          l3738 2616                          l5610 111E  
                        l5602 10F8                          l5530 0D0C                          l5522 0CE6  
                        l5506 0C3E                          l5450 09A0                          l5434 091C  
                        l5442 0932                          l5426 08DE                          l5418 08A0  
                        l4562 3D8C                          l4554 3D1E                          l4546 3CDA  
                        l4724 4470                          l4708 4454                          l4740 4516  
                        l4732 44FE                          l4820 3C3C                          l4812 3C1A  
                        l4804 3C06                          l4900 334C                          l3588 38A2  
                        l3908 3F34                          l3932 4064                          l3940 408E  
                        l3924 4034                          l3916 4012                          l5380 2CEC  
                        l5372 2C86                          l5364 2C54                          l5356 2C1C  
                        l5348 2BE0                          l5292 2A8C                          l5284 2A62  
                        l5276 2A32                          l3852 2A06                          l3844 29B2  
                        l3836 2956                          l3828 2912                          l3780 272A  
                        l3772 26F2                          l3764 26AE                          l3756 2678  
                        l3748 265C                          l5700 13F2                          l5620 1152  
                        l5612 1122                          l5604 10FC                          l5540 0D50  
                        l5532 0D1E                          l5524 0CEE                          l5516 0C82  
                        l5508 0C58                          l5452 09BC                          l5444 0958  
                        l5460 0A06                          l5436 0924                          l5428 08F0  
                        l4556 3D36                          l4548 3D04                          l4566 4742  
                        l4726 4472                          l4670 470E                          l4750 4530  
                        l4742 4518                          l4734 450E                          l4830 3C84  
                        l4822 3C50                          l4814 3C1E                          l4806 3C0C  
                        l4910 33D4                          l4902 3358                          l3870 3E7E  
                        l3942 409E                          l3934 407A                          l3926 4046  
                        l3918 401A                          l5390 2D4E                          l5382 2CF8  
                        l5374 2C94                          l5366 2C62                          l5358 2C2E  
                        l5294 2A92                          l5286 2A72                          l5278 2A40  
                        l3950 40DE                          l3854 2A08                          l3846 29CC  
                        l3838 2980                          l3790 2774                          l3782 2742  
                        l3774 26FE                          l3766 26CE                          l3758 2688  
                        l3862 43EC                          l5702 1402                          l5630 11F0  
                        l5622 1156                          l5614 1128                          l5606 1102  
                        l5550 0D9A                          l5542 0D68                          l5534 0D2C  
                        l5518 0C94                          l5526 0CF2                          l5470 0A90  
                        l5462 0A2C                          l5454 09D4                          l5438 0928  
                        l4558 3D52                          l5710 1C06                          l4728 4474  
                        l4752 4534                          l4744 451C                          l4736 4510  
                        l4680 4592                          l4672 457C                          l4840 3CBE  
                        l4832 3C8A                          l4824 3C56                          l4816 3C22  
                        l4808 3C10                          l4920 3412                          l4912 33E0  
                        l4904 338A                          l4760 454E                          l3880 3EAE  
                        l3872 3E8C                          l3944 40A6                          l3936 4082  
                        l3928 404E                          l5392 2D64                          l5384 2D06  
                        l5376 2CC2                          l5368 2C74                          l5296 2A98  
                        l5288 2A74                          l3960 4156                          l3952 40EE  
                        l3848 29E8                          l3856 2A0E                          l3792 2784  
                        l3784 274E                          l3776 2708                          l3768 26DE  
                        l3864 43FC                          l5704 1408                          l5640 124E  
                        l5608 110E                          l5616 112E                          l5624 115C  
                        l5632 11F4                          l5552 0DAE                          l5560 0EA4  
                        l5544 0D7A                          l5536 0D30                          l5528 0CFA  
                        l5480 0AC6                          l5456 09DE                          l5448 098E  
                        l5720 1C70                          l5712 1C2A                          l4746 452A  
                        l4738 4512                          l4690 45AC                          l4682 4594  
                        l4674 458A                          l4842 3CD2                          l4834 3C9E  
                        l4826 3C6A                          l4818 3C28                          l4922 3436  
                        l4914 33EE                          l4906 338C                          l4770 4568  
                        l4762 4550                          l4850 4172                          l3890 3EDC  
                        l3882 3EB2                          l3874 3E94                          l3938 4088  
                        l5394 2D7E                          l5386 2D30                          l5298 2AA6  
                        l3954 411C                          l3970 3A56                          l3858 2A12  
                        l3794 2790                          l3786 275A                          l3778 271E  
                        l5650 128C                          l5642 125E                          l5634 1212  
                        l5626 11B4                          l5618 1140                          l5570 0F70  
                        l5562 0EC2                          l5554 0E12                          l5538 0D42  
                        l5546 0D82                          l5490 0B90                          l5466 0A62  
                        l5730 1D04                          l5722 1C78                          l5714 1C38  
                        l5802 2102                          l5810 41CC                          l4860 472E  
                        l4668 4732                          l4748 452E                          l4692 45B0  
                        l4684 4598                          l4676 458C                          l4836 3CA4  
                        l4828 3C70                          l4924 3446                          l4916 340C  
                        l4908 3398                          l4772 456C                          l4764 4554  
                        l4756 453E                          l4852 4196                          l3892 3EEA  
                        l3884 3EBA                          l3876 3E98                          l3868 3E7A  
                        l5396 2D9A                          l5388 2D34                          l3956 412C  
                        l3948 40B0                          l3980 3AE4                          l3972 3A66  
                        l3964 39EA                          l3796 27A0                          l3788 2768  
                        l5660 12C2                          l5652 129C                          l5644 1262  
                        l5636 122E                          l5628 11E8                          l5580 0FE8  
                        l5572 0F80                          l5564 0EF6                          l5556 0E6A  
                        l5548 0D8A                          l5492 0BC4                          l5484 0AFC  
                        l5468 0A74                          l5804 2126                          l5740 1D8E  
                        l5732 1D12                          l5724 1C86                          l5716 1C48  
                        l5812 41D4                          l5820 435A                          l5900 16AA  
                        l4862 4696                          l4686 45A6                          l4678 458E  
                        l4838 3CB8                          l4790 3BF6                          l4926 3454  
                        l4918 340E                          l4774 456E                          l4766 4556  
                        l4758 454C                          l4854 419A                          l4846 415A  
                        l3894 3EF0                          l3886 3ECC                          l3878 3EA6  
                        l5398 2D9E                          l3958 4150                          l3982 3AEA  
                        l3974 3A74                          l3966 3A18                          l3798 27BA  
                        l3990 4616                          l5670 131E                          l5662 12CE  
                        l5654 12A4                          l5646 1272                          l5638 1240  
                        l5590 109E                          l5582 0FF4                          l5574 0F90  
                        l5566 0F28                          l5558 0E9E                          l5494 0BCC  
                        l5486 0B30                          l5478 0AAC                          l5750 1E36  
                        l5742 1D9E                          l5726 1CAA                          l5718 1C4C  
                        l5814 41E2                          l5822 4362                          l5910 1728  
                        l5902 16D4                          l5830 142A                          l4856 4720  
                        l4864 46AC                          l4696 4432                          l4688 45AA  
                        l4792 3BF8                          l4928 3456                          l4776 4572  
                        l4768 455A                          l4848 415E                          l3896 3F06  
                        l3888 3ED4                          l3976 3A86                          l3968 3A28  
                        l5680 1368                          l5664 12D4                          l5672 1324  
                        l5656 12B2                          l5648 1284                          l5592 10B0  
                        l5584 1018                          l5576 0FC4                          l5568 0F3E  
                        l5488 0B36                          l5496 0BFE                          l5760 1EEC  
                        l5752 1E5A                          l5744 1DD0                          l5736 1D5A  
                        l5728 1CE4                          l5816 4208                          l5824 436A  
                        l5920 17A6                          l5904 16FA                          l5840 145C  
                        l5832 143E                          l4858 4722                          l4866 46B8  
                        l4698 4436                          l4794 3BFA                          l4890 32D4  
                        l3898 3F0E                          l3978 3A94                          l3986 45F0  
                        l3994 38E4                          l5690 1398                          l5682 1374  
                        l5674 1336                          l5666 12FA                          l5658 12BA  
                        l5594 10BE                          l5586 107C                          l5578 0FD4  
                        l5498 0C0E                          l5762 1F02                          l5770 1F6C  
                        l5754 1EA2                          l5746 1DE0                          l5738 1D6C  
                        l5826 4386                          l5818 4348                          l4882 46C2  
                        l5930 184C                          l5922 17B4                          l5914 1748  
                        l5906 170E                          l5850 14A0                          l5842 146E  
                        l5834 144A                          l4796 3BFC                          l4788 3BEE  
                        l4892 331A                          l3988 4606                          l3996 38FA  
                        l5684 137C                          l5676 1350                          l5668 1316  
                        l5588 108A                          l5596 10C6                          l5780 204E  
                        l5772 1F9A                          l5764 1F10                          l5748 1E12  
                        l5940 18F2                          l5932 185E                          l5924 17DE  
                        l5916 179C                          l5908 1720                          l5860 14D0  
                        l5852 14B2                          l5844 1474                          l5836 1450  
                        l4798 3BFE                          l4894 3330                          l4886 32B6  
                        l5694 13CC                          l5686 138C                          l5678 1356  
                        l5598 10DA                          l5790 20C4                          l5766 1F40  
                        l5758 1EDA                          l5950 19F0                          l5942 1902  
                        l5934 1892                          l5926 1812                          l5870 1500  
                        l5862 14D0                          l5854 14B6                          l5846 1480  
                        l5838 1456                          l4888 32C6                          l5696 13DE  
                        l5688 1392                          l5792 20D8                          l5776 2008  
                        l5960 1A4E                          l5952 1A02                          l5944 192C  
                        l5936 18A2                          l5928 1838                          l5880 150E  
                        l5872 1502                          l5864 14D0                          l5856 14C0  
                        l5848 149A                          l4898 3344                          l5698 13EA  
                        l5778 201A                          l5786 2092                          l5970 1AA2  
                        l5962 1A5C                          l5954 1A10                          l5946 19C4  
                        l5938 18CC                          l5890 15EC                          l5882 150E  
                        l5874 1504                          l5866 14E0                          l5858 14C8  
                        l5788 20B6                          l5796 20E6                          l5980 1AF6  
                        l5972 1AAE                          l5964 1A7A                          l5956 1A2E  
                        l5948 19EA                          l5892 15F2                          l5884 151A  
                        l5868 14F0                          l5798 20F4                          l5990 1B32  
                        l5982 1AFC                          l5974 1AC2                          l5966 1A7E  
                        l5958 1A34                          l5894 160E                          l5886 1560  
                        l5992 1B38                          l5984 1B0C                          l5976 1AC8  
                        l5968 1A9C                          l5896 1642                          l5888 15B8  
                        l5986 1B12                          l5978 1AE6                          l5898 169A  
                        l5996 1B5A                          l5988 1B1E                          l5998 1B60  
                        STR_1 0831                          STR_2 0854                          STR_3 0854  
                        STR_4 086E                          STR_5 0854                          STR_6 0854  
                        STR_7 0859                          STR_8 0851                          STR_9 0851  
                        u3000 3DFC                          u3001 3DF8                          u3010 3E32  
                        u3011 3E2E                          u3100 223A                          u3020 2154  
                        u3101 2236                          u3021 2150                          u3110 22A8  
                        u3030 2166                          u3111 22A4                          u3031 2162  
                        u4000 3E8C                          u3200 2386                          u3120 22C0  
                        u3040 2176                          u4001 3E88                          u3201 2382  
                        u3121 22BA                          u3041 2172                          u4010 3EA6  
                        u3210 23A4                          u3130 22C2                          u3050 21B8  
                        u4011 3EA2                          u3211 23A0                          u3051 21B4  
                        u4020 3ECC                          u4100 407A                          u3300 24E2  
                        u3220 23DC                          u3140 22EA                          u3060 21CE  
                        u4021 3EC8                          u4101 4076                          u3301 24DE  
                        u3221 23D8                          u3141 22E6                          u3061 21CA  
                        u4030 3EEA                          u4110 409E                          u3310 24F8  
                        u3230 2422                          u3150 2308                          u3070 21E0  
                        u4031 3EE6                          u4111 409A                          u3311 24F4  
                        u3231 241E                          u3151 2304                          u3071 21DC  
                        u4040 3F06                          u4120 40DE                          u4200 4606  
                        u3400 25E6                          u3320 250E                          u3240 2458  
                        u3160 2328                          u3080 21F0                          u4041 3F02  
                        u4121 40DA                          u4201 4602                          u3401 25E2  
                        u3321 250A                          u3241 2454                          u3161 2324  
                        u3081 21EC                          u3410 44BA                          u4050 3F2C  
                        u4130 411C                          u3330 2522                          u3250 2468  
                        u3170 2336                          u3090 222C                          u4210 38FA  
                        u3411 44B6                          u4051 3F28                          u4131 4118  
                        u3331 251E                          u3251 2464                          u3171 2332  
                        u3091 2228                          u4211 38F6                          u3500 36F4  
                        u3420 4688                          u4300 3FC4                          u4060 4012  
                        u4140 4150                          u3340 253C                          u3260 2494  
                        u3180 2346                          u4220 392E                          u3501 36F0  
                        u3421 4684                          u4301 3FC0                          u4061 400E  
                        u4141 414C                          u3341 2538                          u3261 2490  
                        u3181 2342                _Inicializa_ADC 4720                          u3510 373E  
                        u4310 3FD2                          u4070 402C                          u4150 3A18  
                        u3350 2576                          u3270 24A4                          u3190 2378  
                        u4230 395C                          u3430 45E8                          u3511 373A  
                        u4311 3FCE                          u4071 4028                          u4151 3A14  
                        u3351 2572                          u3271 24A0                          u3191 2374  
                        u4231 3958                          u3431 45E2                          u3520 3792  
                        u4320 44D6                          u4080 4046                          u6000 2B48  
                        u4160 3A56                          u3360 2588                          u3280 24C0  
                        u4240 3970                          u4400 4334                          u3440 45EA  
                        u3521 378E                          u4321 44D2                          u4081 4042  
                        u6001 2B44                          u4161 3A52                          u3361 2584  
                        u3281 24BC                          u4241 396C                          u4225 3924  
                        u3450 360A                          u3530 37C4                          u4090 4064  
                        u6010 2BBE                          u4170 3A74                          u3370 2598  
                        u3290 24D0                          u4250 3998                          u4330 3B2E  
                        u4410 4346                          u3451 3606                          u3531 37C0  
                        u4091 4060                          u6011 2BBA                          u4171 3A70  
                        u3371 2594                          u3291 24CC                          u4251 3994  
                        u4411 4342                          u5300 35AA                          u3460 363C  
                        u3540 3802                          u6100 2CD8                          u6020 2BE0  
                        u4180 3A94                          u3380 25B8                          u4260 39B8  
                        u4340 3B4C                          u4500 31CA                          u4420 425E  
                        u3461 3638                          u3541 37FE                          u6101 2CD4  
                        u6021 2BDC                          u4181 3A90                          u3381 25B4  
                        u4261 39B4                          u4341 3B48                          u4421 4258  
                        u5310 35C0                          u3550 382C                          u6110 2CEC  
                        u6030 2C0A                          u4190 3AE4                          u3390 25CA  
                        u4270 39C8                          u4350 3B74                          u4510 31E6  
                        u4430 4260                          u5311 35BC                          u3471 3666  
                        u3551 3828                          u6111 2CE8                          u6031 2C06  
                        u4191 3AE0                          u3391 25C6                          u4271 39C4  
                        u4351 3B70                          u4335 3B24                          u4511 31E2  
                        u4407 432A                          u5320 35D2                          u3480 368A  
                        u3560 385A                          u4280 3F4C                          u4600 2DF2  
                        u6120 2D06                          u6040 2C2E                          u4360 3B9E  
                        u4520 323A                          u4440 4276                          u6200 0958  
                        u5321 35CE                          u3481 3686                          u3561 3856  
                        u4281 3F48                          u6121 2D02                          u6041 2C2A  
                        u4361 3B9A                          u4505 31C0                          u4441 4272  
                        u6201 0954                          u3490 36B4                          u3570 38A2  
                        u4290 3F6E                          u4610 2E08                          u6130 2D4E  
                        u6050 2C44                          u3810 2614                          u4530 3256  
                        u4450 30E8                          u6210 0988                          u5330 3D04  
                        u3491 36B0                          u3571 389E                          u4291 3F6A  
                        u4611 2E04                          u6131 2D4A                          u6051 2C40  
                        u3811 2610                          u4531 3252                          u6211 0982  
                        u5331 3D00                          u5260 34A0                          u4700 3018  
                        u4620 2E36                          u6140 2D7E                          u6060 2C62  
                        u3900 28B2                          u3820 2626                          u4380 3BD8  
                        u4540 3292                          u4460 3116                          u6300 0BFE  
                        u6220 098A                          u5340 3D36                          u5261 349C  
                        u4701 3014                          u4621 2E32                          u6141 2D7A  
                        u6061 2C5E                          u3901 28AE                          u3821 2622  
                        u4381 3BD2                          u4541 328E                          u4525 3230  
                        u4461 3112                          u6301 0BFA                          u5341 3D32  
                        u4550 4658                          u5270 34D6                          u4710 302A  
                        u4630 2E52                          u6150 2DAC                          u6070 2C82  
                        u3910 28D2                          u3830 2636                          u4390 3BDA  
                        u4470 3138                          u6310 0C24                          u6230 09A0  
                        u5350 3D52                          u4551 4652                          u5271 34D2  
                        u4711 3026                          u4631 2E4E                          u6151 2DA8  
                        u6071 2C7E                          u3911 28CE                          u3831 2632  
                        u4375 3BB0                          u4471 3134                          u4455 30DE  
                        u6311 0C20                          u6231 099C                          u5351 3D4E  
                        u7007 19F8                          u5600 3C9E                          u4560 465A  
                        u5280 34F2                          u4720 3038                          u4640 2E80  
                        u6080 2C94                          u3920 28E4                          u3840 2676  
                        u6400 0D2C                          u6320 0C36                          u6240 0A2C  
                        u6160 08A0                          u5360 3D64                          u5601 3C9A  
                        u5281 34EE                          u4721 3034                          u4641 2E7C  
                        u6081 2C90                          u3921 28E0                          u3841 2672  
                        u6401 0D28                          u6321 0C32                          u6241 0A28  
                        u6161 089C                          u5361 3D60                          u7017 1A40  
                        u5610 3CB8                          u4570 43B2                          u5290 35A8  
                        u4730 3050                          u4650 2E8E                          u6090 2CC2  
                        u3930 2912                          u3850 2688                          u4490 31A6  
                        u6410 0D42                          u6330 0C58                          u6250 0A5C  
                        u6170 08F0                          u5370 3D8C                          u5611 3CB4  
                        u4571 43AE                          u5291 35A2                          u4731 304C  
                        u4651 2E8A                          u6091 2CBE                          u3931 290E  
                        u3851 2684                          u4491 31A2                          u6411 0D3E  
                        u6331 0C54                          u6251 0A56                          u6171 08EC  
                        u5371 3D88                          u7027 1A8A                          u5540 444E  
                        u5620 3CD2                          u5700 3330                          u4580 43E0  
                        u2980 3DC2                          u4660 2FB8                          u3940 2928  
                        u3860 2698                          u6500 109E                          u6420 0D50  
                        u6340 0C7E                          u6260 0A5E                          u6180 08FE  
                        u5541 444A                          u5621 3CCE                          u5701 332C  
                        u4581 43DC                          u2981 3DBE                          u4661 2FB4  
                        u3941 2924                          u3861 2694                          u4485 314C  
                        u6501 109A                          u6421 0D4C                          u6341 0C7A  
                        u6181 08FA                          u7037 1BF0                          u5710 3386  
                        u5630 4172                          u2990 3DD4                          u4670 2FD6  
                        u4590 2DF0                          u3950 293C                          u3870 26CE  
                        u4486 3156                          u6510 10B0                          u6430 0D7A  
                        u6350 0C94                          u6270 0A74                          u6190 0910  
                        u7047 4714                          u5711 3382                          u5631 416E  
                        u2991 3DD0                          u4671 2FD2                          u4591 2DEA  
                        u3951 2938                          u3871 26CA                          u4487 3166  
                        u6511 10AC                          u6431 0D76                          u6351 0C90  
                        u6271 0A70                          u6191 090C                          u5560 3C3C  
                        u5720 33D0                          u5640 4192                          u4680 2FF0  
                        u3960 2956                          u3880 26DE                          u6600 1284  
                        u6520 10BE                          u6440 0EC2                          u6360 0CB0  
                        u6280 0AF8                          u7057 4738                          u5561 3C38  
                        u5721 33CC                          u4681 2FEC                          u3961 2952  
                        u3881 26DA                          u6601 1280                          u6521 10BA  
                        u6441 0EBE                          u6361 0CAC                          u6281 0AF4  
                        u5570 3C50                          u5730 33EE                          u5650 41BA  
                        u4690 300A                          u3970 299E                          u3890 2858  
                        u6610 12B2                          u6530 10DA                          u6450 0F28  
                        u6370 0CE6                          u6290 0B8C                          u7067 4744  
                        u5571 3C4C                          u5731 33EA                          u4691 3006  
                        u3971 299A                          u6611 12AE                          u6531 10D6  
                        u6451 0F24                          u6371 0CE2                          u6291 0B88  
                        u5580 3C6A                          u5740 33FE                          u5660 41CA  
                        u3980 29CC                          u6620 1336                          u6540 10E8  
                        u6460 0F70                          u6380 0D0C                          u6700 1CAA  
                        u5581 3C66                          u5741 33FA                          u5661 41C6  
                        u3981 29C8                          u6621 1332                          u6541 10E4  
                        u6461 0F6C                          u6381 0D08                          u6701 1CA6  
                        u5670 46A6                          u5590 3C84                          u5750 340C  
                        u3990 2A06                          u6630 1350                          u6550 1140  
                        u6470 0F80                          u6390 0D1E                          u6710 1D54  
                        u5671 46A2                          u5591 3C80                          u5751 3408  
                        u5647 4188                          u3991 2A02                          u3895 284E  
                        u6631 134C                          u6551 113C                          u6471 0F7C  
                        u6391 0D1A                          u6711 1D4E                          u5760 3446  
                        u5680 32C6                          u6640 1368                          u6560 1212  
                        u6480 0FE8                          u6800 2002                          u6720 1D56  
                        u5761 3442                          u5681 32C2                          u5657 41B0  
                        u6641 1364                          u6561 120E                          u6481 0FE4  
                        u6801 1FFC                          u5770 3454                          u5690 32D4  
                        u5930 2A40                          u6650 13C6                          u6570 122E  
                        u6490 108A                          u6810 2004                          u6730 1D6C  
                        u5771 3450                          u5691 32D0                          u5931 2A3C  
                        u6651 13C0                          u6571 122A                          u6491 1086  
                        u6731 1D68                          u5940 2A52                          u6660 13C8  
                        u6580 1240                          u6820 201A                          u6740 1D9E  
                        u6900 1902                          u5941 2A4E                          u6581 123C  
                        u6821 2016                          u6741 1D9A                          u6901 18FE  
                        u5950 2A62                          u6670 13DE                          u6590 124E  
                        u6830 20B6                          u6750 1DE0                          u6910 1A10  
                        u5951 2A5E                          u6671 13DA                          u6591 124A  
                        u6831 20B2                          u6751 1DDC                          u6911 1A0C  
                        u5960 2AA6                          u6760 1E36                          u6680 1C2A  
                        u6840 4224                          u6920 1A2E                          u5961 2AA2  
                        u6761 1E32                          u6681 1C26                          u6841 4220  
                        u6921 1A2A                          u5970 2AB8                          u6770 1E5A  
                        u6690 1C70                          u6930 1A5C                          u6850 160E  
                        u5971 2AB4                          u6771 1E56                          u6691 1C6C  
                        u6931 1A58                          u6851 160A                          u5980 2AC8  
                        u6780 1EEC                          u6940 1A7A                          u6860 16AA  
                        u5981 2AC4                          u6781 1EE8                          u6941 1A76  
                        u6861 16A6                          u5990 2B08                          u6790 1F9A  
                        u6950 1AC2                          u6870 1744                          u5991 2B04  
                        u6791 1F96                          u6951 1ABE                          u6871 1740  
                        u6960 1B32                          u6880 17B4                          u6961 1B2E  
                        u6881 17B0                          u6890 18A2                          u6891 189E  
                        u6977 1464                          u6987 148C                          u6997 14A8  
                 main@current 0164                          abs@a 001C                          _dbuf 0172  
                        _atoi 3468                          _main 142A                          _dtoa 2DC0  
                        _prec 0050                          _nout 00FC                          pad@i 0021  
                        pad@p 001E                          fsr1h 000FE2                          fsr2h 000FDA  
                        indf1 000FE7                          indf2 000FDF                          fsr1l 000FE1  
                        pad@w 0023                          fsr2l 000FD9                          btemp 0056  
                main@adcValue 015A                 ___fpclassifyf 3AEE        __size_of_WriteDataXLCD 003E  
                        prodh 000FF4                          prodl 000FF3                          start 00C6  
             ___fldiv@new_exp 0065                   main@voltage 0156                  _tolower$1517 0016  
                ___param_bank 000000                         ??_abs 001E                         ??_pad 0020  
                _WriteCmdXLCD 457A                 ___fltol@sign1 0012               __end_of___aodiv 3780  
                       ?_atoi 0011                 ?_SetDDRamAddr 0001               __end_of___fladd 25FA  
                       ?_main 0001                         ?_dtoa 0025               __end_of___aomod 38E4  
             __end_of___fldiv 2DC0               __end_of___awdiv 3F3E               __end_of___flneg 4628  
                       STR_10 0851                         STR_11 0851                         STR_20 0866  
                       STR_12 0822                         STR_13 0801                         STR_14 0812  
                       STR_15 0801                         STR_23 0862                         STR_24 086A  
                       STR_16 0848                         STR_17 083F                         STR_18 0875  
                       STR_27 0872                         STR_19 085E               __end_of___awmod 40B0  
                       STR_29 0872               __end_of___flmul 2A24               __end_of___flsub 4432  
             __end_of___fltol 39EA                         _T0CON 000FD5               ___awdiv@divisor 000C  
                       i1l184 00AE                         i2l178 4752               ___awdiv@counter 000E  
                vfpfcnvrt@fmt 00BE                         _TMR0H 000FD7                         _TMR0L 000FD6  
                       _PORTD 000F83                         _TRISD 000F95        __end_of_Inicializa_ADC 4732  
                       _flags 0052                         _fputc 3DB0                         _fputs 4478  
             __end_of_isdigit 4660                         atoi@n 001E                         pad@fp 001A  
                       atoi@s 0011                         _width 004E                         _putch 475A  
                       main@i 0160                         dtoa@d 0027                         dtoa@i 0047  
                       main@y 0162                         dtoa@n 003F                         dtoa@p 0039  
                       dtoa@s 003D                         dtoa@w 003B               __end_of_isspace 43EC  
             __end_of_isupper 45F0                         tablat 000FF5                         ttemp5 0057  
                       ttemp6 005A                         ttemp7 005E                         status 000FD8  
                       wtemp8 0057               __end_of_sprintf 439A                ?___fpclassifyf 000A  
             __end_of_tolower 428E               __end_of_strncmp 3DB0               __initialization 428E  
                __end_of_atoi 35F8                  __end_of_main 1C06                  __end_of_dtoa 309E  
            __end_of_BusyXLCD 4478            __size_of_DelayXLCD 0012             main@offsetVoltage 013A  
       __size_of_DelayPORXLCD 0010                ??_SetDDRamAddr 000A              __end_of_OpenXLCD 3CDA  
                      ??_atoi 0013                        ??_main 0100                        ??_dtoa 002F  
               __activetblptr 000002                 _WriteDataXLCD 453C              ?_HighPriorityISR 0001  
             ?_Inicializa_ADC 0001                        _ADCON0 000FC2                        _ADCON1 000FC1  
                      _ADCON2 000FC0                        ?_fputc 000A                        ?_fputs 0013  
                      _ADRESH 000FC4                        _ADRESL 000FC3              ___awdiv@dividend 000A  
            ??_LowPriorityISR 0001                        ?_putch 0001                        i1l5020 0038  
                      i1l5030 00A6                        i1l5022 007A                        i1l5024 007E  
                      i1l5016 002E                        i1l5026 009A                        i1l5018 0030  
                      i1l5028 009E                        i2l3010 4750                        i2l3008 474E  
            __end_of___xxtofl 3468                        _LerADC 4696                  _DelayPORXLCD 4732  
                vfprintf@cfmt 00E0                        ___flge 39EA                        ___fleq 40B0  
                   ??___aodiv 001A                     ??___fladd 0012                     ??___aomod 001A  
                      ___wmul 46E8          _somatorio_de_tensoes 00FE                     ??___fldiv 0041  
                   ??___awdiv 000E                     ??___flneg 000E                     ??___awmod 000E  
                   ??___flmul 0020                     ??___flsub 0039                     ??___fltol 000E  
                      _efgtoa 0878                        _floorf 309E                        clear_0 42B4  
                      clear_1 42C0                        clear_2 42CC                        clear_3 42D8  
            ___awdiv@quotient 0010               ___awmod@divisor 000C               ___awmod@counter 000E  
                      pad@buf 001C                ?_WriteDataXLCD 0001                        _strcat 46C2  
                      dtoa@fp 0025                        _strcpy 42EC                        _strlen 4660  
                      fputc@c 000A                        fputs@c 0017                        fputs@i 0018  
                      fputs@s 0013                     ??_isdigit 000C               ___fpclassifyf@e 0012  
             ___fpclassifyf@u 0014               ___fpclassifyf@x 000A                  __mediumconst 0000  
                   ??_isspace 000C                        tblptrh 000FF7                     ??_isupper 000C  
                      tblptrl 000FF6                        tblptru 000FF8                        putch@c 0001  
            __end_of_vfprintf 422E                     ??_sprintf 004E                     ??_tolower 0012  
                   ??_strncmp 0010             __end_of_DelayXLCD 4720                    ___flge@ff1 0031  
                  ___flge@ff2 0035               ??___fpclassifyf 000E                  ___xxtofl@arg 0014  
                ___xxtofl@exp 0013                  ___xxtofl@val 000A                    ___fleq@ff1 000A  
                  ___fleq@ff2 000E                    __accesstop 0060       __end_of__initialization 42DE  
                  ___flneg@f1 000A                 ___rparam_used 000001                    ___fltol@f1 000A  
              __pcstackCOMRAM 0001                  __pidataBANK1 4756                main@calculando 0102  
               __end_of_fputc 3E7A                 __end_of_fputs 44BC                 __end_of_putch 475C  
                     ??_fputc 000E                       ??_fputs 0017        __size_of_DelayFor18TCY 000A  
                     ??_putch 000A                    __pbssBANK0 00F4                    __pbssBANK1 016E  
                  __pbssBANK2 0200                     ?_BusyXLCD 0001               WriteCmdXLCD@cmd 000A  
        __end_of_SetDDRamAddr 453C                     ?_OpenXLCD 0001                       ?_LerADC 000A  
                     ?___flge 0031                       ?___fleq 000A             WriteDataXLCD@data 000A  
                     ?___wmul 000A                       ?_efgtoa 007D                       ?_floorf 0045  
             ??_WriteDataXLCD 000A                       ?_strcat 0018                       ?_strcpy 000E  
                     ?_strlen 000A                     ?___xxtofl 000A            __size_of_vfpfcnvrt 0534  
          __size_of_putrsXLCD 0072                    ??_BusyXLCD 000A            _vetor_de_potencias 0200  
                  ??_OpenXLCD 000B               __size_of_LerADC 002C                       __Hparam 0000  
                     __Lparam 0000               __size_of___flge 0104               __size_of___fleq 00AA  
                     ___aodiv 35F8                       ___fladd 213A                       ___aomod 3780  
                     ___fldiv 2A24                       ___awdiv 3E7A                 _DelayFor18TCY 4742  
                     ___flneg 45F0                       ___awmod 4000                       ___flmul 25FA  
                     ___flsub 43EC                       ___fltol 38E4               __size_of___wmul 0026  
                   ?_vfprintf 00DA                  __psmallconst 0800               __size_of_efgtoa 0BB2  
             __size_of_floorf 0216                       __pcinit 428E               putrsXLCD@buffer 000B  
                     __ramtop 0800                       __ptext0 142A                       __ptext1 46C2  
                     __ptext2 4348                       __ptext3 41CC                       __ptext4 1C06  
                     __ptext5 3CDA                       __ptext6 0878                       __ptext7 422E  
                     __ptext8 45B8                       __ptext9 42EC                     _T0CONbits 000FD5  
             __size_of_strcat 0026              ??_Inicializa_ADC 000A               __size_of_strcpy 005C  
             __size_of_strlen 0036                  __size_of_abs 0040                  __size_of_pad 00C2  
                     _isdigit 4628                    ??___xxtofl 000E              ___awmod@dividend 000A  
                     _isspace 439A                       _isupper 45B8                       efgtoa@c 0083  
                     efgtoa@d 009C                       efgtoa@e 00B4                       efgtoa@f 007F  
                     efgtoa@g 00B0                       efgtoa@h 00A6                       efgtoa@i 00AE  
                     efgtoa@l 00AA                       efgtoa@m 0098                       efgtoa@n 00B6  
                     efgtoa@p 00A0                       efgtoa@t 0094                       efgtoa@u 00B8  
                     efgtoa@w 00A3                       atoi@neg 0017                       _sprintf 4348  
                     _tolower 422E                       _strncmp 3CDA                __pintcode_body 474C  
        end_of_initialization 42DE                       floorf@e 0077                       floorf@m 0073  
                     floorf@u 0079                       floorf@x 0045                       fputc@fp 000C  
               __Lmediumconst 0000                       int_func 474C                       fputs@fp 0015  
     main@potencia_por_minuto 016A             __end_of_vfpfcnvrt 213A                    efgtoa@mode 00A5  
                  efgtoa@sign 009E                ?_DelayFor18TCY 0001                       postdec1 000FE5  
                     postdec2 000FDD                       postinc0 000FEE                       postinc1 000FE6  
                     postinc2 000FDE                    ??_vfprintf 004E                       strcpy@d 0016  
                     strlen@a 000C                       strcpy@s 0014                       strlen@s 000A  
           __end_of_putrsXLCD 41CC                     _PORTBbits 000F81                   ___fladd@grs 0019  
               ___xxtofl@sign 0012                     _TRISAbits 000F92                     _TRISBbits 000F93  
                   _TRISEbits 000F96                   ___fldiv@grs 0067                   ___fldiv@rem 0060  
       __size_of_SetDDRamAddr 0040      __size_of_HighPriorityISR 474E                   ___flmul@grs 0025  
            main@currentWatts 0126                     _DelayXLCD 470E                __end_of_LerADC 46C2  
              __end_of___flge 3AEE                __end_of___fleq 415A                   vfpfcnvrt@ap 00C0  
                 vfpfcnvrt@ct 00D2                   vfpfcnvrt@fp 00BC                   vfpfcnvrt@ll 00C6  
              __end_of___wmul 470E                __end_of_efgtoa 142A                __end_of_floorf 32B4  
                  floorf@F524 00F4                  _SetDDRamAddr 44FC                __end_of_strcat 46E8  
          SetDDRamAddr@DDaddr 000A                __end_of_strcpy 4348                __end_of_strlen 4696  
         start_initialization 428E                   __end_of_abs 44FC                   __end_of_pad 4000  
       __end_of___fpclassifyf 3BEC             __size_of_BusyXLCD 0046                    ?_DelayXLCD 0001  
                    ??_LerADC 000C               ??_DelayFor18TCY 000A       __size_of_LowPriorityISR 00AE  
                 vfprintf@fmt 00DC             __size_of_OpenXLCD 00EE                      ??___flge 0039  
                    ??___fleq 0012                      ??___wmul 000E                      ??_efgtoa 0049  
               ?_WriteCmdXLCD 0001                   __pdataBANK1 01C2                      ??_floorf 006D  
                    ??_strcat 001C                      ??_strcpy 0012                      ??_strlen 000C  
                   ___fladd@a 000E                     ___fladd@b 000A                     ___fldiv@a 003D  
                   ___fldiv@b 0039                     ___flmul@a 001C                     ___flmul@b 0018  
                 __pbssCOMRAM 004E                     ___flsub@a 0035                     ___flsub@b 0031  
               __pcstackBANK0 0060                 __pcstackBANK1 0100              ___aodiv@dividend 000A  
           __size_of___xxtofl 01B4           _calculo_de_potencia 016E                     _atoi$1415 0019  
                   _atoi$1416 001D                     _atoi$1417 001B             ??_HighPriorityISR 0001  
                 _efgtoa$1350 008A                   _efgtoa$1360 0092                   _efgtoa$1354 008C  
                 _efgtoa$1349 0088                   _efgtoa$1358 008E                   _efgtoa$1359 0090  
                   _main$1750 0142                     _main$1751 0146                     _main$1752 014A  
                   _main$1753 014E                     _dtoa$1325 0037                     __pintcode 0008  
              ??_WriteCmdXLCD 000A                      ?___aodiv 000A                      ?___fladd 000A  
                    ?___aomod 000A                      ?___fldiv 0039                      ?___awdiv 000A  
            ___aodiv@quotient 001C                      ?___flneg 000A                      ?___awmod 000A  
                    ?___flmul 0018                      ?___flsub 0031                      ?___fltol 000A  
                 __pintcodelo 0018         __end_of_WriteDataXLCD 457A             __size_of_vfprintf 0062  
                 __smallconst 0800                      ?_isdigit 000A                      ?_isspace 000A  
                    ?_isupper 000A                      ?_sprintf 00E2                      ?_tolower 0010  
              __size_of_fputc 00CA                __size_of_fputs 0044                      ?_strncmp 000A  
              __size_of_putch 0002    main@dis_de_consumo_por_mes 0154                ___wmul@product 000E  
                    _LATBbits 000F8A                      _LATEbits 000F8D                   ??_DelayXLCD 000A  
               ?_DelayPORXLCD 0001                      i1u580_20 009A                      i1u580_21 0096  
             OpenXLCD@lcdtype 000B                      _GO_nDONE 007E11                      _RCONbits 000FD0  
                   _vfpfcnvrt 1C06                    _ADCON0bits 000FC2             ___wmul@multiplier 000A  
            main@valorPorHora 0112                     _putrsXLCD 415A                  _isspace$1446 0010  
                  vfpfcnvrt@c 00D9                    vfpfcnvrt@f 00D5                   _INTCON2bits 000FF1  
                 _INTCON3bits 000FF0                     copy_data0 42A2                      _BusyXLCD 4432  
              ??_DelayPORXLCD 000A                      _OpenXLCD 3BEC                      __Hrparam 0000  
              _LowPriorityISR 0018                    vfprintf@ap 00DE                      __Lrparam 0000  
                  vfprintf@fp 00DA              __size_of___aodiv 0188              __size_of___fladd 04C0  
            __size_of___aomod 0164              __size_of___fldiv 039C              __size_of___awdiv 00C4  
            __size_of___flneg 0038              __size_of___awmod 00B0              __size_of___flmul 042A  
            __size_of___flsub 0046              __size_of___fltol 0106                    ?_vfpfcnvrt 00BC  
             ___aodiv@divisor 0012               ___aodiv@counter 001A            ___fpclassifyf@F463 00F8  
             main@minuteWatts 0130                    sprintf@fmt 00E4                    ?_putrsXLCD 000B  
                    ___xxtofl 32B4                    strcat@dest 0018              __size_of_isdigit 0038  
            __size_of_isspace 0052                      __ptext10 309E                      __ptext11 3AEE  
                    __ptext20 4000                      __ptext12 38E4                      __ptext21 3E7A  
                    __ptext13 43EC                      __ptext30 35F8                      __ptext22 2DC0  
                    __ptext14 213A                      __ptext31 3468                      __ptext23 3F3E  
                    __ptext15 45F0                      __ptext40 44FC                      __ptext32 439A  
                    __ptext24 4660                      __ptext16 25FA                      __ptext41 470E  
                    __ptext33 4628                      __ptext25 4478                      __ptext17 39EA  
                    __ptext42 4732                      __ptext34 46E8                      __ptext26 3DB0  
                    __ptext18 40B0                      __ptext43 4432                      __ptext35 415A  
                    __ptext27 475A                      __ptext19 2A24                      __ptext44 4742  
                    __ptext36 453C                      __ptext28 44BC                      __ptext45 4696  
                    __ptext37 32B4                      __ptext29 3780                      __ptext46 4720  
                    __ptext38 3BEC                      __ptext39 457A              __size_of_isupper 0038  
        __end_of_WriteCmdXLCD 45B8              __size_of_sprintf 0052              __size_of_tolower 0060  
                  strcpy@dest 000E              __size_of_strncmp 00D6       __size_of_Inicializa_ADC 0012  
               __size_of_atoi 0190                 __size_of_main 07DC                 __size_of_dtoa 02DE  
      __end_of_LowPriorityISR 00C6                      efgtoa@fp 007D                      efgtoa@ne 009A  
                    efgtoa@pp 0096                      efgtoa@ou 0084                      int$flags 0056  
                    _vfprintf 41CC               main@valorPorMes 011C                      main@tela 0168  
            ___aomod@dividend 000A  main@horas_de_consumo_por_dia 0152               main@sensitivity 013E  
              _vfpfcnvrt$1374 00CE                _vfpfcnvrt$1379 00D0                    _INTCONbits 000FF2  
                    isdigit@c 000A               _HighPriorityISR 0008                      intlevel1 0000  
                    intlevel2 0000                     sprintf@ap 00EC                    LerADC@temp 000E  
                   strcat@src 001A                      isspace@c 000A               ?_LowPriorityISR 0001  
                   strcpy@src 0010                      isupper@c 000A                     strncmp@_l 000A  
                   strncmp@_r 000C         __end_of_DelayFor18TCY 474C                   efgtoa@nmode 00A2  
        _minutos_que_passaram 0054               ___aomod@divisor 0012                   ??_vfpfcnvrt 00C2  
             ___aomod@counter 001A            main@preco_em_reais 015C                      sprintf@f 00EE  
                    tolower@c 0010                      sprintf@s 00E2        __size_of___fpclassifyf 00FE  
        __end_of_DelayPORXLCD 4742                   ??_putrsXLCD 000D         _segundos_que_passaram 01C4  
                    strncmp@l 0011                      strncmp@n 000E                      strncmp@r 0013  
               ___fladd@signs 0016                  ___aodiv@sign 001B                  ___fladd@aexp 0017  
                ___fladd@bexp 0018                  ___aomod@sign 001B  
